
Node2.elf:     file format elf32-avr

Sections:
Idx Name          Size      VMA       LMA       File off  Algn
  0 .data         000000f2  00800200  00012738  000127cc  2**0
                  CONTENTS, ALLOC, LOAD, DATA
  1 .text         00012738  00000000  00000000  00000094  2**1
                  CONTENTS, ALLOC, LOAD, READONLY, CODE
  2 .bss          0000005d  008002f2  008002f2  000128be  2**0
                  ALLOC
  3 .comment      0000005c  00000000  00000000  000128be  2**0
                  CONTENTS, READONLY
  4 .debug_aranges 00000378  00000000  00000000  0001291a  2**0
                  CONTENTS, READONLY, DEBUGGING
  5 .debug_info   00002702  00000000  00000000  00012c92  2**0
                  CONTENTS, READONLY, DEBUGGING
  6 .debug_abbrev 00001281  00000000  00000000  00015394  2**0
                  CONTENTS, READONLY, DEBUGGING
  7 .debug_line   00001fa0  00000000  00000000  00016615  2**0
                  CONTENTS, READONLY, DEBUGGING
  8 .debug_frame  00000798  00000000  00000000  000185b8  2**2
                  CONTENTS, READONLY, DEBUGGING
  9 .debug_str    000009e3  00000000  00000000  00018d50  2**0
                  CONTENTS, READONLY, DEBUGGING
 10 .debug_loc    00001211  00000000  00000000  00019733  2**0
                  CONTENTS, READONLY, DEBUGGING
 11 .debug_ranges 00000288  00000000  00000000  0001a944  2**0
                  CONTENTS, READONLY, DEBUGGING

Disassembly of section .text:

00000000 <__vectors>:
       0:	0c 94 cc 85 	jmp	0x10b98	; 0x10b98 <__ctors_end>
       4:	0c 94 ec 85 	jmp	0x10bd8	; 0x10bd8 <__bad_interrupt>
       8:	0c 94 ec 85 	jmp	0x10bd8	; 0x10bd8 <__bad_interrupt>
       c:	0c 94 ec 85 	jmp	0x10bd8	; 0x10bd8 <__bad_interrupt>
      10:	0c 94 ec 85 	jmp	0x10bd8	; 0x10bd8 <__bad_interrupt>
      14:	0c 94 ec 85 	jmp	0x10bd8	; 0x10bd8 <__bad_interrupt>
      18:	0c 94 ec 85 	jmp	0x10bd8	; 0x10bd8 <__bad_interrupt>
      1c:	0c 94 ec 85 	jmp	0x10bd8	; 0x10bd8 <__bad_interrupt>
      20:	0c 94 ec 85 	jmp	0x10bd8	; 0x10bd8 <__bad_interrupt>
      24:	0c 94 ec 85 	jmp	0x10bd8	; 0x10bd8 <__bad_interrupt>
      28:	0c 94 ec 85 	jmp	0x10bd8	; 0x10bd8 <__bad_interrupt>
      2c:	0c 94 ec 85 	jmp	0x10bd8	; 0x10bd8 <__bad_interrupt>
      30:	0c 94 ec 85 	jmp	0x10bd8	; 0x10bd8 <__bad_interrupt>
      34:	0c 94 ec 85 	jmp	0x10bd8	; 0x10bd8 <__bad_interrupt>
      38:	0c 94 ec 85 	jmp	0x10bd8	; 0x10bd8 <__bad_interrupt>
      3c:	0c 94 ec 85 	jmp	0x10bd8	; 0x10bd8 <__bad_interrupt>
      40:	0c 94 ec 85 	jmp	0x10bd8	; 0x10bd8 <__bad_interrupt>
      44:	0c 94 ec 85 	jmp	0x10bd8	; 0x10bd8 <__bad_interrupt>
      48:	0c 94 ec 85 	jmp	0x10bd8	; 0x10bd8 <__bad_interrupt>
      4c:	0c 94 ec 85 	jmp	0x10bd8	; 0x10bd8 <__bad_interrupt>
      50:	0c 94 ec 85 	jmp	0x10bd8	; 0x10bd8 <__bad_interrupt>
      54:	0c 94 ec 85 	jmp	0x10bd8	; 0x10bd8 <__bad_interrupt>
      58:	0c 94 ec 85 	jmp	0x10bd8	; 0x10bd8 <__bad_interrupt>
      5c:	0c 94 9a 89 	jmp	0x11334	; 0x11334 <__vector_23>
      60:	0c 94 ec 85 	jmp	0x10bd8	; 0x10bd8 <__bad_interrupt>
      64:	0c 94 ec 85 	jmp	0x10bd8	; 0x10bd8 <__bad_interrupt>
      68:	0c 94 ec 85 	jmp	0x10bd8	; 0x10bd8 <__bad_interrupt>
      6c:	0c 94 ec 85 	jmp	0x10bd8	; 0x10bd8 <__bad_interrupt>
      70:	0c 94 ec 85 	jmp	0x10bd8	; 0x10bd8 <__bad_interrupt>
      74:	0c 94 ec 85 	jmp	0x10bd8	; 0x10bd8 <__bad_interrupt>
      78:	0c 94 ec 85 	jmp	0x10bd8	; 0x10bd8 <__bad_interrupt>
      7c:	0c 94 ec 85 	jmp	0x10bd8	; 0x10bd8 <__bad_interrupt>
      80:	0c 94 ec 85 	jmp	0x10bd8	; 0x10bd8 <__bad_interrupt>
      84:	0c 94 ec 85 	jmp	0x10bd8	; 0x10bd8 <__bad_interrupt>
      88:	0c 94 ec 85 	jmp	0x10bd8	; 0x10bd8 <__bad_interrupt>
      8c:	0c 94 ec 85 	jmp	0x10bd8	; 0x10bd8 <__bad_interrupt>
      90:	0c 94 ec 85 	jmp	0x10bd8	; 0x10bd8 <__bad_interrupt>
      94:	0c 94 ec 85 	jmp	0x10bd8	; 0x10bd8 <__bad_interrupt>
      98:	0c 94 ec 85 	jmp	0x10bd8	; 0x10bd8 <__bad_interrupt>
      9c:	0c 94 a9 8b 	jmp	0x11752	; 0x11752 <__vector_39>
      a0:	0c 94 ec 85 	jmp	0x10bd8	; 0x10bd8 <__bad_interrupt>
      a4:	0c 94 ec 85 	jmp	0x10bd8	; 0x10bd8 <__bad_interrupt>
      a8:	0c 94 ec 85 	jmp	0x10bd8	; 0x10bd8 <__bad_interrupt>
      ac:	0c 94 ec 85 	jmp	0x10bd8	; 0x10bd8 <__bad_interrupt>
      b0:	0c 94 ec 85 	jmp	0x10bd8	; 0x10bd8 <__bad_interrupt>
      b4:	0c 94 ec 85 	jmp	0x10bd8	; 0x10bd8 <__bad_interrupt>
      b8:	0c 94 ec 85 	jmp	0x10bd8	; 0x10bd8 <__bad_interrupt>
      bc:	0c 94 51 8b 	jmp	0x116a2	; 0x116a2 <__vector_47>
      c0:	0c 94 ec 85 	jmp	0x10bd8	; 0x10bd8 <__bad_interrupt>
      c4:	0c 94 ec 85 	jmp	0x10bd8	; 0x10bd8 <__bad_interrupt>
      c8:	0c 94 ec 85 	jmp	0x10bd8	; 0x10bd8 <__bad_interrupt>
      cc:	0c 94 ec 85 	jmp	0x10bd8	; 0x10bd8 <__bad_interrupt>
      d0:	0c 94 ec 85 	jmp	0x10bd8	; 0x10bd8 <__bad_interrupt>
      d4:	0c 94 ec 85 	jmp	0x10bd8	; 0x10bd8 <__bad_interrupt>
      d8:	0c 94 ec 85 	jmp	0x10bd8	; 0x10bd8 <__bad_interrupt>
      dc:	0c 94 ec 85 	jmp	0x10bd8	; 0x10bd8 <__bad_interrupt>
      e0:	0c 94 ec 85 	jmp	0x10bd8	; 0x10bd8 <__bad_interrupt>
      e4:	bf 89       	ldd	r27, Y+23	; 0x17
      e6:	d2 89       	ldd	r29, Z+18	; 0x12
      e8:	e5 89       	ldd	r30, Z+21	; 0x15
      ea:	f8 89       	ldd	r31, Y+16	; 0x10
      ec:	0b 8a       	std	Y+19, r0	; 0x13
      ee:	1e 8a       	std	Y+22, r1	; 0x16
      f0:	31 8a       	std	Z+17, r3	; 0x11
      f2:	44 8a       	std	Z+20, r4	; 0x14
      f4:	c4 8b       	std	Z+20, r28	; 0x14
      f6:	16 8c       	ldd	r1, Z+30	; 0x1e
      f8:	16 8c       	ldd	r1, Z+30	; 0x1e
      fa:	16 8c       	ldd	r1, Z+30	; 0x1e
      fc:	16 8c       	ldd	r1, Z+30	; 0x1e
      fe:	16 8c       	ldd	r1, Z+30	; 0x1e
     100:	16 8c       	ldd	r1, Z+30	; 0x1e
     102:	16 8c       	ldd	r1, Z+30	; 0x1e
     104:	c4 8b       	std	Z+20, r28	; 0x14
     106:	16 8c       	ldd	r1, Z+30	; 0x1e
     108:	16 8c       	ldd	r1, Z+30	; 0x1e
     10a:	16 8c       	ldd	r1, Z+30	; 0x1e
     10c:	16 8c       	ldd	r1, Z+30	; 0x1e
     10e:	16 8c       	ldd	r1, Z+30	; 0x1e
     110:	16 8c       	ldd	r1, Z+30	; 0x1e
     112:	16 8c       	ldd	r1, Z+30	; 0x1e
     114:	c6 8b       	std	Z+22, r28	; 0x16
     116:	16 8c       	ldd	r1, Z+30	; 0x1e
     118:	16 8c       	ldd	r1, Z+30	; 0x1e
     11a:	16 8c       	ldd	r1, Z+30	; 0x1e
     11c:	16 8c       	ldd	r1, Z+30	; 0x1e
     11e:	16 8c       	ldd	r1, Z+30	; 0x1e
     120:	16 8c       	ldd	r1, Z+30	; 0x1e
     122:	16 8c       	ldd	r1, Z+30	; 0x1e
     124:	16 8c       	ldd	r1, Z+30	; 0x1e
     126:	16 8c       	ldd	r1, Z+30	; 0x1e
     128:	16 8c       	ldd	r1, Z+30	; 0x1e
     12a:	16 8c       	ldd	r1, Z+30	; 0x1e
     12c:	16 8c       	ldd	r1, Z+30	; 0x1e
     12e:	16 8c       	ldd	r1, Z+30	; 0x1e
     130:	16 8c       	ldd	r1, Z+30	; 0x1e
     132:	16 8c       	ldd	r1, Z+30	; 0x1e
     134:	c6 8b       	std	Z+22, r28	; 0x16
     136:	16 8c       	ldd	r1, Z+30	; 0x1e
     138:	16 8c       	ldd	r1, Z+30	; 0x1e
     13a:	16 8c       	ldd	r1, Z+30	; 0x1e
     13c:	16 8c       	ldd	r1, Z+30	; 0x1e
     13e:	16 8c       	ldd	r1, Z+30	; 0x1e
     140:	16 8c       	ldd	r1, Z+30	; 0x1e
     142:	16 8c       	ldd	r1, Z+30	; 0x1e
     144:	16 8c       	ldd	r1, Z+30	; 0x1e
     146:	16 8c       	ldd	r1, Z+30	; 0x1e
     148:	16 8c       	ldd	r1, Z+30	; 0x1e
     14a:	16 8c       	ldd	r1, Z+30	; 0x1e
     14c:	16 8c       	ldd	r1, Z+30	; 0x1e
     14e:	16 8c       	ldd	r1, Z+30	; 0x1e
     150:	16 8c       	ldd	r1, Z+30	; 0x1e
     152:	16 8c       	ldd	r1, Z+30	; 0x1e
     154:	12 8c       	ldd	r1, Z+26	; 0x1a
     156:	16 8c       	ldd	r1, Z+30	; 0x1e
     158:	16 8c       	ldd	r1, Z+30	; 0x1e
     15a:	16 8c       	ldd	r1, Z+30	; 0x1e
     15c:	16 8c       	ldd	r1, Z+30	; 0x1e
     15e:	16 8c       	ldd	r1, Z+30	; 0x1e
     160:	16 8c       	ldd	r1, Z+30	; 0x1e
     162:	16 8c       	ldd	r1, Z+30	; 0x1e
     164:	ef 8b       	std	Y+23, r30	; 0x17
     166:	16 8c       	ldd	r1, Z+30	; 0x1e
     168:	16 8c       	ldd	r1, Z+30	; 0x1e
     16a:	16 8c       	ldd	r1, Z+30	; 0x1e
     16c:	16 8c       	ldd	r1, Z+30	; 0x1e
     16e:	16 8c       	ldd	r1, Z+30	; 0x1e
     170:	16 8c       	ldd	r1, Z+30	; 0x1e
     172:	16 8c       	ldd	r1, Z+30	; 0x1e
     174:	16 8c       	ldd	r1, Z+30	; 0x1e
     176:	16 8c       	ldd	r1, Z+30	; 0x1e
     178:	16 8c       	ldd	r1, Z+30	; 0x1e
     17a:	16 8c       	ldd	r1, Z+30	; 0x1e
     17c:	16 8c       	ldd	r1, Z+30	; 0x1e
     17e:	16 8c       	ldd	r1, Z+30	; 0x1e
     180:	16 8c       	ldd	r1, Z+30	; 0x1e
     182:	16 8c       	ldd	r1, Z+30	; 0x1e
     184:	e3 8b       	std	Z+19, r30	; 0x13
     186:	16 8c       	ldd	r1, Z+30	; 0x1e
     188:	16 8c       	ldd	r1, Z+30	; 0x1e
     18a:	16 8c       	ldd	r1, Z+30	; 0x1e
     18c:	16 8c       	ldd	r1, Z+30	; 0x1e
     18e:	16 8c       	ldd	r1, Z+30	; 0x1e
     190:	16 8c       	ldd	r1, Z+30	; 0x1e
     192:	16 8c       	ldd	r1, Z+30	; 0x1e
     194:	01 8c       	ldd	r0, Z+25	; 0x19

00000196 <__trampolines_end>:
     196:	5f 80       	ldd	r5, Y+7	; 0x07
     198:	7d 6e       	ori	r23, 0xED	; 237
     19a:	88 70       	andi	r24, 0x08	; 8
     19c:	7e 94 84 82 	call	0x1d0508	; 0x1d0508 <__data_load_end+0x1bdcde>
     1a0:	76 91       	elpm	r23, Z
     1a2:	8a 86       	std	Y+10, r8	; 0x0a
     1a4:	62 6f       	ori	r22, 0xF2	; 242
     1a6:	76 5f       	subi	r23, 0xF6	; 246
     1a8:	6f 73       	andi	r22, 0x3F	; 63
     1aa:	6a 70       	andi	r22, 0x0A	; 10
     1ac:	6a 6b       	ori	r22, 0xBA	; 186
     1ae:	6b 7f       	andi	r22, 0xFB	; 251
     1b0:	77 7f       	andi	r23, 0xF7	; 247
     1b2:	a7 8a       	std	Z+23, r10	; 0x17
     1b4:	95 7d       	andi	r25, 0xD5	; 213
     1b6:	7b 9d       	mul	r23, r11
     1b8:	ac ac       	ldd	r10, Y+60	; 0x3c
     1ba:	92 7e       	andi	r25, 0xE2	; 226
     1bc:	b1 9a       	sbi	0x16, 1	; 22
     1be:	94 87       	std	Z+12, r25	; 0x0c
     1c0:	60 6e       	ori	r22, 0xE0	; 224
     1c2:	84 65       	ori	r24, 0x54	; 84
     1c4:	4e 51       	subi	r20, 0x1E	; 30
     1c6:	47 5a       	subi	r20, 0xA7	; 167
     1c8:	49 58       	subi	r20, 0x89	; 137
     1ca:	5b 48       	sbci	r21, 0x8B	; 139
     1cc:	5f 6b       	ori	r21, 0xBF	; 191
     1ce:	5d 6e       	ori	r21, 0xED	; 237
     1d0:	6a 73       	andi	r22, 0x3A	; 58
     1d2:	6e 7b       	andi	r22, 0xBE	; 190
     1d4:	82 a1       	ldd	r24, Z+34	; 0x22
     1d6:	bc a3       	std	Y+36, r27	; 0x24
     1d8:	9f 9c       	mul	r9, r15
     1da:	ac ad       	ldd	r26, Y+60	; 0x3c
     1dc:	ad 9c       	mul	r10, r13
     1de:	a5 ab       	std	Z+53, r26	; 0x35
     1e0:	ac b1       	in	r26, 0x0c	; 12
     1e2:	a6 a1       	ldd	r26, Z+38	; 0x26
     1e4:	b2 a3       	std	Z+34, r27	; 0x22
     1e6:	a8 ad       	ldd	r26, Y+56	; 0x38
     1e8:	8e a5       	ldd	r24, Y+46	; 0x2e
     1ea:	86 86       	std	Z+14, r8	; 0x0e
     1ec:	7e 7c       	andi	r23, 0xCE	; 206
     1ee:	8a 67       	ori	r24, 0x7A	; 122
     1f0:	73 70       	andi	r23, 0x03	; 3
     1f2:	6c 61       	ori	r22, 0x1C	; 28
     1f4:	55 55       	subi	r21, 0x55	; 85
     1f6:	4c 3b       	cpi	r20, 0xBC	; 188
     1f8:	2c 36       	cpi	r18, 0x6C	; 108
     1fa:	35 30       	cpi	r19, 0x05	; 5
     1fc:	33 1f       	adc	r19, r19
     1fe:	42 3f       	cpi	r20, 0xF2	; 242
     200:	46 4e       	sbci	r20, 0xE6	; 230
     202:	49 6e       	ori	r20, 0xE9	; 233
     204:	77 85       	ldd	r23, Z+15	; 0x0f
     206:	76 8a       	std	Z+22, r7	; 0x16
     208:	90 91 9b 8c 	lds	r25, 0x8C9B
     20c:	b0 99       	sbic	0x16, 0	; 22
     20e:	a4 ac       	ldd	r10, Z+60	; 0x3c
     210:	82 99       	sbic	0x10, 2	; 16
     212:	91 9a       	sbi	0x12, 1	; 18
     214:	a0 a3       	std	Z+32, r26	; 0x20
     216:	98 90       	.word	0x9098	; ????
     218:	8e aa       	std	Y+54, r8	; 0x36
     21a:	c5 a7       	std	Z+45, r28	; 0x2d
     21c:	af b7       	in	r26, 0x3f	; 63
     21e:	b6 b6       	in	r11, 0x36	; 54
     220:	b0 b0       	in	r11, 0x00	; 0
     222:	a7 a1       	ldd	r26, Z+39	; 0x27
     224:	9c 8e       	std	Y+28, r9	; 0x1c
     226:	a0 93 92 85 	sts	0x8592, r26
     22a:	86 8d       	ldd	r24, Z+30	; 0x1e
     22c:	76 70       	andi	r23, 0x06	; 6
     22e:	75 76       	andi	r23, 0x65	; 101
     230:	65 66       	ori	r22, 0x65	; 101
     232:	5b 60       	ori	r21, 0x0B	; 11
     234:	73 5c       	subi	r23, 0xC3	; 195
     236:	60 77       	andi	r22, 0x70	; 112
     238:	6b 7d       	andi	r22, 0xDB	; 219
     23a:	5e 7e       	andi	r21, 0xEE	; 238
     23c:	70 62       	ori	r23, 0x20	; 32
     23e:	77 5b       	subi	r23, 0xB7	; 183
     240:	70 62       	ori	r23, 0x20	; 32
     242:	64 5b       	subi	r22, 0xB4	; 180
     244:	55 5f       	subi	r21, 0xF5	; 245
     246:	5b 45       	sbci	r21, 0x5B	; 91
     248:	4a 58       	subi	r20, 0x8A	; 138
     24a:	55 4e       	sbci	r21, 0xE5	; 229
     24c:	55 5d       	subi	r21, 0xD5	; 213
     24e:	6d 6c       	ori	r22, 0xCD	; 205
     250:	61 84       	ldd	r6, Z+9	; 0x09
     252:	76 87       	std	Z+14, r23	; 0x0e
     254:	85 8b       	std	Z+21, r24	; 0x15
     256:	9f 92       	push	r9
     258:	93 8d       	ldd	r25, Z+27	; 0x1b
     25a:	90 9e       	mul	r9, r16
     25c:	94 7d       	andi	r25, 0xD4	; 212
     25e:	96 85       	ldd	r25, Z+14	; 0x0e
     260:	a7 81       	ldd	r26, Z+7	; 0x07
     262:	83 94       	inc	r8
     264:	94 a8       	ldd	r9, Z+52	; 0x34
     266:	92 b0       	in	r9, 0x02	; 2
     268:	a7 97       	sbiw	r28, 0x27	; 39
     26a:	aa b1       	in	r26, 0x0a	; 10
     26c:	a8 b5       	in	r26, 0x28	; 40
     26e:	b0 be       	out	0x30, r11	; 48
     270:	b5 b6       	in	r11, 0x35	; 53
     272:	b3 a7       	std	Z+43, r27	; 0x2b
     274:	9f ac       	ldd	r9, Y+63	; 0x3f
     276:	aa 8f       	std	Y+26, r26	; 0x1a
     278:	81 7c       	andi	r24, 0xC1	; 193
     27a:	85 6e       	ori	r24, 0xE5	; 229
     27c:	70 6a       	ori	r23, 0xA0	; 160
     27e:	64 5e       	subi	r22, 0xE4	; 228
     280:	6d 6b       	ori	r22, 0xBD	; 189
     282:	60 4e       	sbci	r22, 0xE0	; 224
     284:	58 6d       	ori	r21, 0xD8	; 216
     286:	59 47       	sbci	r21, 0x79	; 121
     288:	69 75       	andi	r22, 0x59	; 89
     28a:	50 54       	subi	r21, 0x40	; 64
     28c:	60 60       	ori	r22, 0x00	; 0
     28e:	55 5a       	subi	r21, 0xA5	; 165
     290:	53 54       	subi	r21, 0x43	; 67
     292:	54 5d       	subi	r21, 0xD4	; 212
     294:	50 4c       	sbci	r21, 0xC0	; 192
     296:	59 5a       	subi	r21, 0xA9	; 169
     298:	59 66       	ori	r21, 0x69	; 105
     29a:	67 71       	andi	r22, 0x17	; 23
     29c:	76 59       	subi	r23, 0x96	; 150
     29e:	81 80       	ldd	r8, Z+1	; 0x01
     2a0:	8b 8c       	ldd	r8, Y+27	; 0x1b
     2a2:	99 ba       	out	0x19, r9	; 25
     2a4:	9a 8f       	std	Y+26, r25	; 0x1a
     2a6:	b1 ab       	std	Z+49, r27	; 0x31
     2a8:	aa 9d       	mul	r26, r10
     2aa:	9d b0       	in	r9, 0x0d	; 13
     2ac:	87 94       	ror	r8
     2ae:	8e 7d       	andi	r24, 0xDE	; 222
     2b0:	92 a5       	ldd	r25, Z+42	; 0x2a
     2b2:	90 87       	std	Z+8, r25	; 0x08
     2b4:	7d 86       	std	Y+13, r7	; 0x0d
     2b6:	9a 82       	std	Y+2, r9	; 0x02
     2b8:	90 96       	adiw	r26, 0x20	; 32
     2ba:	b9 a9       	ldd	r27, Y+49	; 0x31
     2bc:	7b a9       	ldd	r23, Y+51	; 0x33
     2be:	a3 9b       	sbis	0x14, 3	; 20
     2c0:	9e 83       	std	Y+6, r25	; 0x06
     2c2:	a0 84       	ldd	r10, Z+8	; 0x08
     2c4:	79 83       	std	Y+1, r23	; 0x01
     2c6:	67 7c       	andi	r22, 0xC7	; 199
     2c8:	84 75       	andi	r24, 0x54	; 84
     2ca:	68 76       	andi	r22, 0x68	; 104
     2cc:	86 6e       	ori	r24, 0xE6	; 230
     2ce:	54 78       	andi	r21, 0x84	; 132
     2d0:	89 6a       	ori	r24, 0xA9	; 169
     2d2:	52 6a       	ori	r21, 0xA2	; 162
     2d4:	74 84       	ldd	r7, Z+12	; 0x0c
     2d6:	73 5b       	subi	r23, 0xB3	; 179
     2d8:	77 6f       	ori	r23, 0xF7	; 247
     2da:	6e 52       	subi	r22, 0x2E	; 46
     2dc:	71 6f       	ori	r23, 0xF1	; 241
     2de:	57 77       	andi	r21, 0x77	; 119
     2e0:	60 5b       	subi	r22, 0xB0	; 176
     2e2:	66 5f       	subi	r22, 0xF6	; 246
     2e4:	5a 56       	subi	r21, 0x6A	; 106
     2e6:	74 74       	andi	r23, 0x44	; 68
     2e8:	4f 52       	subi	r20, 0x2F	; 47
     2ea:	71 71       	andi	r23, 0x11	; 17
     2ec:	61 6b       	ori	r22, 0xB1	; 177
     2ee:	7b 79       	andi	r23, 0x9B	; 155
     2f0:	7b 89       	ldd	r23, Y+19	; 0x13
     2f2:	79 7c       	andi	r23, 0xC9	; 201
     2f4:	aa 9c       	mul	r10, r10
     2f6:	92 98       	cbi	0x12, 2	; 18
     2f8:	8a b2       	in	r8, 0x1a	; 26
     2fa:	9d 86       	std	Y+13, r9	; 0x0d
     2fc:	95 97       	sbiw	r26, 0x25	; 37
     2fe:	b1 84       	ldd	r11, Z+9	; 0x09
     300:	8e a7       	std	Y+46, r24	; 0x2e
     302:	96 95       	lsr	r25
     304:	99 a8       	ldd	r9, Y+49	; 0x31
     306:	95 8d       	ldd	r25, Z+29	; 0x1d
     308:	97 8d       	ldd	r25, Z+31	; 0x1f
     30a:	98 99       	sbic	0x13, 0	; 19
     30c:	b4 97       	sbiw	r30, 0x24	; 36
     30e:	86 b6       	in	r8, 0x36	; 54
     310:	a2 9b       	sbis	0x14, 2	; 20
     312:	89 90       	ld	r8, Y+
     314:	a2 8b       	std	Z+18, r26	; 0x12
     316:	75 72       	andi	r23, 0x25	; 37
     318:	6f 89       	ldd	r22, Y+23	; 0x17
     31a:	69 6f       	ori	r22, 0xF9	; 249
     31c:	74 59       	subi	r23, 0x94	; 148
     31e:	70 68       	ori	r23, 0x80	; 128
     320:	6f 4d       	sbci	r22, 0xDF	; 223
     322:	54 6a       	ori	r21, 0xA4	; 164
     324:	69 59       	subi	r22, 0x99	; 153
     326:	69 81       	ldd	r22, Y+1	; 0x01
     328:	6d 66       	ori	r22, 0x6D	; 109
     32a:	6c 80       	ldd	r6, Y+4	; 0x04
     32c:	85 69       	ori	r24, 0x95	; 149
     32e:	66 90       	elpm	r6, Z
     330:	71 65       	ori	r23, 0x51	; 81
     332:	6b 5d       	subi	r22, 0xDB	; 219
     334:	81 76       	andi	r24, 0x61	; 97
     336:	77 78       	andi	r23, 0x87	; 135
     338:	5a 72       	andi	r21, 0x2A	; 42
     33a:	72 61       	ori	r23, 0x12	; 18
     33c:	5e 56       	subi	r21, 0x6E	; 110
     33e:	89 7c       	andi	r24, 0xC9	; 201
     340:	59 79       	andi	r21, 0x99	; 153
     342:	83 90       	.word	0x9083	; ????
     344:	82 82       	std	Z+2, r8	; 0x02
     346:	80 98       	cbi	0x10, 0	; 16
     348:	83 8d       	ldd	r24, Z+27	; 0x1b
     34a:	a4 98       	cbi	0x14, 4	; 20
     34c:	85 80       	ldd	r8, Z+5	; 0x05
     34e:	81 7f       	andi	r24, 0xF1	; 241
     350:	97 8e       	std	Z+31, r9	; 0x1f
     352:	77 5f       	subi	r23, 0xF7	; 247
     354:	8c a8       	ldd	r8, Y+52	; 0x34
     356:	89 73       	andi	r24, 0x39	; 57
     358:	89 a6       	std	Y+41, r8	; 0x29
     35a:	b0 8d       	ldd	r27, Z+24	; 0x18
     35c:	9b a4       	ldd	r9, Y+43	; 0x2b
     35e:	94 a6       	std	Z+44, r9	; 0x2c
     360:	8e 8c       	ldd	r8, Y+30	; 0x1e
     362:	9b a5       	ldd	r25, Y+43	; 0x2b
     364:	ac 91       	ld	r26, X
     366:	94 aa       	std	Z+52, r9	; 0x34
     368:	99 88       	ldd	r9, Y+17	; 0x11
     36a:	73 8a       	std	Z+19, r7	; 0x13
     36c:	96 7c       	andi	r25, 0xC6	; 198
     36e:	66 77       	andi	r22, 0x76	; 118
     370:	96 72       	andi	r25, 0x26	; 38
     372:	57 60       	ori	r21, 0x07	; 7
     374:	7c 87       	std	Y+12, r23	; 0x0c
     376:	5e 5a       	subi	r21, 0xAE	; 174
     378:	7a 6c       	ori	r23, 0xCA	; 202
     37a:	75 80       	ldd	r7, Z+5	; 0x05
     37c:	6b 7a       	andi	r22, 0xAB	; 171
     37e:	8d 9f       	mul	r24, r29
     380:	85 6b       	ori	r24, 0xB5	; 181
     382:	8b 86       	std	Y+11, r8	; 0x0b
     384:	65 4b       	sbci	r22, 0xB5	; 181
     386:	6a 83       	std	Y+2, r22	; 0x02
     388:	6a 50       	subi	r22, 0x0A	; 10
     38a:	54 86       	std	Z+12, r5	; 0x0c
     38c:	88 70       	andi	r24, 0x08	; 8
     38e:	5f 73       	andi	r21, 0x3F	; 63
     390:	85 6c       	ori	r24, 0xC5	; 197
     392:	6a 71       	andi	r22, 0x1A	; 26
     394:	77 6b       	ori	r23, 0xB7	; 183
     396:	7a 6f       	ori	r23, 0xFA	; 250
     398:	62 81       	ldd	r22, Z+2	; 0x02
     39a:	7a 93       	st	-Y, r23
     39c:	68 60       	ori	r22, 0x08	; 8
     39e:	8d 79       	andi	r24, 0x9D	; 157
     3a0:	67 5c       	subi	r22, 0xC7	; 199
     3a2:	86 91       	elpm	r24, Z
     3a4:	67 66       	ori	r22, 0x67	; 103
     3a6:	7a 95       	dec	r23
     3a8:	8d 74       	andi	r24, 0x4D	; 77
     3aa:	77 82       	std	Z+7, r7	; 0x07
     3ac:	82 77       	andi	r24, 0x72	; 114
     3ae:	78 70       	andi	r23, 0x08	; 8
     3b0:	6f 87       	std	Y+15, r22	; 0x0f
     3b2:	87 8f       	std	Z+31, r24	; 0x1f
     3b4:	8a 7f       	andi	r24, 0xFA	; 250
     3b6:	9c ae       	std	Y+60, r9	; 0x3c
     3b8:	98 8f       	std	Y+24, r25	; 0x18
     3ba:	91 91       	ld	r25, Z+
     3bc:	8a 7c       	andi	r24, 0xCA	; 202
     3be:	a6 a2       	std	Z+38, r10	; 0x26
     3c0:	83 9e       	mul	r8, r19
     3c2:	a2 ab       	std	Z+50, r26	; 0x32
     3c4:	a5 9b       	sbis	0x14, 5	; 20
     3c6:	ac 82       	std	Y+4, r10	; 0x04
     3c8:	7c 73       	andi	r23, 0x3C	; 60
     3ca:	8a 7a       	andi	r24, 0xAA	; 170
     3cc:	6b 97       	sbiw	r28, 0x1b	; 27
     3ce:	8f a0       	ldd	r8, Y+39	; 0x27
     3d0:	87 86       	std	Z+15, r8	; 0x0f
     3d2:	9b 94       	des	9
     3d4:	9b 7a       	andi	r25, 0xAB	; 171
     3d6:	71 80       	ldd	r7, Z+1	; 0x01
     3d8:	75 75       	andi	r23, 0x55	; 85
     3da:	70 80       	ld	r7, Z
     3dc:	7f 83       	std	Y+7, r23	; 0x07
     3de:	82 7e       	andi	r24, 0xE2	; 226
     3e0:	76 7e       	andi	r23, 0xE6	; 230
     3e2:	7b 5c       	subi	r23, 0xCB	; 203
     3e4:	65 6c       	ori	r22, 0xC5	; 197
     3e6:	7b 6f       	ori	r23, 0xFB	; 251
     3e8:	70 91 82 91 	lds	r23, 0x9182
     3ec:	80 6f       	ori	r24, 0xF0	; 240
     3ee:	75 67       	ori	r23, 0x75	; 117
     3f0:	8a 63       	ori	r24, 0x3A	; 58
     3f2:	4f 6c       	ori	r20, 0xCF	; 207
     3f4:	85 94       	asr	r8
     3f6:	61 77       	andi	r22, 0x71	; 113
     3f8:	8f 8e       	std	Y+31, r8	; 0x1f
     3fa:	8a 5b       	subi	r24, 0xBA	; 186
     3fc:	73 76       	andi	r23, 0x63	; 99
     3fe:	60 5b       	subi	r22, 0xB0	; 176
     400:	50 6d       	ori	r21, 0xD0	; 208
     402:	51 53       	subi	r21, 0x31	; 49
     404:	6a 5e       	subi	r22, 0xEA	; 234
     406:	69 6a       	ori	r22, 0xA9	; 169
     408:	74 8d       	ldd	r23, Z+28	; 0x1c
     40a:	5b 70       	andi	r21, 0x0B	; 11
     40c:	a1 87       	std	Z+9, r26	; 0x09
     40e:	79 76       	andi	r23, 0x69	; 105
     410:	9e a5       	ldd	r25, Y+46	; 0x2e
     412:	62 71       	andi	r22, 0x12	; 18
     414:	98 95       	break
     416:	8a 62       	ori	r24, 0x2A	; 42
     418:	8b 82       	std	Y+3, r8	; 0x03
     41a:	82 8a       	std	Z+18, r8	; 0x12
     41c:	6f 89       	ldd	r22, Y+23	; 0x17
     41e:	76 8e       	std	Z+30, r7	; 0x1e
     420:	95 70       	andi	r25, 0x05	; 5
     422:	8d 90       	ld	r8, X+
     424:	aa 9f       	mul	r26, r26
     426:	6b 85       	ldd	r22, Y+11	; 0x0b
     428:	99 93       	st	Y+, r25
     42a:	6b 61       	ori	r22, 0x1B	; 27
     42c:	9c a5       	ldd	r25, Y+44	; 0x2c
     42e:	81 82       	std	Z+1, r8	; 0x01
     430:	9c b6       	in	r9, 0x3c	; 60
     432:	9f a1       	ldd	r25, Y+39	; 0x27
     434:	a8 95       	wdr
     436:	9a 86       	std	Y+10, r9	; 0x0a
     438:	8a 82       	std	Y+2, r8	; 0x02
     43a:	7a a6       	std	Y+42, r7	; 0x2a
     43c:	9d 7b       	andi	r25, 0xBD	; 189
     43e:	7c 94 aa 96 	jmp	0x1d2d54	; 0x1d2d54 <__data_load_end+0x1c052a>
     442:	76 73       	andi	r23, 0x36	; 54
     444:	7c 86       	std	Y+12, r7	; 0x0c
     446:	75 6c       	ori	r23, 0xC5	; 197
     448:	8b 93       	.word	0x938b	; ????
     44a:	8c 6f       	ori	r24, 0xFC	; 252
     44c:	83 99       	sbic	0x10, 3	; 16
     44e:	86 7a       	andi	r24, 0xA6	; 166
     450:	58 6a       	ori	r21, 0xA8	; 168
     452:	68 70       	andi	r22, 0x08	; 8
     454:	70 4b       	sbci	r23, 0xB0	; 176
     456:	6a 89       	ldd	r22, Y+18	; 0x12
     458:	70 6c       	ori	r23, 0xC0	; 192
     45a:	52 7e       	andi	r21, 0xE2	; 226
     45c:	91 63       	ori	r25, 0x31	; 49
     45e:	79 63       	ori	r23, 0x39	; 57
     460:	6d 85       	ldd	r22, Y+13	; 0x0d
     462:	75 6f       	ori	r23, 0xF5	; 245
     464:	67 80       	ldd	r6, Z+7	; 0x07
     466:	7e 6b       	ori	r23, 0xBE	; 190
     468:	75 6c       	ori	r23, 0xC5	; 197
     46a:	79 83       	std	Y+1, r23	; 0x01
     46c:	6e 79       	andi	r22, 0x9E	; 158
     46e:	7b 89       	ldd	r23, Y+19	; 0x13
     470:	92 5b       	subi	r25, 0xB2	; 178
     472:	71 8a       	std	Z+17, r7	; 0x11
     474:	7f 7c       	andi	r23, 0xCF	; 207
     476:	5c 7d       	andi	r21, 0xDC	; 220
     478:	8b 64       	ori	r24, 0x4B	; 75
     47a:	63 65       	ori	r22, 0x53	; 83
     47c:	63 70       	andi	r22, 0x03	; 3
     47e:	6d 79       	andi	r22, 0x9D	; 157
     480:	65 79       	andi	r22, 0x95	; 149
     482:	95 97       	sbiw	r26, 0x25	; 37
     484:	92 96       	adiw	r26, 0x22	; 34
     486:	ac 9b       	sbis	0x15, 4	; 21
     488:	82 8c       	ldd	r8, Z+26	; 0x1a
     48a:	8f 86       	std	Y+15, r8	; 0x0f
     48c:	86 66       	ori	r24, 0x66	; 102
     48e:	70 8f       	std	Z+24, r23	; 0x18
     490:	91 7f       	andi	r25, 0xF1	; 241
     492:	75 7d       	andi	r23, 0xD5	; 213
     494:	91 86       	std	Z+9, r9	; 0x09
     496:	7f 80       	ldd	r7, Y+7	; 0x07
     498:	6f 6f       	ori	r22, 0xFF	; 255
     49a:	8e a3       	std	Y+38, r24	; 0x26
     49c:	92 7c       	andi	r25, 0xC2	; 194
     49e:	9e aa       	std	Y+54, r9	; 0x36
     4a0:	8d 95 8b 95 	jmp	0x632b16	; 0x632b16 <__data_load_end+0x6202ec>
     4a4:	8e 7f       	andi	r24, 0xFE	; 254
     4a6:	80 89       	ldd	r24, Z+16	; 0x10
     4a8:	8f 86       	std	Y+15, r8	; 0x0f
     4aa:	86 87       	std	Z+14, r24	; 0x0e
     4ac:	94 8a       	std	Z+20, r9	; 0x14
     4ae:	85 80       	ldd	r8, Z+5	; 0x05
     4b0:	79 73       	andi	r23, 0x39	; 57
     4b2:	78 89       	ldd	r23, Y+16	; 0x10
     4b4:	71 73       	andi	r23, 0x31	; 49
     4b6:	8c 9b       	sbis	0x11, 4	; 17
     4b8:	87 65       	ori	r24, 0x57	; 87
     4ba:	85 96       	adiw	r24, 0x25	; 37
     4bc:	78 79       	andi	r23, 0x98	; 152
     4be:	7d 81       	ldd	r23, Y+5	; 0x05
     4c0:	93 80       	ldd	r9, Z+3	; 0x03
     4c2:	84 7c       	andi	r24, 0xC4	; 196
     4c4:	82 85       	ldd	r24, Z+10	; 0x0a
     4c6:	7e 7c       	andi	r23, 0xCE	; 206
     4c8:	80 6c       	ori	r24, 0xC0	; 192
     4ca:	82 79       	andi	r24, 0x92	; 146
     4cc:	59 72       	andi	r21, 0x29	; 41
     4ce:	76 75       	andi	r23, 0x56	; 86
     4d0:	65 4a       	sbci	r22, 0xA5	; 165
     4d2:	70 97       	sbiw	r30, 0x10	; 16
     4d4:	6b 5a       	subi	r22, 0xAB	; 171
     4d6:	78 9c       	mul	r7, r8
     4d8:	a0 88       	ldd	r10, Z+16	; 0x10
     4da:	88 8e       	std	Y+24, r8	; 0x18
     4dc:	93 85       	ldd	r25, Z+11	; 0x0b
     4de:	6d 60       	ori	r22, 0x0D	; 13
     4e0:	53 6c       	ori	r21, 0xC3	; 195
     4e2:	6d 54       	subi	r22, 0x4D	; 77
     4e4:	64 65       	ori	r22, 0x54	; 84
     4e6:	7e 85       	ldd	r23, Y+14	; 0x0e
     4e8:	5d 67       	ori	r21, 0x7D	; 125
     4ea:	8f 89       	ldd	r24, Y+23	; 0x17
     4ec:	7b 5c       	subi	r23, 0xCB	; 203
     4ee:	6e a7       	std	Y+46, r22	; 0x2e
     4f0:	8a 75       	andi	r24, 0x5A	; 90
     4f2:	85 9d       	mul	r24, r5
     4f4:	a9 82       	std	Y+1, r10	; 0x01
     4f6:	73 7d       	andi	r23, 0xD3	; 211
     4f8:	81 82       	std	Z+1, r8	; 0x01
     4fa:	6e 67       	ori	r22, 0x7E	; 126
     4fc:	69 8c       	ldd	r6, Y+25	; 0x19
     4fe:	9d 95 86 8b 	jmp	0x67170c	; 0x67170c <__data_load_end+0x65eee2>
     502:	b0 a3       	std	Z+32, r27	; 0x20
     504:	68 62       	ori	r22, 0x28	; 40
     506:	83 81       	ldd	r24, Z+3	; 0x03
     508:	65 4e       	sbci	r22, 0xE5	; 229
     50a:	66 89       	ldd	r22, Z+22	; 0x16
     50c:	87 65       	ori	r24, 0x57	; 87
     50e:	67 94       	ror	r6
     510:	ac 91       	ld	r26, X
     512:	73 77       	andi	r23, 0x73	; 115
     514:	96 9b       	sbis	0x12, 6	; 18
     516:	91 86       	std	Z+9, r9	; 0x09
     518:	72 9b       	sbis	0x0e, 2	; 14
     51a:	b0 8c       	ldd	r11, Z+24	; 0x18
     51c:	79 76       	andi	r23, 0x69	; 105
     51e:	ad af       	std	Y+61, r26	; 0x3d
     520:	78 6b       	ori	r23, 0xB8	; 184
     522:	85 a5       	ldd	r24, Z+45	; 0x2d
     524:	7d 55       	subi	r23, 0x5D	; 93
     526:	68 92       	.word	0x9268	; ????
     528:	8a 67       	ori	r24, 0x7A	; 122
     52a:	6c 92       	st	X, r6
     52c:	a2 99       	sbic	0x14, 2	; 20
     52e:	8b 81       	ldd	r24, Y+3	; 0x03
     530:	8a 99       	sbic	0x11, 2	; 17
     532:	93 78       	andi	r25, 0x83	; 131
     534:	5f 79       	andi	r21, 0x9F	; 159
     536:	8d 85       	ldd	r24, Y+13	; 0x0d
     538:	67 6d       	ori	r22, 0xD7	; 215
     53a:	b1 9a       	sbi	0x16, 1	; 22
     53c:	69 5b       	subi	r22, 0xB9	; 185
     53e:	77 85       	ldd	r23, Z+15	; 0x0f
     540:	52 41       	sbci	r21, 0x12	; 18
     542:	4f 73       	andi	r20, 0x3F	; 63
     544:	82 66       	ori	r24, 0x62	; 98
     546:	77 94       	ror	r7
     548:	ab ab       	std	Y+51, r26	; 0x33
     54a:	89 80       	ldd	r8, Y+1	; 0x01
     54c:	86 78       	andi	r24, 0x86	; 134
     54e:	70 59       	subi	r23, 0x90	; 144
     550:	4e 74       	andi	r20, 0x4E	; 78
     552:	80 8a       	std	Z+16, r8	; 0x10
     554:	70 6c       	ori	r23, 0xC0	; 192
     556:	9c a1       	ldd	r25, Y+36	; 0x24
     558:	75 60       	ori	r23, 0x05	; 5
     55a:	83 84       	ldd	r8, Z+11	; 0x0b
     55c:	6b 58       	subi	r22, 0x8B	; 139
     55e:	6d 92       	st	X+, r6
     560:	81 6a       	ori	r24, 0xA1	; 161
     562:	80 92 9c 9a 	sts	0x9A9C, r8
     566:	7a 74       	andi	r23, 0x4A	; 74
     568:	82 87       	std	Z+10, r24	; 0x0a
     56a:	82 72       	andi	r24, 0x22	; 34
     56c:	6a 88       	ldd	r6, Y+18	; 0x12
     56e:	98 88       	ldd	r9, Y+16	; 0x10
     570:	6a 76       	andi	r22, 0x6A	; 106
     572:	91 74       	andi	r25, 0x41	; 65
     574:	4f 5d       	subi	r20, 0xDF	; 223
     576:	70 72       	andi	r23, 0x20	; 32
     578:	6c 61       	ori	r22, 0x1C	; 28
     57a:	7c 71       	andi	r23, 0x1C	; 28
     57c:	57 59       	subi	r21, 0x97	; 151
     57e:	70 87       	std	Z+8, r23	; 0x08
     580:	88 9d       	mul	r24, r8
     582:	a7 ac       	ldd	r10, Z+63	; 0x3f
     584:	b9 a6       	std	Y+41, r11	; 0x29
     586:	98 87       	std	Y+8, r25	; 0x08
     588:	81 96       	adiw	r24, 0x21	; 33
     58a:	8a 89       	ldd	r24, Y+18	; 0x12
     58c:	7b 8a       	std	Y+19, r7	; 0x13
     58e:	a3 99       	sbic	0x14, 3	; 20
     590:	99 8d       	ldd	r25, Y+25	; 0x19
     592:	83 76       	andi	r24, 0x63	; 99
     594:	66 6e       	ori	r22, 0xE6	; 230
     596:	85 6b       	ori	r24, 0xB5	; 181
     598:	4b 71       	andi	r20, 0x1B	; 27
     59a:	9b 9c       	mul	r9, r11
     59c:	9d a9       	ldd	r25, Y+53	; 0x35
     59e:	a9 a5       	ldd	r26, Y+41	; 0x29
     5a0:	8d 83       	std	Y+5, r24	; 0x05
     5a2:	95 7d       	andi	r25, 0xD5	; 213
     5a4:	77 6e       	ori	r23, 0xE7	; 231
     5a6:	75 7b       	andi	r23, 0xB5	; 181
     5a8:	67 72       	andi	r22, 0x27	; 39
     5aa:	74 78       	andi	r23, 0x84	; 132
     5ac:	72 70       	andi	r23, 0x02	; 2
     5ae:	83 60       	ori	r24, 0x03	; 3
     5b0:	60 8d       	ldd	r22, Z+24	; 0x18
     5b2:	7f 65       	ori	r23, 0x5F	; 95
     5b4:	55 7a       	andi	r21, 0xA5	; 165
     5b6:	8d 74       	andi	r24, 0x4D	; 77
     5b8:	7e 78       	andi	r23, 0x8E	; 142
     5ba:	8d 7f       	andi	r24, 0xFD	; 253
     5bc:	5e 6e       	ori	r21, 0xEE	; 238
     5be:	67 5a       	subi	r22, 0xA7	; 167
     5c0:	5f 69       	ori	r21, 0x9F	; 159
     5c2:	6f 64       	ori	r22, 0x4F	; 79
     5c4:	71 82       	std	Z+1, r7	; 0x01
     5c6:	75 7d       	andi	r23, 0xD5	; 213
     5c8:	89 9f       	mul	r24, r25
     5ca:	93 7c       	andi	r25, 0xC3	; 195
     5cc:	a9 b7       	in	r26, 0x39	; 57
     5ce:	99 6f       	ori	r25, 0xF9	; 249
     5d0:	85 b3       	in	r24, 0x15	; 21
     5d2:	99 97       	sbiw	r26, 0x29	; 41
     5d4:	95 96       	adiw	r26, 0x25	; 37
     5d6:	a2 87       	std	Z+10, r26	; 0x0a
     5d8:	97 90       	elpm	r9, Z+
     5da:	80 8f       	std	Z+24, r24	; 0x18
     5dc:	93 87       	std	Z+11, r25	; 0x0b
     5de:	66 70       	andi	r22, 0x06	; 6
     5e0:	7e 6d       	ori	r23, 0xDE	; 222
     5e2:	67 64       	ori	r22, 0x47	; 71
     5e4:	91 8e       	std	Z+25, r9	; 0x19
     5e6:	69 80       	ldd	r6, Y+1	; 0x01
     5e8:	7b 7c       	andi	r23, 0xCB	; 203
     5ea:	56 6c       	ori	r21, 0xC6	; 198
     5ec:	a0 87       	std	Z+8, r26	; 0x08
     5ee:	88 7c       	andi	r24, 0xC8	; 200
     5f0:	7a 90       	ld	r7, -Y
     5f2:	73 8e       	std	Z+27, r7	; 0x1b
     5f4:	82 65       	ori	r24, 0x52	; 82
     5f6:	7f 79       	andi	r23, 0x9F	; 159
     5f8:	78 59       	subi	r23, 0x98	; 152
     5fa:	62 83       	std	Z+2, r22	; 0x02
     5fc:	78 65       	ori	r23, 0x58	; 88
     5fe:	6b 77       	andi	r22, 0x7B	; 123
     600:	79 62       	ori	r23, 0x29	; 41
     602:	80 83       	st	Z, r24
     604:	61 62       	ori	r22, 0x21	; 33
     606:	6b 94       	des	6
     608:	79 73       	andi	r23, 0x39	; 57
     60a:	88 84       	ldd	r8, Y+8	; 0x08
     60c:	8f 87       	std	Y+15, r24	; 0x0f
     60e:	91 99       	sbic	0x12, 1	; 18
     610:	73 92       	.word	0x9273	; ????
     612:	99 82       	std	Y+1, r9	; 0x01
     614:	6f 74       	andi	r22, 0x4F	; 79
     616:	98 80       	ld	r9, Y
     618:	6a 7c       	andi	r22, 0xCA	; 202
     61a:	7d 73       	andi	r23, 0x3D	; 61
     61c:	6a 8d       	ldd	r22, Y+26	; 0x1a
     61e:	a2 67       	ori	r26, 0x72	; 114
     620:	70 af       	std	Z+56, r23	; 0x38
     622:	b3 93       	.word	0x93b3	; ????
     624:	80 8a       	std	Z+16, r8	; 0x10
     626:	8b 66       	ori	r24, 0x6B	; 107
     628:	52 62       	ori	r21, 0x22	; 34
     62a:	64 5d       	subi	r22, 0xD4	; 212
     62c:	73 83       	std	Z+3, r23	; 0x03
     62e:	70 54       	subi	r23, 0x40	; 64
     630:	6f 8e       	std	Y+31, r6	; 0x1f
     632:	6d 53       	subi	r22, 0x3D	; 61
     634:	7b 81       	ldd	r23, Y+3	; 0x03
     636:	6b 73       	andi	r22, 0x3B	; 59
     638:	8f b3       	in	r24, 0x1f	; 31
     63a:	7f 7d       	andi	r23, 0xDF	; 223
     63c:	cb c5       	rjmp	.+2966   	; 0x11d4 <__trampolines_end+0x103e>
     63e:	a7 9d       	mul	r26, r7
     640:	b0 c1       	rjmp	.+864    	; 0x9a2 <__trampolines_end+0x80c>
     642:	9b 8c       	ldd	r9, Y+27	; 0x1b
     644:	92 87       	std	Z+10, r25	; 0x0a
     646:	93 97       	sbiw	r26, 0x23	; 35
     648:	98 70       	andi	r25, 0x08	; 8
     64a:	57 8f       	std	Z+31, r21	; 0x1f
     64c:	a0 7e       	andi	r26, 0xE0	; 224
     64e:	77 8e       	std	Z+31, r7	; 0x1f
     650:	9c 78       	andi	r25, 0x8C	; 140
     652:	69 8c       	ldd	r6, Y+25	; 0x19
     654:	81 73       	andi	r24, 0x31	; 49
     656:	80 a5       	ldd	r24, Z+40	; 0x28
     658:	a5 84       	ldd	r10, Z+13	; 0x0d
     65a:	86 90       	elpm	r8, Z
     65c:	85 74       	andi	r24, 0x45	; 69
     65e:	85 83       	std	Z+5, r24	; 0x05
     660:	62 76       	andi	r22, 0x62	; 98
     662:	7f 83       	std	Y+7, r23	; 0x07
     664:	5a 53       	subi	r21, 0x3A	; 58
     666:	a1 98       	cbi	0x14, 1	; 20
     668:	6f 65       	ori	r22, 0x5F	; 95
     66a:	63 75       	andi	r22, 0x53	; 83
     66c:	5c 5e       	subi	r21, 0xEC	; 236
     66e:	65 3d       	cpi	r22, 0xD5	; 213
     670:	4d 6d       	ori	r20, 0xDD	; 221
     672:	80 6f       	ori	r24, 0xF0	; 240
     674:	6a 8d       	ldd	r22, Y+26	; 0x1a
     676:	92 72       	andi	r25, 0x22	; 34
     678:	6e 80       	ldd	r6, Y+6	; 0x06
     67a:	6b 61       	ori	r22, 0x1B	; 27
     67c:	7a 8b       	std	Y+18, r23	; 0x12
     67e:	7e 5b       	subi	r23, 0xBE	; 190
     680:	74 a5       	ldd	r23, Z+44	; 0x2c
     682:	82 78       	andi	r24, 0x82	; 130
     684:	70 79       	andi	r23, 0x90	; 144
     686:	78 6a       	ori	r23, 0xA8	; 168
     688:	89 72       	andi	r24, 0x29	; 41
     68a:	58 74       	andi	r21, 0x48	; 72
     68c:	93 90       	.word	0x9093	; ????
     68e:	6c 75       	andi	r22, 0x5C	; 92
     690:	96 88       	ldd	r9, Z+22	; 0x16
     692:	6f 7d       	andi	r22, 0xDF	; 223
     694:	94 75       	andi	r25, 0x54	; 84
     696:	7c 99       	sbic	0x0f, 4	; 15
     698:	99 62       	ori	r25, 0x29	; 41
     69a:	47 83       	std	Z+7, r20	; 0x07
     69c:	8d 6e       	ori	r24, 0xED	; 237
     69e:	62 6a       	ori	r22, 0xA2	; 162
     6a0:	77 6a       	ori	r23, 0xA7	; 167
     6a2:	76 86       	std	Z+14, r7	; 0x0e
     6a4:	64 60       	ori	r22, 0x04	; 4
     6a6:	81 9e       	mul	r8, r17
     6a8:	8c 72       	andi	r24, 0x2C	; 44
     6aa:	93 ae       	std	Z+59, r9	; 0x3b
     6ac:	9d 92       	st	X+, r9
     6ae:	ad a9       	ldd	r26, Y+53	; 0x35
     6b0:	8a 99       	sbic	0x11, 2	; 17
     6b2:	be b4       	in	r11, 0x2e	; 46
     6b4:	7a 7e       	andi	r23, 0xEA	; 234
     6b6:	af a9       	ldd	r26, Y+55	; 0x37
     6b8:	84 7b       	andi	r24, 0xB4	; 180
     6ba:	8d 92       	st	X+, r8
     6bc:	81 92       	st	Z+, r8
     6be:	8f 70       	andi	r24, 0x0F	; 15
     6c0:	87 a9       	ldd	r24, Z+55	; 0x37
     6c2:	b1 81       	ldd	r27, Z+1	; 0x01
     6c4:	7b a1       	ldd	r23, Y+35	; 0x23
     6c6:	a0 83       	st	Z, r26
     6c8:	84 95       	.word	0x9584	; ????
     6ca:	7f 77       	andi	r23, 0x7F	; 127
     6cc:	88 a3       	std	Y+32, r24	; 0x20
     6ce:	75 53       	subi	r23, 0x35	; 53
     6d0:	8a a4       	ldd	r8, Y+42	; 0x2a
     6d2:	91 74       	andi	r25, 0x41	; 65
     6d4:	6a 77       	andi	r22, 0x7A	; 122
     6d6:	6b 71       	andi	r22, 0x1B	; 27
     6d8:	82 5b       	subi	r24, 0xB2	; 178
     6da:	4e 6c       	ori	r20, 0xCE	; 206
     6dc:	93 80       	ldd	r9, Z+3	; 0x03
     6de:	58 6e       	ori	r21, 0xE8	; 232
     6e0:	8d 82       	std	Y+5, r8	; 0x05
     6e2:	69 71       	andi	r22, 0x19	; 25
     6e4:	78 62       	ori	r23, 0x28	; 40
     6e6:	65 89       	ldd	r22, Z+21	; 0x15
     6e8:	85 4f       	sbci	r24, 0xF5	; 245
     6ea:	54 83       	std	Z+4, r21	; 0x04
     6ec:	90 6a       	ori	r25, 0xA0	; 160
     6ee:	64 74       	andi	r22, 0x44	; 68
     6f0:	75 6f       	ori	r23, 0xF5	; 245
     6f2:	84 87       	std	Z+12, r24	; 0x0c
     6f4:	63 73       	andi	r22, 0x33	; 51
     6f6:	96 a4       	ldd	r9, Z+46	; 0x2e
     6f8:	78 58       	subi	r23, 0x88	; 136
     6fa:	85 96       	adiw	r24, 0x25	; 37
     6fc:	7d 71       	andi	r23, 0x1D	; 29
     6fe:	6b 6f       	ori	r22, 0xFB	; 251
     700:	68 74       	andi	r22, 0x48	; 72
     702:	8d 6a       	ori	r24, 0xAD	; 173
     704:	4f 70       	andi	r20, 0x0F	; 15
     706:	9b 91       	.word	0x919b	; ????
     708:	72 76       	andi	r23, 0x62	; 98
     70a:	85 7b       	andi	r24, 0xB5	; 181
     70c:	7a 7d       	andi	r23, 0xDA	; 218
     70e:	6b 51       	subi	r22, 0x1B	; 27
     710:	70 98       	cbi	0x0e, 0	; 14
     712:	89 50       	subi	r24, 0x09	; 9
     714:	56 89       	ldd	r21, Z+22	; 0x16
     716:	89 7a       	andi	r24, 0xA9	; 169
     718:	77 78       	andi	r23, 0x87	; 135
     71a:	7d 86       	std	Y+13, r7	; 0x0d
     71c:	9f 93       	push	r25
     71e:	74 7a       	andi	r23, 0xA4	; 164
     720:	9e b2       	in	r9, 0x1e	; 30
     722:	88 84       	ldd	r8, Y+8	; 0x08
     724:	8d 95 9e a2 	jmp	0x63453c	; 0x63453c <__data_load_end+0x621d12>
     728:	99 77       	andi	r25, 0x79	; 121
     72a:	84 aa       	std	Z+52, r8	; 0x34
     72c:	bf 9a       	sbi	0x17, 7	; 23
     72e:	63 8c       	ldd	r6, Z+27	; 0x1b
     730:	a6 9a       	sbi	0x14, 6	; 20
     732:	93 7f       	andi	r25, 0xF3	; 243
     734:	8f 8e       	std	Y+31, r8	; 0x1f
     736:	a2 a3       	std	Z+34, r26	; 0x22
     738:	79 6b       	ori	r23, 0xB9	; 185
     73a:	81 a4       	ldd	r8, Z+41	; 0x29
     73c:	96 74       	andi	r25, 0x46	; 70
     73e:	70 79       	andi	r23, 0x90	; 144
     740:	7a 76       	andi	r23, 0x6A	; 106
     742:	82 6c       	ori	r24, 0xC2	; 194
     744:	5e 86       	std	Y+14, r5	; 0x0e
     746:	9c 93       	st	X, r25
     748:	63 60       	ori	r22, 0x03	; 3
     74a:	80 8a       	std	Z+16, r8	; 0x10
     74c:	78 6b       	ori	r23, 0xB8	; 184
     74e:	6c 75       	andi	r22, 0x5C	; 92
     750:	87 95       	ror	r24
     752:	85 69       	ori	r24, 0x95	; 149
     754:	5d 85       	ldd	r21, Y+13	; 0x0d
     756:	8f 71       	andi	r24, 0x1F	; 31
     758:	62 57       	subi	r22, 0x72	; 114
     75a:	77 74       	andi	r23, 0x47	; 71
     75c:	6e 6f       	ori	r22, 0xFE	; 254
     75e:	55 72       	andi	r21, 0x25	; 37
     760:	94 a9       	ldd	r25, Z+52	; 0x34
     762:	8b 57       	subi	r24, 0x7B	; 123
     764:	7b 9a       	sbi	0x0f, 3	; 15
     766:	95 79       	andi	r25, 0x95	; 149
     768:	69 72       	andi	r22, 0x29	; 41
     76a:	78 85       	ldd	r23, Y+8	; 0x08
     76c:	7f 71       	andi	r23, 0x1F	; 31
     76e:	5b 71       	andi	r21, 0x1B	; 27
     770:	8a 80       	ldd	r8, Y+2	; 0x02
     772:	6d 63       	ori	r22, 0x3D	; 61
     774:	77 8f       	std	Z+31, r23	; 0x1f
     776:	82 7c       	andi	r24, 0xC2	; 194
     778:	71 75       	andi	r23, 0x51	; 81
     77a:	92 ac       	ldd	r9, Z+58	; 0x3a
     77c:	a6 70       	andi	r26, 0x06	; 6
     77e:	63 73       	andi	r22, 0x33	; 51
     780:	87 75       	andi	r24, 0x57	; 87
     782:	55 59       	subi	r21, 0x95	; 149
     784:	6e 7d       	andi	r22, 0xDE	; 222
     786:	77 84       	ldd	r7, Z+15	; 0x0f
     788:	70 5e       	subi	r23, 0xE0	; 224
     78a:	91 9e       	mul	r9, r17
     78c:	8e 6e       	ori	r24, 0xEE	; 238
     78e:	6f 96       	adiw	r28, 0x1f	; 31
     790:	9b 84       	ldd	r9, Y+11	; 0x0b
     792:	70 74       	andi	r23, 0x40	; 64
     794:	80 9e       	mul	r8, r16
     796:	ac 89       	ldd	r26, Y+20	; 0x14
     798:	6e 84       	ldd	r6, Y+14	; 0x0e
     79a:	ab a6       	std	Y+43, r10	; 0x2b
     79c:	7d 75       	andi	r23, 0x5D	; 93
     79e:	83 9e       	mul	r8, r19
     7a0:	9f 97       	sbiw	r26, 0x2f	; 47
     7a2:	a3 7d       	andi	r26, 0xD3	; 211
     7a4:	87 a1       	ldd	r24, Z+39	; 0x27
     7a6:	a8 91       	.word	0x91a8	; ????
     7a8:	6f 90       	pop	r6
     7aa:	9e 8a       	std	Y+22, r9	; 0x16
     7ac:	6e 70       	andi	r22, 0x0E	; 14
     7ae:	7b 81       	ldd	r23, Y+3	; 0x03
     7b0:	9f 8c       	ldd	r9, Y+31	; 0x1f
     7b2:	70 5c       	subi	r23, 0xC0	; 192
     7b4:	78 9c       	mul	r7, r8
     7b6:	81 68       	ori	r24, 0x81	; 129
     7b8:	67 85       	ldd	r22, Z+15	; 0x0f
     7ba:	8b 7e       	andi	r24, 0xEB	; 235
     7bc:	88 75       	andi	r24, 0x58	; 88
     7be:	5f 6a       	ori	r21, 0xAF	; 175
     7c0:	86 7b       	andi	r24, 0xB6	; 182
     7c2:	4b 5c       	subi	r20, 0xCB	; 203
     7c4:	7a 88       	ldd	r7, Y+18	; 0x12
     7c6:	67 4c       	sbci	r22, 0xC7	; 199
     7c8:	6b 65       	ori	r22, 0x5B	; 91
     7ca:	87 91       	elpm	r24, Z+
     7cc:	80 77       	andi	r24, 0x70	; 112
     7ce:	69 9e       	mul	r6, r25
     7d0:	a3 89       	ldd	r26, Z+19	; 0x13
     7d2:	84 81       	ldd	r24, Z+4	; 0x04
     7d4:	9e 8d       	ldd	r25, Y+30	; 0x1e
     7d6:	83 8a       	std	Z+19, r8	; 0x13
     7d8:	72 62       	ori	r23, 0x22	; 34
     7da:	6d 81       	ldd	r22, Y+5	; 0x05
     7dc:	6a 4f       	sbci	r22, 0xFA	; 250
     7de:	65 82       	std	Z+5, r6	; 0x05
     7e0:	81 6a       	ori	r24, 0xA1	; 161
     7e2:	7e 85       	ldd	r23, Y+14	; 0x0e
     7e4:	7d 8e       	std	Y+29, r7	; 0x1d
     7e6:	8c 95 72 7a 	jmp	0x60f4e4	; 0x60f4e4 <__data_load_end+0x5fccba>
     7ea:	a7 98       	cbi	0x14, 7	; 20
     7ec:	7b 62       	ori	r23, 0x2B	; 43
     7ee:	7c 85       	ldd	r23, Y+12	; 0x0c
     7f0:	6e 71       	andi	r22, 0x1E	; 30
     7f2:	69 5c       	subi	r22, 0xC9	; 201
     7f4:	54 6a       	ori	r21, 0xA4	; 164
     7f6:	7c 5e       	subi	r23, 0xEC	; 236
     7f8:	60 80       	ld	r6, Z
     7fa:	8d 7b       	andi	r24, 0xBD	; 189
     7fc:	6e 84       	ldd	r6, Y+14	; 0x0e
     7fe:	8b 8d       	ldd	r24, Y+27	; 0x1b
     800:	91 91       	ld	r25, Z+
     802:	96 77       	andi	r25, 0x76	; 118
     804:	8c a7       	std	Y+44, r24	; 0x2c
     806:	96 83       	std	Z+6, r25	; 0x06
     808:	7b 9d       	mul	r23, r11
     80a:	98 86       	std	Y+8, r9	; 0x08
     80c:	98 91       	.word	0x9198	; ????
     80e:	84 7a       	andi	r24, 0xA4	; 164
     810:	8b 90       	.word	0x908b	; ????
     812:	76 77       	andi	r23, 0x76	; 118
     814:	92 92       	st	-Z, r9
     816:	76 72       	andi	r23, 0x26	; 38
     818:	94 98       	cbi	0x12, 4	; 18
     81a:	8b 85       	ldd	r24, Y+11	; 0x0b
     81c:	8e 88       	ldd	r8, Y+22	; 0x16
     81e:	74 84       	ldd	r7, Z+12	; 0x0c
     820:	91 84       	ldd	r9, Z+9	; 0x09
     822:	75 78       	andi	r23, 0x85	; 133
     824:	93 85       	ldd	r25, Z+11	; 0x0b
     826:	70 7e       	andi	r23, 0xE0	; 224
     828:	80 86       	std	Z+8, r8	; 0x08
     82a:	79 74       	andi	r23, 0x49	; 73
     82c:	78 6b       	ori	r23, 0xB8	; 184
     82e:	6f 8c       	ldd	r6, Y+31	; 0x1f
     830:	77 62       	ori	r23, 0x27	; 39
     832:	72 8b       	std	Z+18, r23	; 0x12
     834:	8d 73       	andi	r24, 0x3D	; 61
     836:	6c 84       	ldd	r6, Y+12	; 0x0c
     838:	91 71       	andi	r25, 0x11	; 17
     83a:	70 86       	std	Z+8, r7	; 0x08
     83c:	88 87       	std	Y+8, r24	; 0x08
     83e:	83 95       	inc	r24
     840:	8d 78       	andi	r24, 0x8D	; 141
     842:	7f 7d       	andi	r23, 0xDF	; 223
     844:	7f 68       	ori	r23, 0x8F	; 143
     846:	60 67       	ori	r22, 0x70	; 112
     848:	63 75       	andi	r22, 0x53	; 83
     84a:	7a 6b       	ori	r23, 0xBA	; 186
     84c:	63 6f       	ori	r22, 0xF3	; 243
     84e:	85 87       	std	Z+13, r24	; 0x0d
     850:	6c 5e       	subi	r22, 0xEC	; 236
     852:	84 a3       	std	Z+36, r24	; 0x24
     854:	97 78       	andi	r25, 0x87	; 135
     856:	7a 93       	st	-Y, r23
     858:	96 98       	cbi	0x12, 6	; 18
     85a:	86 86       	std	Z+14, r8	; 0x0e
     85c:	76 73       	andi	r23, 0x36	; 54
     85e:	81 6f       	ori	r24, 0xF1	; 241
     860:	73 70       	andi	r23, 0x03	; 3
     862:	64 7d       	andi	r22, 0xD4	; 212
     864:	75 79       	andi	r23, 0x95	; 149
     866:	6d 63       	ori	r22, 0x3D	; 61
     868:	78 74       	andi	r23, 0x48	; 72
     86a:	8c 75       	andi	r24, 0x5C	; 92
     86c:	69 76       	andi	r22, 0x69	; 105
     86e:	7f 99       	sbic	0x0f, 7	; 15
     870:	7e 83       	std	Y+6, r23	; 0x06
     872:	92 8d       	ldd	r25, Z+26	; 0x1a
     874:	9e 7c       	andi	r25, 0xCE	; 206
     876:	8e 99       	sbic	0x11, 6	; 17
     878:	7b 95       	.word	0x957b	; ????
     87a:	88 8b       	std	Y+16, r24	; 0x10
     87c:	6e 60       	ori	r22, 0x0E	; 14
     87e:	82 73       	andi	r24, 0x32	; 50
     880:	6b 63       	ori	r22, 0x3B	; 59
     882:	6d 83       	std	Y+5, r22	; 0x05
     884:	72 82       	std	Z+2, r7	; 0x02
     886:	8e 86       	std	Y+14, r8	; 0x0e
     888:	88 7f       	andi	r24, 0xF8	; 248
     88a:	97 a6       	std	Z+47, r9	; 0x2f
     88c:	93 96       	adiw	r26, 0x23	; 35
     88e:	a2 a2       	std	Z+34, r10	; 0x22
     890:	9d 95 a7 8f 	jmp	0x671f4e	; 0x671f4e <__data_load_end+0x65f724>
     894:	78 83       	st	Y, r23
     896:	81 71       	andi	r24, 0x11	; 17
     898:	48 51       	subi	r20, 0x18	; 24
     89a:	76 6c       	ori	r23, 0xC6	; 198
     89c:	72 74       	andi	r23, 0x42	; 66
     89e:	82 7b       	andi	r24, 0xB2	; 178
     8a0:	61 8d       	ldd	r22, Z+25	; 0x19
     8a2:	97 7a       	andi	r25, 0xA7	; 167
     8a4:	66 6c       	ori	r22, 0xC6	; 198
     8a6:	a1 90       	ld	r10, Z+
     8a8:	7e 98       	cbi	0x0f, 6	; 15
     8aa:	9d 9a       	sbi	0x13, 5	; 19
     8ac:	83 8e       	std	Z+27, r8	; 0x1b
     8ae:	95 65       	ori	r25, 0x55	; 85
     8b0:	5a 72       	andi	r21, 0x2A	; 42
     8b2:	79 5d       	subi	r23, 0xD9	; 217
     8b4:	48 5d       	subi	r20, 0xD8	; 216
     8b6:	65 6e       	ori	r22, 0xE5	; 229
     8b8:	7c 75       	andi	r23, 0x5C	; 92
     8ba:	78 63       	ori	r23, 0x38	; 56
     8bc:	81 a4       	ldd	r8, Z+41	; 0x29
     8be:	8c 77       	andi	r24, 0x7C	; 124
     8c0:	80 a3       	std	Z+32, r24	; 0x20
     8c2:	af 94 8a 9c 	call	0x2b3914	; 0x2b3914 <__data_load_end+0x2a10ea>
     8c6:	9f 7c       	andi	r25, 0xCF	; 207
     8c8:	81 95       	neg	r24
     8ca:	84 5b       	subi	r24, 0xB4	; 180
     8cc:	5c 84       	ldd	r5, Y+12	; 0x0c
     8ce:	7f 5c       	subi	r23, 0xCF	; 207
     8d0:	4f 6a       	ori	r20, 0xAF	; 175
     8d2:	7e 78       	andi	r23, 0x8E	; 142
     8d4:	6c 68       	ori	r22, 0x8C	; 140
     8d6:	61 67       	ori	r22, 0x71	; 113
     8d8:	82 96       	adiw	r24, 0x22	; 34
     8da:	81 64       	ori	r24, 0x41	; 65
     8dc:	79 92       	st	Y+, r7
     8de:	9b 8a       	std	Y+19, r9	; 0x13
     8e0:	6f 8b       	std	Y+23, r22	; 0x17
     8e2:	96 99       	sbic	0x12, 6	; 18
     8e4:	a1 96       	adiw	r28, 0x21	; 33
     8e6:	89 6f       	ori	r24, 0xF9	; 249
     8e8:	6c 91       	ld	r22, X
     8ea:	70 49       	sbci	r23, 0x90	; 144
     8ec:	50 6a       	ori	r21, 0xA0	; 160
     8ee:	7c 67       	ori	r23, 0x7C	; 124
     8f0:	77 85       	ldd	r23, Z+15	; 0x0f
     8f2:	7d 91       	ld	r23, X+
     8f4:	a2 c0       	rjmp	.+324    	; 0xa3a <__trampolines_end+0x8a4>
     8f6:	97 72       	andi	r25, 0x27	; 39
     8f8:	89 a3       	std	Y+33, r24	; 0x21
     8fa:	b2 8d       	ldd	r27, Z+26	; 0x1a
     8fc:	7a 9a       	sbi	0x0f, 2	; 15
     8fe:	95 8e       	std	Z+29, r9	; 0x1d
     900:	87 80       	ldd	r8, Z+7	; 0x07
     902:	73 5d       	subi	r23, 0xD3	; 211
     904:	6b 76       	andi	r22, 0x6B	; 107
     906:	65 5b       	subi	r22, 0xB5	; 181
     908:	67 78       	andi	r22, 0x87	; 135
     90a:	7c 74       	andi	r23, 0x4C	; 76
     90c:	7d 7d       	andi	r23, 0xDD	; 221
     90e:	6f 7b       	andi	r22, 0xBF	; 191
     910:	7f 94 7d 61 	call	0x1ec2fa	; 0x1ec2fa <__data_load_end+0x1d9ad0>
     914:	84 90       	lpm	r8, Z
     916:	95 84       	ldd	r9, Z+13	; 0x0d
     918:	82 94       	swap	r8
     91a:	89 93       	st	Y+, r24
     91c:	95 84       	ldd	r9, Z+13	; 0x0d
     91e:	7c 70       	andi	r23, 0x0C	; 12
     920:	80 84       	ldd	r8, Z+8	; 0x08
     922:	6f 6b       	ori	r22, 0xBF	; 191
     924:	63 5f       	subi	r22, 0xF3	; 243
     926:	65 73       	andi	r22, 0x35	; 53
     928:	75 6f       	ori	r23, 0xF5	; 245
     92a:	7f 8e       	std	Y+31, r7	; 0x1f
     92c:	a1 a5       	ldd	r26, Z+41	; 0x29
     92e:	8f 82       	std	Y+7, r8	; 0x07
     930:	8f 8c       	ldd	r8, Y+31	; 0x1f
     932:	89 88       	ldd	r8, Y+17	; 0x11
     934:	74 7a       	andi	r23, 0xA4	; 164
     936:	7e 8f       	std	Y+30, r23	; 0x1e
     938:	9a 84       	ldd	r9, Y+10	; 0x0a
     93a:	87 7c       	andi	r24, 0xC7	; 199
     93c:	7f 7f       	andi	r23, 0xFF	; 255
     93e:	66 64       	ori	r22, 0x46	; 70
     940:	5e 5b       	subi	r21, 0xBE	; 190
     942:	71 77       	andi	r23, 0x71	; 113
     944:	83 79       	andi	r24, 0x93	; 147
     946:	80 99       	sbic	0x10, 0	; 16
     948:	a1 9f       	mul	r26, r17
     94a:	7e 79       	andi	r23, 0x9E	; 158
     94c:	86 7f       	andi	r24, 0xF6	; 246
     94e:	86 80       	ldd	r8, Z+6	; 0x06
     950:	72 8c       	ldd	r7, Z+26	; 0x1a
     952:	8e 95 92 87 	call	0x610f24	; 0x610f24 <__data_load_end+0x5fe6fa>
     956:	81 74       	andi	r24, 0x41	; 65
     958:	79 73       	andi	r23, 0x39	; 57
     95a:	57 51       	subi	r21, 0x17	; 23
     95c:	68 70       	andi	r22, 0x08	; 8
     95e:	76 74       	andi	r23, 0x46	; 70
     960:	75 7f       	andi	r23, 0xF5	; 245
     962:	7d 8b       	std	Y+21, r23	; 0x15
     964:	98 82       	st	Y, r9
     966:	71 68       	ori	r23, 0x81	; 129
     968:	7b 8d       	ldd	r23, Y+27	; 0x1b
     96a:	87 82       	std	Z+7, r8	; 0x07
     96c:	87 97       	sbiw	r24, 0x27	; 39
     96e:	a0 9f       	mul	r26, r16
     970:	93 95       	inc	r25
     972:	9a 96       	adiw	r26, 0x2a	; 42
     974:	8b 7d       	andi	r24, 0xDB	; 219
     976:	61 59       	subi	r22, 0x91	; 145
     978:	64 6b       	ori	r22, 0xB4	; 180
     97a:	5b 53       	subi	r21, 0x3B	; 59
     97c:	59 72       	andi	r21, 0x29	; 41
     97e:	7c 79       	andi	r23, 0x9C	; 156
     980:	8e 98       	cbi	0x11, 6	; 17
     982:	83 75       	andi	r24, 0x53	; 83
     984:	80 92 94 86 	sts	0x8694, r8
     988:	82 93       	st	-Z, r24
     98a:	94 8c       	ldd	r9, Z+28	; 0x1c
     98c:	98 98       	cbi	0x13, 0	; 19
     98e:	97 85       	ldd	r25, Z+15	; 0x0f
     990:	83 79       	andi	r24, 0x93	; 147
     992:	5a 4d       	sbci	r21, 0xDA	; 218
     994:	56 59       	subi	r21, 0x96	; 150
     996:	66 57       	subi	r22, 0x76	; 118
     998:	5e 7e       	andi	r21, 0xEE	; 238
     99a:	86 84       	ldd	r8, Z+14	; 0x0e
     99c:	81 9b       	sbis	0x10, 1	; 16
     99e:	8b 65       	ori	r24, 0x5B	; 91
     9a0:	66 79       	andi	r22, 0x96	; 150
     9a2:	9f 8a       	std	Y+23, r9	; 0x17
     9a4:	5e 78       	andi	r21, 0x8E	; 142
     9a6:	95 9f       	mul	r25, r21
     9a8:	a8 96       	adiw	r28, 0x28	; 40
     9aa:	95 a6       	std	Z+45, r9	; 0x2d
     9ac:	aa a9       	ldd	r26, Y+50	; 0x32
     9ae:	86 7c       	andi	r24, 0xC6	; 198
     9b0:	7e 89       	ldd	r23, Y+22	; 0x16
     9b2:	a5 96       	adiw	r28, 0x25	; 37
     9b4:	8d 84       	ldd	r8, Y+13	; 0x0d
     9b6:	71 88       	ldd	r7, Z+17	; 0x11
     9b8:	89 82       	std	Y+1, r8	; 0x01
     9ba:	7c 5a       	subi	r23, 0xAC	; 172
     9bc:	61 72       	andi	r22, 0x21	; 33
     9be:	8d 90       	ld	r8, X+
     9c0:	7a 77       	andi	r23, 0x7A	; 122
     9c2:	84 8e       	std	Z+28, r8	; 0x1c
     9c4:	94 8d       	ldd	r25, Z+28	; 0x1c
     9c6:	7e 71       	andi	r23, 0x1E	; 30
     9c8:	6a 6f       	ori	r22, 0xFA	; 250
     9ca:	77 5c       	subi	r23, 0xC7	; 199
     9cc:	50 53       	subi	r21, 0x30	; 48
     9ce:	75 97       	sbiw	r30, 0x15	; 21
     9d0:	74 6a       	ori	r23, 0xA4	; 164
     9d2:	56 6a       	ori	r21, 0xA6	; 166
     9d4:	84 7c       	andi	r24, 0xC4	; 196
     9d6:	8b 8c       	ldd	r8, Y+27	; 0x1b
     9d8:	91 8a       	std	Z+17, r9	; 0x11
     9da:	7d 94 86 71 	jmp	0x1ee30c	; 0x1ee30c <__data_load_end+0x1dbae2>
     9de:	73 83       	std	Z+3, r23	; 0x03
     9e0:	8e 88       	ldd	r8, Y+22	; 0x16
     9e2:	87 7e       	andi	r24, 0xE7	; 231
     9e4:	84 82       	std	Z+4, r8	; 0x04
     9e6:	89 7d       	andi	r24, 0xD9	; 217
     9e8:	63 6c       	ori	r22, 0xC3	; 195
     9ea:	6a 74       	andi	r22, 0x4A	; 74
     9ec:	73 61       	ori	r23, 0x13	; 19
     9ee:	72 5c       	subi	r23, 0xC2	; 194
     9f0:	7d 84       	ldd	r7, Y+13	; 0x0d
     9f2:	93 b2       	in	r9, 0x13	; 19
     9f4:	99 8c       	ldd	r9, Y+25	; 0x19
     9f6:	7f 83       	std	Y+7, r23	; 0x07
     9f8:	86 69       	ori	r24, 0x96	; 150
     9fa:	62 82       	std	Z+2, r6	; 0x02
     9fc:	95 95       	asr	r25
     9fe:	8a 80       	ldd	r8, Y+2	; 0x02
     a00:	85 97       	sbiw	r24, 0x25	; 37
     a02:	8b 88       	ldd	r8, Y+19	; 0x13
     a04:	70 74       	andi	r23, 0x40	; 64
     a06:	84 81       	ldd	r24, Z+4	; 0x04
     a08:	7d 74       	andi	r23, 0x4D	; 77
     a0a:	7d 6d       	ori	r23, 0xDD	; 221
     a0c:	5f 6a       	ori	r21, 0xAF	; 175
     a0e:	6f 7a       	andi	r22, 0xAF	; 175
     a10:	6e 53       	subi	r22, 0x3E	; 62
     a12:	57 62       	ori	r21, 0x27	; 39
     a14:	80 6d       	ori	r24, 0xD0	; 208
     a16:	5b 62       	ori	r21, 0x2B	; 43
     a18:	87 89       	ldd	r24, Z+23	; 0x17
     a1a:	81 7e       	andi	r24, 0xE1	; 225
     a1c:	88 9a       	sbi	0x11, 0	; 17
     a1e:	98 9f       	mul	r25, r24
     a20:	9f 92       	push	r9
     a22:	98 9a       	sbi	0x13, 0	; 19
     a24:	97 9a       	sbi	0x12, 7	; 18
     a26:	85 89       	ldd	r24, Z+21	; 0x15
     a28:	80 8d       	ldd	r24, Z+24	; 0x18
     a2a:	9a b1       	in	r25, 0x0a	; 10
     a2c:	af a2       	std	Y+39, r10	; 0x27
     a2e:	96 8a       	std	Z+22, r9	; 0x16
     a30:	9c a4       	ldd	r9, Y+44	; 0x2c
     a32:	8f 8a       	std	Y+23, r8	; 0x17
     a34:	84 80       	ldd	r8, Z+4	; 0x04
     a36:	8d 94 9a 89 	jmp	0x231334	; 0x231334 <__data_load_end+0x21eb0a>
     a3a:	8f 9e       	mul	r8, r31
     a3c:	a6 87       	std	Z+14, r26	; 0x0e
     a3e:	78 74       	andi	r23, 0x48	; 72
     a40:	82 82       	std	Z+2, r8	; 0x02
     a42:	68 73       	andi	r22, 0x38	; 56
     a44:	6a 6a       	ori	r22, 0xAA	; 170
     a46:	7a 82       	std	Y+2, r7	; 0x02
     a48:	8d 74       	andi	r24, 0x4D	; 77
     a4a:	63 5f       	subi	r22, 0xF3	; 243
     a4c:	66 78       	andi	r22, 0x86	; 134
     a4e:	56 5e       	subi	r21, 0xE6	; 230
     a50:	5c 58       	subi	r21, 0x8C	; 140
     a52:	6e 65       	ori	r22, 0x5E	; 94
     a54:	60 5e       	subi	r22, 0xE0	; 224
     a56:	6f 90       	pop	r6
     a58:	94 80       	ldd	r9, Z+4	; 0x04
     a5a:	54 5a       	subi	r21, 0xA4	; 164
     a5c:	65 5d       	subi	r22, 0xD5	; 213
     a5e:	60 54       	subi	r22, 0x40	; 64
     a60:	5e 61       	ori	r21, 0x1E	; 30
     a62:	63 7d       	andi	r22, 0xD3	; 211
     a64:	8a 7f       	andi	r24, 0xFA	; 250
     a66:	73 71       	andi	r23, 0x13	; 19
     a68:	87 87       	std	Z+15, r24	; 0x0f
     a6a:	86 71       	andi	r24, 0x16	; 22
     a6c:	72 7c       	andi	r23, 0xC2	; 194
     a6e:	89 86       	std	Y+9, r8	; 0x09
     a70:	7d 7a       	andi	r23, 0xAD	; 173
     a72:	89 a6       	std	Y+41, r8	; 0x29
     a74:	a1 89       	ldd	r26, Z+17	; 0x11
     a76:	7e 67       	ori	r23, 0x7E	; 126
     a78:	55 54       	subi	r21, 0x45	; 69
     a7a:	52 6e       	ori	r21, 0xE2	; 226
     a7c:	70 61       	ori	r23, 0x10	; 16
     a7e:	60 84       	ldd	r6, Z+8	; 0x08
     a80:	a7 a6       	std	Z+47, r10	; 0x2f
     a82:	92 88       	ldd	r9, Z+18	; 0x12
     a84:	94 ac       	ldd	r9, Z+60	; 0x3c
     a86:	a4 95       	.word	0x95a4	; ????
     a88:	96 96       	adiw	r26, 0x26	; 38
     a8a:	9c a4       	ldd	r9, Y+44	; 0x2c
     a8c:	a3 ac       	ldd	r10, Z+59	; 0x3b
     a8e:	a2 91       	ld	r26, -Z
     a90:	99 93       	st	Y+, r25
     a92:	92 71       	andi	r25, 0x12	; 18
     a94:	54 4f       	sbci	r21, 0xF4	; 244
     a96:	55 6e       	ori	r21, 0xE5	; 229
     a98:	66 4e       	sbci	r22, 0xE6	; 230
     a9a:	55 6d       	ori	r21, 0xD5	; 213
     a9c:	94 a9       	ldd	r25, Z+52	; 0x34
     a9e:	90 7e       	andi	r25, 0xE0	; 224
     aa0:	82 99       	sbic	0x10, 2	; 16
     aa2:	9d 8f       	std	Y+29, r25	; 0x1d
     aa4:	91 8c       	ldd	r9, Z+25	; 0x19
     aa6:	94 ad       	ldd	r25, Z+60	; 0x3c
     aa8:	b6 c3       	rjmp	.+1900   	; 0x1216 <__trampolines_end+0x1080>
     aaa:	af b3       	in	r26, 0x1f	; 31
     aac:	c9 be       	out	0x39, r12	; 57
     aae:	aa 91       	ld	r26, -Y
     ab0:	79 80       	ldd	r7, Y+1	; 0x01
     ab2:	82 89       	ldd	r24, Z+18	; 0x12
     ab4:	7b 67       	ori	r23, 0x7B	; 123
     ab6:	67 81       	ldd	r22, Z+7	; 0x07
     ab8:	a6 9e       	mul	r10, r22
     aba:	77 61       	ori	r23, 0x17	; 23
     abc:	71 82       	std	Z+1, r7	; 0x01
     abe:	83 74       	andi	r24, 0x43	; 67
     ac0:	6d 6e       	ori	r22, 0xED	; 237
     ac2:	83 90       	.word	0x9083	; ????
     ac4:	97 87       	std	Z+15, r25	; 0x0f
     ac6:	73 75       	andi	r23, 0x53	; 83
     ac8:	89 7f       	andi	r24, 0xF9	; 249
     aca:	65 4d       	sbci	r22, 0xD5	; 213
     acc:	46 53       	subi	r20, 0x36	; 54
     ace:	59 58       	subi	r21, 0x89	; 137
     ad0:	52 46       	sbci	r21, 0x62	; 98
     ad2:	43 6d       	ori	r20, 0xD3	; 211
     ad4:	83 7f       	andi	r24, 0xF3	; 243
     ad6:	72 72       	andi	r23, 0x22	; 34
     ad8:	88 91       	.word	0x9188	; ????
     ada:	85 7f       	andi	r24, 0xF5	; 245
     adc:	69 62       	ori	r22, 0x29	; 41
     ade:	6f 7c       	andi	r22, 0xCF	; 207
     ae0:	7d 6f       	ori	r23, 0xFD	; 253
     ae2:	68 72       	andi	r22, 0x28	; 40
     ae4:	84 7a       	andi	r24, 0xA4	; 164
     ae6:	65 5c       	subi	r22, 0xC5	; 197
     ae8:	64 62       	ori	r22, 0x24	; 36
     aea:	67 5a       	subi	r22, 0xA7	; 167
     aec:	58 5c       	subi	r21, 0xC8	; 200
     aee:	61 86       	std	Z+9, r6	; 0x09
     af0:	92 85       	ldd	r25, Z+10	; 0x0a
     af2:	8c 8b       	std	Y+20, r24	; 0x14
     af4:	a1 9f       	mul	r26, r17
     af6:	95 95       	asr	r25
     af8:	79 7b       	andi	r23, 0xB9	; 185
     afa:	83 96       	adiw	r24, 0x23	; 35
     afc:	99 8b       	std	Y+17, r25	; 0x11
     afe:	83 8b       	std	Z+19, r24	; 0x13
     b00:	98 93       	.word	0x9398	; ????
     b02:	7e 76       	andi	r23, 0x6E	; 110
     b04:	67 73       	andi	r22, 0x37	; 55
     b06:	78 6d       	ori	r23, 0xD8	; 216
     b08:	6f 72       	andi	r22, 0x2F	; 47
     b0a:	85 a0       	ldd	r8, Z+37	; 0x25
     b0c:	9e 92       	st	-X, r9
     b0e:	91 80       	ldd	r9, Z+1	; 0x01
     b10:	84 8c       	ldd	r8, Z+28	; 0x1c
     b12:	91 8d       	ldd	r25, Z+25	; 0x19
     b14:	7b 6b       	ori	r23, 0xBB	; 187
     b16:	80 9e       	mul	r8, r16
     b18:	a1 8a       	std	Z+17, r10	; 0x11
     b1a:	7c 81       	ldd	r23, Y+4	; 0x04
     b1c:	94 89       	ldd	r25, Z+20	; 0x14
     b1e:	83 83       	std	Z+3, r24	; 0x03
     b20:	7d 82       	std	Y+5, r7	; 0x05
     b22:	83 7c       	andi	r24, 0xC3	; 195
     b24:	7c 82       	std	Y+4, r7	; 0x04
     b26:	95 a3       	std	Z+37, r25	; 0x25
     b28:	9c 91       	ld	r25, X
     b2a:	93 96       	adiw	r26, 0x23	; 35
     b2c:	98 a8       	ldd	r9, Y+48	; 0x30
     b2e:	aa a9       	ldd	r26, Y+50	; 0x32
     b30:	8c 8b       	std	Y+20, r24	; 0x14
     b32:	a4 b1       	in	r26, 0x04	; 4
     b34:	9d 85       	ldd	r25, Y+13	; 0x0d
     b36:	87 8d       	ldd	r24, Z+31	; 0x1f
     b38:	90 72       	andi	r25, 0x20	; 32
     b3a:	71 73       	andi	r23, 0x31	; 49
     b3c:	63 6a       	ori	r22, 0xA3	; 163
     b3e:	68 69       	ori	r22, 0x98	; 152
     b40:	6d 6c       	ori	r22, 0xCD	; 205
     b42:	8c 8d       	ldd	r24, Y+28	; 0x1c
     b44:	81 7a       	andi	r24, 0xA1	; 161
     b46:	7f 7d       	andi	r23, 0xDF	; 223
     b48:	71 7c       	andi	r23, 0xC1	; 193
     b4a:	85 72       	andi	r24, 0x25	; 37
     b4c:	5c 61       	ori	r21, 0x1C	; 28
     b4e:	88 8a       	std	Y+16, r8	; 0x10
     b50:	62 6c       	ori	r22, 0xC2	; 194
     b52:	72 6b       	ori	r23, 0xB2	; 178
     b54:	5e 4c       	sbci	r21, 0xCE	; 206
     b56:	69 5e       	subi	r22, 0xE9	; 233
     b58:	41 54       	subi	r20, 0x41	; 65
     b5a:	58 65       	ori	r21, 0x58	; 88
     b5c:	66 6c       	ori	r22, 0xC6	; 198
     b5e:	72 68       	ori	r23, 0x82	; 130
     b60:	74 80       	ldd	r7, Z+4	; 0x04
     b62:	87 7f       	andi	r24, 0xF7	; 247
     b64:	7d 9b       	sbis	0x0f, 5	; 15
     b66:	97 80       	ldd	r9, Z+7	; 0x07
     b68:	7f 8d       	ldd	r23, Y+31	; 0x1f
     b6a:	9f 86       	std	Y+15, r9	; 0x0f
     b6c:	7f 82       	std	Y+7, r7	; 0x07
     b6e:	78 6a       	ori	r23, 0xA8	; 168
     b70:	5b 69       	ori	r21, 0x9B	; 155
     b72:	69 50       	subi	r22, 0x09	; 9
     b74:	4f 5d       	subi	r20, 0xDF	; 223
     b76:	7c 7b       	andi	r23, 0xBC	; 188
     b78:	7c 7f       	andi	r23, 0xFC	; 252
     b7a:	71 83       	std	Z+1, r23	; 0x01
     b7c:	8c 94 97 87 	jmp	0x210f2e	; 0x210f2e <__data_load_end+0x1fe704>
     b80:	98 ab       	std	Y+48, r25	; 0x30
     b82:	95 93       	las	Z, r25
     b84:	98 ab       	std	Y+48, r25	; 0x30
     b86:	a9 a2       	std	Y+33, r10	; 0x21
     b88:	99 88       	ldd	r9, Y+17	; 0x11
     b8a:	79 77       	andi	r23, 0x79	; 121
     b8c:	89 7e       	andi	r24, 0xE9	; 233
     b8e:	56 4a       	sbci	r21, 0xA6	; 166
     b90:	5a 6f       	ori	r21, 0xFA	; 250
     b92:	83 7c       	andi	r24, 0xC3	; 195
     b94:	7f 71       	andi	r23, 0x1F	; 31
     b96:	73 84       	ldd	r7, Z+11	; 0x0b
     b98:	8a 8b       	std	Y+18, r24	; 0x12
     b9a:	8c 89       	ldd	r24, Y+20	; 0x14
     b9c:	8c 87       	std	Y+12, r24	; 0x0c
     b9e:	8b 98       	cbi	0x11, 3	; 17
     ba0:	94 90       	lpm	r9, Z
     ba2:	a1 9c       	mul	r10, r1
     ba4:	8b 71       	andi	r24, 0x1B	; 27
     ba6:	7e 9a       	sbi	0x0f, 6	; 15
     ba8:	94 7f       	andi	r25, 0xF4	; 244
     baa:	6d 8a       	std	Y+21, r6	; 0x15
     bac:	9b 9c       	mul	r9, r11
     bae:	a1 98       	cbi	0x14, 1	; 20
     bb0:	9d 9c       	mul	r9, r13
     bb2:	98 a3       	std	Y+32, r25	; 0x20
     bb4:	93 99       	sbic	0x12, 3	; 18
     bb6:	a3 8e       	std	Z+27, r10	; 0x1b
     bb8:	87 88       	ldd	r8, Z+23	; 0x17
     bba:	8f 81       	ldd	r24, Y+7	; 0x07
     bbc:	72 7d       	andi	r23, 0xD2	; 210
     bbe:	7a 6d       	ori	r23, 0xDA	; 218
     bc0:	4f 5a       	subi	r20, 0xAF	; 175
     bc2:	7d 64       	ori	r23, 0x4D	; 77
     bc4:	5c 58       	subi	r21, 0x8C	; 140
     bc6:	67 73       	andi	r22, 0x37	; 55
     bc8:	6e 72       	andi	r22, 0x2E	; 46
     bca:	65 64       	ori	r22, 0x45	; 69
     bcc:	76 8b       	std	Z+22, r23	; 0x16
     bce:	8f 88       	ldd	r8, Y+23	; 0x17
     bd0:	8c 93       	st	X, r24
     bd2:	88 7d       	andi	r24, 0xD8	; 216
     bd4:	83 8c       	ldd	r8, Z+27	; 0x1b
     bd6:	7e 76       	andi	r23, 0x6E	; 110
     bd8:	76 74       	andi	r23, 0x46	; 70
     bda:	5d 5d       	subi	r21, 0xDD	; 221
     bdc:	61 65       	ori	r22, 0x51	; 81
     bde:	55 39       	cpi	r21, 0x95	; 149
     be0:	4c 59       	subi	r20, 0x9C	; 156
     be2:	62 6e       	ori	r22, 0xE2	; 226
     be4:	64 62       	ori	r22, 0x24	; 36
     be6:	6a 7e       	andi	r22, 0xEA	; 234
     be8:	92 92       	st	-Z, r9
     bea:	8f 97       	sbiw	r24, 0x2f	; 47
     bec:	99 92       	st	Y+, r9
     bee:	90 8b       	std	Z+16, r25	; 0x10
     bf0:	8b 89       	ldd	r24, Y+19	; 0x13
     bf2:	8e 89       	ldd	r24, Y+22	; 0x16
     bf4:	7b 70       	andi	r23, 0x0B	; 11
     bf6:	73 79       	andi	r23, 0x93	; 147
     bf8:	6a 62       	ori	r22, 0x2A	; 42
     bfa:	6e 64       	ori	r22, 0x4E	; 78
     bfc:	71 80       	ldd	r7, Z+1	; 0x01
     bfe:	8b 80       	ldd	r8, Y+3	; 0x03
     c00:	71 8d       	ldd	r23, Z+25	; 0x19
     c02:	a2 98       	cbi	0x14, 2	; 20
     c04:	8e 92       	st	-X, r8
     c06:	a0 99       	sbic	0x14, 0	; 20
     c08:	97 92       	lat	Z, r9
     c0a:	90 8e       	std	Z+24, r9	; 0x18
     c0c:	86 95       	lsr	r24
     c0e:	6f 5e       	subi	r22, 0xEF	; 239
     c10:	69 6e       	ori	r22, 0xE9	; 233
     c12:	67 56       	subi	r22, 0x67	; 103
     c14:	66 7f       	andi	r22, 0xF6	; 246
     c16:	86 7f       	andi	r24, 0xF6	; 246
     c18:	8a 8b       	std	Y+18, r24	; 0x12
     c1a:	6c 7e       	andi	r22, 0xEC	; 236
     c1c:	95 94       	asr	r9
     c1e:	8c 7f       	andi	r24, 0xFC	; 252
     c20:	94 97       	sbiw	r26, 0x24	; 36
     c22:	96 a7       	std	Z+46, r25	; 0x2e
     c24:	aa 96       	adiw	r28, 0x2a	; 42
     c26:	8c 9c       	mul	r8, r12
     c28:	99 7c       	andi	r25, 0xC9	; 201
     c2a:	73 80       	ldd	r7, Z+3	; 0x03
     c2c:	98 7a       	andi	r25, 0xA8	; 168
     c2e:	76 8b       	std	Z+22, r23	; 0x16
     c30:	9e ad       	ldd	r25, Y+62	; 0x3e
     c32:	98 93       	.word	0x9398	; ????
     c34:	78 76       	andi	r23, 0x68	; 104
     c36:	89 a2       	std	Y+33, r8	; 0x21
     c38:	99 80       	ldd	r9, Y+1	; 0x01
     c3a:	89 8f       	std	Y+25, r24	; 0x19
     c3c:	8d 93       	st	X+, r24
     c3e:	91 8d       	ldd	r25, Z+25	; 0x19
     c40:	7a 71       	andi	r23, 0x1A	; 26
     c42:	7f 70       	andi	r23, 0x0F	; 15
     c44:	58 62       	ori	r21, 0x28	; 40
     c46:	73 67       	ori	r23, 0x73	; 115
     c48:	5d 5d       	subi	r21, 0xDD	; 221
     c4a:	6f 72       	andi	r22, 0x2F	; 47
     c4c:	6f 68       	ori	r22, 0x8F	; 143
     c4e:	60 4d       	sbci	r22, 0xD0	; 208
     c50:	5c 77       	andi	r21, 0x7C	; 124
     c52:	7a 78       	andi	r23, 0x8A	; 138
     c54:	79 79       	andi	r23, 0x99	; 153
     c56:	81 80       	ldd	r8, Z+1	; 0x01
     c58:	82 82       	std	Z+2, r8	; 0x02
     c5a:	6d 75       	andi	r22, 0x5D	; 93
     c5c:	77 71       	andi	r23, 0x17	; 23
     c5e:	6d 62       	ori	r22, 0x2D	; 45
     c60:	7b 77       	andi	r23, 0x7B	; 123
     c62:	71 6f       	ori	r23, 0xF1	; 241
     c64:	62 7b       	andi	r22, 0xB2	; 178
     c66:	7a 7c       	andi	r23, 0xCA	; 202
     c68:	64 67       	ori	r22, 0x74	; 116
     c6a:	7b 83       	std	Y+3, r23	; 0x03
     c6c:	93 8f       	std	Z+27, r25	; 0x1b
     c6e:	8e 88       	ldd	r8, Y+22	; 0x16
     c70:	72 84       	ldd	r7, Z+10	; 0x0a
     c72:	8d 7f       	andi	r24, 0xFD	; 253
     c74:	73 76       	andi	r23, 0x63	; 99
     c76:	7f 77       	andi	r23, 0x7F	; 127
     c78:	73 74       	andi	r23, 0x43	; 67
     c7a:	85 79       	andi	r24, 0x95	; 149
     c7c:	70 79       	andi	r23, 0x90	; 144
     c7e:	7c 87       	std	Y+12, r23	; 0x0c
     c80:	92 92       	st	-Z, r9
     c82:	8c 7f       	andi	r24, 0xFC	; 252
     c84:	8f 9c       	mul	r8, r15
     c86:	a9 a2       	std	Y+33, r10	; 0x21
     c88:	a4 a9       	ldd	r26, Z+52	; 0x34
     c8a:	8e 96       	adiw	r24, 0x2e	; 46
     c8c:	90 96       	adiw	r26, 0x20	; 32
     c8e:	7f 5c       	subi	r23, 0xCF	; 207
     c90:	65 65       	ori	r22, 0x55	; 85
     c92:	52 45       	sbci	r21, 0x52	; 82
     c94:	53 67       	ori	r21, 0x73	; 115
     c96:	60 62       	ori	r22, 0x20	; 32
     c98:	65 7d       	andi	r22, 0xD5	; 213
     c9a:	7e 84       	ldd	r7, Y+14	; 0x0e
     c9c:	8f 73       	andi	r24, 0x3F	; 63
     c9e:	7f 86       	std	Y+15, r7	; 0x0f
     ca0:	8f 9d       	mul	r24, r15
     ca2:	91 a1       	ldd	r25, Z+33	; 0x21
     ca4:	a0 9c       	mul	r10, r0
     ca6:	a1 9b       	sbis	0x14, 1	; 20
     ca8:	a3 8f       	std	Z+27, r26	; 0x1b
     caa:	8f 93       	push	r24
     cac:	85 80       	ldd	r8, Z+5	; 0x05
     cae:	7b 86       	std	Y+11, r7	; 0x0b
     cb0:	89 8d       	ldd	r24, Y+25	; 0x19
     cb2:	9b 9f       	mul	r25, r27
     cb4:	9b 9d       	mul	r25, r11
     cb6:	a4 93       	xch	Z, r26
     cb8:	81 73       	andi	r24, 0x31	; 49
     cba:	75 82       	std	Z+5, r7	; 0x05
     cbc:	79 7d       	andi	r23, 0xD9	; 217
     cbe:	7a 80       	ldd	r7, Y+2	; 0x02
     cc0:	99 92       	st	Y+, r9
     cc2:	88 83       	st	Y, r24
     cc4:	78 6d       	ori	r23, 0xD8	; 216
     cc6:	62 5c       	subi	r22, 0xC2	; 194
     cc8:	60 65       	ori	r22, 0x50	; 80
     cca:	5c 68       	ori	r21, 0x8C	; 140
     ccc:	72 80       	ldd	r7, Z+2	; 0x02
     cce:	8c 7e       	andi	r24, 0xEC	; 236
     cd0:	87 7d       	andi	r24, 0xD7	; 215
     cd2:	75 77       	andi	r23, 0x75	; 117
     cd4:	74 84       	ldd	r7, Z+12	; 0x0c
     cd6:	88 7e       	andi	r24, 0xE8	; 232
     cd8:	77 73       	andi	r23, 0x37	; 55
     cda:	89 88       	ldd	r8, Y+17	; 0x11
     cdc:	7a 71       	andi	r23, 0x1A	; 26
     cde:	6c 6a       	ori	r22, 0xAC	; 172
     ce0:	60 64       	ori	r22, 0x40	; 64
     ce2:	5f 59       	subi	r21, 0x9F	; 159
     ce4:	5f 60       	ori	r21, 0x0F	; 15
     ce6:	64 64       	ori	r22, 0x44	; 68
     ce8:	6c 6c       	ori	r22, 0xCC	; 204
     cea:	74 84       	ldd	r7, Z+12	; 0x0c
     cec:	82 86       	std	Z+10, r8	; 0x0a
     cee:	74 80       	ldd	r7, Z+4	; 0x04
     cf0:	9a 9b       	sbis	0x13, 2	; 19
     cf2:	94 88       	ldd	r9, Z+20	; 0x14
     cf4:	95 aa       	std	Z+53, r9	; 0x35
     cf6:	9f 90       	pop	r9
     cf8:	8d 88       	ldd	r8, Y+21	; 0x15
     cfa:	7b 74       	andi	r23, 0x4B	; 75
     cfc:	6b 69       	ori	r22, 0x9B	; 155
     cfe:	65 5c       	subi	r22, 0xC5	; 197
     d00:	6d 6f       	ori	r22, 0xFD	; 253
     d02:	6f 72       	andi	r22, 0x2F	; 47
     d04:	6c 7e       	andi	r22, 0xEC	; 236
     d06:	8e 8f       	std	Y+30, r24	; 0x1e
     d08:	90 8b       	std	Z+16, r25	; 0x10
     d0a:	9d b0       	in	r9, 0x0d	; 13
     d0c:	b0 95       	com	r27
     d0e:	82 93       	st	-Z, r24
     d10:	8f 7f       	andi	r24, 0xFF	; 255
     d12:	6d 6f       	ori	r22, 0xFD	; 253
     d14:	7a 6f       	ori	r23, 0xFA	; 250
     d16:	7d 83       	std	Y+5, r23	; 0x05
     d18:	78 6f       	ori	r23, 0xF8	; 248
     d1a:	6b 7d       	andi	r22, 0xDB	; 219
     d1c:	7c 7d       	andi	r23, 0xDC	; 220
     d1e:	78 75       	andi	r23, 0x58	; 88
     d20:	77 7e       	andi	r23, 0xE7	; 231
     d22:	8c 82       	std	Y+4, r8	; 0x04
     d24:	71 83       	std	Z+1, r23	; 0x01
     d26:	8c 91       	ld	r24, X
     d28:	82 88       	ldd	r8, Z+18	; 0x12
     d2a:	ad a6       	std	Y+45, r10	; 0x2d
     d2c:	98 98       	cbi	0x13, 0	; 19
     d2e:	92 8c       	ldd	r9, Z+26	; 0x1a
     d30:	86 8b       	std	Z+22, r24	; 0x16
     d32:	85 7b       	andi	r24, 0xB5	; 181
     d34:	6e 83       	std	Y+6, r22	; 0x06
     d36:	8c 87       	std	Y+12, r24	; 0x0c
     d38:	8a 85       	ldd	r24, Y+10	; 0x0a
     d3a:	8c 80       	ldd	r8, Y+4	; 0x04
     d3c:	85 86       	std	Z+13, r8	; 0x0d
     d3e:	7c 7d       	andi	r23, 0xDC	; 220
     d40:	8d 97       	sbiw	r24, 0x2d	; 45
     d42:	92 81       	ldd	r25, Z+2	; 0x02
     d44:	8a 97       	sbiw	r24, 0x2a	; 42
     d46:	90 7b       	andi	r25, 0xB0	; 176
     d48:	73 6f       	ori	r23, 0xF3	; 243
     d4a:	5e 66       	ori	r21, 0x6E	; 110
     d4c:	6d 6a       	ori	r22, 0xAD	; 173
     d4e:	53 51       	subi	r21, 0x13	; 19
     d50:	69 71       	andi	r22, 0x19	; 25
     d52:	6e 65       	ori	r22, 0x5E	; 94
     d54:	74 76       	andi	r23, 0x64	; 100
     d56:	73 81       	ldd	r23, Z+3	; 0x03
     d58:	76 6d       	ori	r23, 0xD6	; 214
     d5a:	72 87       	std	Z+10, r23	; 0x0a
     d5c:	96 8f       	std	Z+30, r25	; 0x1e
     d5e:	8f a3       	std	Y+39, r24	; 0x27
     d60:	ac a4       	ldd	r10, Y+44	; 0x2c
     d62:	96 91       	elpm	r25, Z
     d64:	80 6b       	ori	r24, 0xB0	; 176
     d66:	68 68       	ori	r22, 0x88	; 136
     d68:	5a 41       	sbci	r21, 0x1A	; 26
     d6a:	57 6f       	ori	r21, 0xF7	; 247
     d6c:	71 71       	andi	r23, 0x11	; 17
     d6e:	6c 75       	andi	r22, 0x5C	; 92
     d70:	79 7c       	andi	r23, 0xC9	; 201
     d72:	8b 89       	ldd	r24, Y+19	; 0x13
     d74:	7c 76       	andi	r23, 0x6C	; 108
     d76:	88 8f       	std	Y+24, r24	; 0x18
     d78:	81 7c       	andi	r24, 0xC1	; 193
     d7a:	82 94       	swap	r8
     d7c:	8a 7b       	andi	r24, 0xBA	; 186
     d7e:	81 88       	ldd	r8, Z+17	; 0x11
     d80:	8e 94 8a 7e 	call	0x20fd14	; 0x20fd14 <__data_load_end+0x1fd4ea>
     d84:	6a 7c       	andi	r22, 0xCA	; 202
     d86:	85 7d       	andi	r24, 0xD5	; 213
     d88:	84 80       	ldd	r8, Z+4	; 0x04
     d8a:	7f 7f       	andi	r23, 0xFF	; 255
     d8c:	81 8b       	std	Z+17, r24	; 0x11
     d8e:	7d 70       	andi	r23, 0x0D	; 13
     d90:	65 6c       	ori	r22, 0xC5	; 197
     d92:	72 5b       	subi	r23, 0xB2	; 178
     d94:	75 8c       	ldd	r7, Z+29	; 0x1d
     d96:	9e a8       	ldd	r9, Y+54	; 0x36
     d98:	95 93       	las	Z, r25
     d9a:	90 93 98 75 	sts	0x7598, r25
     d9e:	60 58       	subi	r22, 0x80	; 128
     da0:	65 66       	ori	r22, 0x65	; 101
     da2:	6c 76       	andi	r22, 0x6C	; 108
     da4:	7d 7b       	andi	r23, 0xBD	; 189
     da6:	7e 8d       	ldd	r23, Y+30	; 0x1e
     da8:	93 86       	std	Z+11, r9	; 0x0b
     daa:	8c 9c       	mul	r8, r12
     dac:	a0 94       	com	r10
     dae:	82 95       	swap	r24
     db0:	a9 ac       	ldd	r10, Y+57	; 0x39
     db2:	a4 9a       	sbi	0x14, 4	; 20
     db4:	8b 8a       	std	Y+19, r8	; 0x13
     db6:	8d 84       	ldd	r8, Y+13	; 0x0d
     db8:	75 63       	ori	r23, 0x35	; 53
     dba:	62 65       	ori	r22, 0x52	; 82
     dbc:	5a 6c       	ori	r21, 0xCA	; 202
     dbe:	75 81       	ldd	r23, Z+5	; 0x05
     dc0:	76 75       	andi	r23, 0x56	; 86
     dc2:	92 7e       	andi	r25, 0xE2	; 226
     dc4:	75 77       	andi	r23, 0x75	; 117
     dc6:	8d 8e       	std	Y+29, r8	; 0x1d
     dc8:	75 7d       	andi	r23, 0xD5	; 213
     dca:	92 a5       	ldd	r25, Z+42	; 0x2a
     dcc:	9c 8f       	std	Y+28, r25	; 0x1c
     dce:	95 7c       	andi	r25, 0xC5	; 197
     dd0:	71 78       	andi	r23, 0x81	; 129
     dd2:	73 67       	ori	r23, 0x73	; 115
     dd4:	5d 6a       	ori	r21, 0xAD	; 173
     dd6:	75 6c       	ori	r23, 0xC5	; 197
     dd8:	78 80       	ld	r7, Y
     dda:	7b 74       	andi	r23, 0x4B	; 75
     ddc:	6a 7a       	andi	r22, 0xAA	; 170
     dde:	6d 70       	andi	r22, 0x0D	; 13
     de0:	78 7d       	andi	r23, 0xD8	; 216
     de2:	80 6a       	ori	r24, 0xA0	; 160
     de4:	81 88       	ldd	r8, Z+17	; 0x11
     de6:	81 89       	ldd	r24, Z+17	; 0x11
     de8:	82 89       	ldd	r24, Z+18	; 0x12
     dea:	83 77       	andi	r24, 0x73	; 115
     dec:	95 9f       	mul	r25, r21
     dee:	8f 83       	std	Y+7, r24	; 0x07
     df0:	82 8b       	std	Z+18, r24	; 0x12
     df2:	7d 7c       	andi	r23, 0xCD	; 205
     df4:	81 81       	ldd	r24, Z+1	; 0x01
     df6:	76 66       	ori	r23, 0x66	; 102
     df8:	76 6b       	ori	r23, 0xB6	; 182
     dfa:	62 71       	andi	r22, 0x12	; 18
     dfc:	6f 7b       	andi	r22, 0xBF	; 191
     dfe:	6f 7f       	andi	r22, 0xFF	; 255
     e00:	9b 95       	.word	0x959b	; ????
     e02:	a6 a4       	ldd	r10, Z+46	; 0x2e
     e04:	a4 87       	std	Z+12, r26	; 0x0c
     e06:	68 79       	andi	r22, 0x98	; 152
     e08:	7f 74       	andi	r23, 0x4F	; 79
     e0a:	67 64       	ori	r22, 0x47	; 71
     e0c:	6e 6a       	ori	r22, 0xAE	; 174
     e0e:	7e 7f       	andi	r23, 0xFE	; 254
     e10:	82 75       	andi	r24, 0x52	; 82
     e12:	71 88       	ldd	r7, Z+17	; 0x11
     e14:	74 7f       	andi	r23, 0xF4	; 244
     e16:	82 8f       	std	Z+26, r24	; 0x1a
     e18:	9c 94 93 92 	jmp	0x252526	; 0x252526 <__data_load_end+0x23fcfc>
     e1c:	9b 97       	sbiw	r26, 0x2b	; 43
     e1e:	8b 89       	ldd	r24, Y+19	; 0x13
     e20:	6f 6a       	ori	r22, 0xAF	; 175
     e22:	6a 68       	ori	r22, 0x8A	; 138
     e24:	6d 6c       	ori	r22, 0xCD	; 205
     e26:	6f 72       	andi	r22, 0x2F	; 47
     e28:	6e 84       	ldd	r6, Y+14	; 0x0e
     e2a:	95 88       	ldd	r9, Z+21	; 0x15
     e2c:	8a 87       	std	Y+10, r24	; 0x0a
     e2e:	8f 7d       	andi	r24, 0xDF	; 223
     e30:	61 69       	ori	r22, 0x91	; 145
     e32:	7b 84       	ldd	r7, Y+11	; 0x0b
     e34:	8d 93       	st	X+, r24
     e36:	a4 ae       	std	Z+60, r10	; 0x3c
     e38:	ab a2       	std	Y+35, r10	; 0x23
     e3a:	9e 8a       	std	Y+22, r9	; 0x16
     e3c:	76 75       	andi	r23, 0x56	; 86
     e3e:	76 75       	andi	r23, 0x56	; 86
     e40:	7b 7c       	andi	r23, 0xCB	; 203
     e42:	7d 8a       	std	Y+21, r7	; 0x15
     e44:	7c 88       	ldd	r7, Y+20	; 0x14
     e46:	78 71       	andi	r23, 0x18	; 24
     e48:	6a 62       	ori	r22, 0x2A	; 42
     e4a:	5d 5b       	subi	r21, 0xBD	; 189
     e4c:	64 70       	andi	r22, 0x04	; 4
     e4e:	77 7f       	andi	r23, 0xF7	; 247
     e50:	86 9e       	mul	r8, r22
     e52:	9b 89       	ldd	r25, Y+19	; 0x13
     e54:	89 83       	std	Y+1, r24	; 0x01
     e56:	8b 6d       	ori	r24, 0xDB	; 219
     e58:	74 8b       	std	Z+20, r23	; 0x14
     e5a:	7c 73       	andi	r23, 0x3C	; 60
     e5c:	70 83       	st	Z, r23
     e5e:	86 6d       	ori	r24, 0xD6	; 214
     e60:	7e 88       	ldd	r7, Y+22	; 0x16
     e62:	96 77       	andi	r25, 0x76	; 118
     e64:	6c 73       	andi	r22, 0x3C	; 60
     e66:	62 72       	andi	r22, 0x22	; 34
     e68:	6e 73       	andi	r22, 0x3E	; 62
     e6a:	7a 7e       	andi	r23, 0xEA	; 234
     e6c:	a0 b0       	in	r10, 0x00	; 0
     e6e:	a9 9b       	sbis	0x15, 1	; 21
     e70:	89 81       	ldd	r24, Y+1	; 0x01
     e72:	6b 5e       	subi	r22, 0xEB	; 235
     e74:	74 6f       	ori	r23, 0xF4	; 244
     e76:	6d 6b       	ori	r22, 0xBD	; 189
     e78:	73 7e       	andi	r23, 0xE3	; 227
     e7a:	72 8a       	std	Z+18, r7	; 0x12
     e7c:	8f 9d       	mul	r24, r15
     e7e:	96 7c       	andi	r25, 0xC6	; 198
     e80:	89 81       	ldd	r24, Y+1	; 0x01
     e82:	89 94       	.word	0x9489	; ????
     e84:	7a 78       	andi	r23, 0x8A	; 138
     e86:	67 79       	andi	r22, 0x97	; 151
     e88:	9d 98       	cbi	0x13, 5	; 19
     e8a:	91 85       	ldd	r25, Z+9	; 0x09
     e8c:	7b 77       	andi	r23, 0x7B	; 123
     e8e:	6e 69       	ori	r22, 0x9E	; 158
     e90:	68 65       	ori	r22, 0x58	; 88
     e92:	70 69       	ori	r23, 0x90	; 144
     e94:	76 78       	andi	r23, 0x86	; 134
     e96:	84 98       	cbi	0x10, 4	; 16
     e98:	9a a5       	ldd	r25, Y+42	; 0x2a
     e9a:	7f 60       	ori	r23, 0x0F	; 15
     e9c:	66 60       	ori	r22, 0x06	; 6
     e9e:	77 70       	andi	r23, 0x07	; 7
     ea0:	65 76       	andi	r22, 0x65	; 101
     ea2:	7f ac       	ldd	r7, Y+63	; 0x3f
     ea4:	c1 bf       	out	0x31, r28	; 49
     ea6:	aa 8f       	std	Y+26, r26	; 0x1a
     ea8:	87 75       	andi	r24, 0x57	; 87
     eaa:	69 74       	andi	r22, 0x49	; 73
     eac:	71 7b       	andi	r23, 0xB1	; 177
     eae:	71 70       	andi	r23, 0x01	; 1
     eb0:	80 6a       	ori	r24, 0xA0	; 160
     eb2:	7e 8e       	std	Y+30, r7	; 0x1e
     eb4:	92 7f       	andi	r25, 0xF2	; 242
     eb6:	5a 71       	andi	r21, 0x1A	; 26
     eb8:	78 79       	andi	r23, 0x98	; 152
     eba:	7e 72       	andi	r23, 0x2E	; 46
     ebc:	78 76       	andi	r23, 0x68	; 104
     ebe:	84 a2       	std	Z+36, r8	; 0x24
     ec0:	ab 9f       	mul	r26, r27
     ec2:	8d 87       	std	Y+13, r24	; 0x0d
     ec4:	7f 6e       	ori	r23, 0xEF	; 239
     ec6:	70 6e       	ori	r23, 0xE0	; 224
     ec8:	74 73       	andi	r23, 0x34	; 52
     eca:	6b 7e       	andi	r22, 0xEB	; 235
     ecc:	7d 87       	std	Y+13, r23	; 0x0d
     ece:	a3 9e       	mul	r10, r19
     ed0:	8d 71       	andi	r24, 0x1D	; 29
     ed2:	6f 6d       	ori	r22, 0xDF	; 223
     ed4:	67 73       	andi	r22, 0x37	; 55
     ed6:	7d 7f       	andi	r23, 0xFD	; 253
     ed8:	73 73       	andi	r23, 0x33	; 51
     eda:	95 a3       	std	Z+37, r25	; 0x25
     edc:	99 8b       	std	Y+17, r25	; 0x11
     ede:	70 71       	andi	r23, 0x10	; 16
     ee0:	5c 62       	ori	r21, 0x2C	; 44
     ee2:	70 6e       	ori	r23, 0xE0	; 224
     ee4:	6f 5c       	subi	r22, 0xCF	; 207
     ee6:	69 81       	ldd	r22, Y+1	; 0x01
     ee8:	83 a2       	std	Z+35, r8	; 0x23
     eea:	a2 9d       	mul	r26, r2
     eec:	a1 88       	ldd	r10, Z+17	; 0x11
     eee:	84 75       	andi	r24, 0x54	; 84
     ef0:	7b 7f       	andi	r23, 0xFB	; 251
     ef2:	7a 77       	andi	r23, 0x7A	; 122
     ef4:	6d 86       	std	Y+13, r6	; 0x0d
     ef6:	9c 9d       	mul	r25, r12
     ef8:	a0 81       	ld	r26, Z
     efa:	76 68       	ori	r23, 0x86	; 134
     efc:	62 74       	andi	r22, 0x42	; 66
     efe:	76 7b       	andi	r23, 0xB6	; 182
     f00:	72 6e       	ori	r23, 0xE2	; 226
     f02:	8b 90       	.word	0x908b	; ????
     f04:	9d 9e       	mul	r9, r29
     f06:	89 87       	std	Y+9, r24	; 0x09
     f08:	68 56       	subi	r22, 0x68	; 104
     f0a:	60 5c       	subi	r22, 0xC0	; 192
     f0c:	73 81       	ldd	r23, Z+3	; 0x03
     f0e:	85 90       	lpm	r8, Z+
     f10:	84 9a       	sbi	0x10, 4	; 16
     f12:	a4 a1       	ldd	r26, Z+36	; 0x24
     f14:	90 6e       	ori	r25, 0xE0	; 224
     f16:	72 6f       	ori	r23, 0xF2	; 242
     f18:	79 8a       	std	Y+17, r7	; 0x11
     f1a:	84 81       	ldd	r24, Z+4	; 0x04
     f1c:	6c 6f       	ori	r22, 0xFC	; 252
     f1e:	83 82       	std	Z+3, r8	; 0x03
     f20:	8e 83       	std	Y+6, r24	; 0x06
     f22:	7d 78       	andi	r23, 0x8D	; 141
     f24:	62 6d       	ori	r22, 0xD2	; 210
     f26:	5e 67       	ori	r21, 0x7E	; 126
     f28:	78 79       	andi	r23, 0x98	; 152
     f2a:	89 7b       	andi	r24, 0xB9	; 185
     f2c:	95 a3       	std	Z+37, r25	; 0x25
     f2e:	9a 99       	sbic	0x13, 2	; 19
     f30:	7f 7a       	andi	r23, 0xAF	; 175
     f32:	77 71       	andi	r23, 0x17	; 23
     f34:	89 8a       	std	Y+17, r8	; 0x11
     f36:	8d 82       	std	Y+5, r8	; 0x05
     f38:	7b 8d       	ldd	r23, Y+27	; 0x1b
     f3a:	8b 91       	.word	0x918b	; ????
     f3c:	8d 7f       	andi	r24, 0xFD	; 253
     f3e:	76 65       	ori	r23, 0x56	; 86
     f40:	68 67       	ori	r22, 0x78	; 120
     f42:	6c 7f       	andi	r22, 0xFC	; 252
     f44:	79 81       	ldd	r23, Y+1	; 0x01
     f46:	7d 83       	std	Y+5, r23	; 0x05
     f48:	91 86       	std	Z+9, r9	; 0x09
     f4a:	80 72       	andi	r24, 0x20	; 32
     f4c:	68 6d       	ori	r22, 0xD8	; 216
     f4e:	69 71       	andi	r22, 0x19	; 25
     f50:	7b 7c       	andi	r23, 0xCB	; 203
     f52:	7d 76       	andi	r23, 0x6D	; 109
     f54:	8e 98       	cbi	0x11, 6	; 17
     f56:	9c a6       	std	Y+44, r9	; 0x2c
     f58:	9e 8f       	std	Y+30, r25	; 0x1e
     f5a:	7b 75       	andi	r23, 0x5B	; 91
     f5c:	74 67       	ori	r23, 0x74	; 116
     f5e:	69 6c       	ori	r22, 0xC9	; 201
     f60:	77 7f       	andi	r23, 0xF7	; 247
     f62:	89 9a       	sbi	0x11, 1	; 17
     f64:	a1 8c       	ldd	r10, Z+25	; 0x19
     f66:	81 71       	andi	r24, 0x11	; 17
     f68:	6d 78       	andi	r22, 0x8D	; 141
     f6a:	6d 79       	andi	r22, 0x9D	; 157
     f6c:	7c 85       	ldd	r23, Y+12	; 0x0c
     f6e:	8b 8a       	std	Y+19, r8	; 0x13
     f70:	9a 96       	adiw	r26, 0x2a	; 42
     f72:	8f 86       	std	Y+15, r8	; 0x0f
     f74:	6d 68       	ori	r22, 0x8D	; 141
     f76:	5b 63       	ori	r21, 0x3B	; 59
     f78:	66 68       	ori	r22, 0x86	; 134
     f7a:	77 81       	ldd	r23, Z+7	; 0x07
     f7c:	8c 94 95 a8 	jmp	0x21512a	; 0x21512a <__data_load_end+0x202900>
     f80:	9b 86       	std	Y+11, r9	; 0x0b
     f82:	83 7b       	andi	r24, 0xB3	; 179
     f84:	8c 81       	ldd	r24, Y+4	; 0x04
     f86:	7e 83       	std	Y+6, r23	; 0x06
     f88:	77 7f       	andi	r23, 0xF7	; 247
     f8a:	7b 87       	std	Y+11, r23	; 0x0b
     f8c:	93 87       	std	Z+11, r25	; 0x0b
     f8e:	8b 73       	andi	r24, 0x3B	; 59
     f90:	68 6d       	ori	r22, 0xD8	; 216
     f92:	5a 5f       	subi	r21, 0xFA	; 250
     f94:	58 5c       	subi	r21, 0xC8	; 200
     f96:	6d 75       	andi	r22, 0x5D	; 93
     f98:	8f 96       	adiw	r24, 0x2f	; 47
     f9a:	9d 9f       	mul	r25, r29
     f9c:	90 8f       	std	Z+24, r25	; 0x18
     f9e:	86 85       	ldd	r24, Z+14	; 0x0e
     fa0:	87 7c       	andi	r24, 0xC7	; 199
     fa2:	7d 76       	andi	r23, 0x6D	; 109
     fa4:	78 82       	st	Y, r7
     fa6:	81 94       	neg	r8
     fa8:	8a 87       	std	Y+10, r24	; 0x0a
     faa:	89 7f       	andi	r24, 0xF9	; 249
     fac:	7c 6e       	ori	r23, 0xEC	; 236
     fae:	64 69       	ori	r22, 0x94	; 148
     fb0:	62 63       	ori	r22, 0x32	; 50
     fb2:	72 7f       	andi	r23, 0xF2	; 242
     fb4:	86 83       	std	Z+6, r24	; 0x06
     fb6:	87 89       	ldd	r24, Z+23	; 0x17
     fb8:	8a 88       	ldd	r8, Y+18	; 0x12
     fba:	85 87       	std	Z+13, r24	; 0x0d
     fbc:	80 6f       	ori	r24, 0xF0	; 240
     fbe:	6e 74       	andi	r22, 0x4E	; 78
     fc0:	7f 88       	ldd	r7, Y+23	; 0x17
     fc2:	96 9a       	sbi	0x12, 6	; 18
     fc4:	99 9d       	mul	r25, r9
     fc6:	a6 96       	adiw	r28, 0x26	; 38
     fc8:	71 59       	subi	r23, 0x91	; 145
     fca:	54 54       	subi	r21, 0x44	; 68
     fcc:	56 6c       	ori	r21, 0xC6	; 198
     fce:	83 89       	ldd	r24, Z+19	; 0x13
     fd0:	87 8f       	std	Z+31, r24	; 0x1f
     fd2:	98 9d       	mul	r25, r8
     fd4:	93 89       	ldd	r25, Z+19	; 0x13
     fd6:	89 80       	ldd	r8, Y+1	; 0x01
     fd8:	69 6a       	ori	r22, 0xA9	; 169
     fda:	74 75       	andi	r23, 0x54	; 84
     fdc:	79 72       	andi	r23, 0x29	; 41
     fde:	76 7a       	andi	r23, 0xA6	; 166
     fe0:	81 92       	st	Z+, r8
     fe2:	8a 7a       	andi	r24, 0xAA	; 170
     fe4:	64 64       	ori	r22, 0x44	; 68
     fe6:	6f 6d       	ori	r22, 0xDF	; 223
     fe8:	7f 84       	ldd	r7, Y+15	; 0x0f
     fea:	85 89       	ldd	r24, Z+21	; 0x15
     fec:	8e 9c       	mul	r8, r14
     fee:	aa aa       	std	Y+50, r10	; 0x32
     ff0:	a4 94       	.word	0x94a4	; ????
     ff2:	8d 7f       	andi	r24, 0xFD	; 253
     ff4:	6c 6e       	ori	r22, 0xEC	; 236
     ff6:	5f 62       	ori	r21, 0x2F	; 47
     ff8:	67 6e       	ori	r22, 0xE7	; 231
     ffa:	7e 8a       	std	Y+22, r7	; 0x16
     ffc:	8f 87       	std	Y+15, r24	; 0x0f
     ffe:	7d 6b       	ori	r23, 0xBD	; 189
    1000:	69 70       	andi	r22, 0x09	; 9
    1002:	69 6e       	ori	r22, 0xE9	; 233
    1004:	75 81       	ldd	r23, Z+5	; 0x05
    1006:	87 8e       	std	Z+31, r8	; 0x1f
    1008:	96 9c       	mul	r9, r6
    100a:	a1 95       	neg	r26
    100c:	98 8e       	std	Y+24, r9	; 0x18
    100e:	84 77       	andi	r24, 0x74	; 116
    1010:	64 65       	ori	r22, 0x54	; 84
    1012:	60 6b       	ori	r22, 0xB0	; 176
    1014:	76 76       	andi	r23, 0x66	; 102
    1016:	81 89       	ldd	r24, Z+17	; 0x11
    1018:	96 8f       	std	Z+30, r25	; 0x1e
    101a:	8d 95 8f 81 	jmp	0x63031e	; 0x63031e <__data_load_end+0x61daf4>
    101e:	60 69       	ori	r22, 0x90	; 144
    1020:	6e 6d       	ori	r22, 0xDE	; 222
    1022:	73 73       	andi	r23, 0x33	; 51
    1024:	79 88       	ldd	r7, Y+17	; 0x11
    1026:	92 9a       	sbi	0x12, 2	; 18
    1028:	92 84       	ldd	r9, Z+10	; 0x0a
    102a:	71 5a       	subi	r23, 0xA1	; 161
    102c:	59 76       	andi	r21, 0x69	; 105
    102e:	86 82       	std	Z+6, r8	; 0x06
    1030:	79 8f       	std	Y+25, r23	; 0x19
    1032:	9b a3       	std	Y+35, r25	; 0x23
    1034:	a2 92       	st	-Z, r10
    1036:	92 7b       	andi	r25, 0xB2	; 178
    1038:	7b 79       	andi	r23, 0x9B	; 155
    103a:	6e 79       	andi	r22, 0x9E	; 158
    103c:	77 78       	andi	r23, 0x87	; 135
    103e:	75 72       	andi	r23, 0x25	; 37
    1040:	8a 8c       	ldd	r8, Y+26	; 0x1a
    1042:	8b 85       	ldd	r24, Y+11	; 0x0b
    1044:	83 7f       	andi	r24, 0xF3	; 243
    1046:	6f 76       	andi	r22, 0x6F	; 111
    1048:	73 6a       	ori	r23, 0xA3	; 163
    104a:	5f 5e       	subi	r21, 0xEF	; 239
    104c:	74 85       	ldd	r23, Z+12	; 0x0c
    104e:	8b 91       	.word	0x918b	; ????
    1050:	93 8e       	std	Z+27, r9	; 0x1b
    1052:	8e 8d       	ldd	r24, Y+30	; 0x1e
    1054:	88 83       	st	Y, r24
    1056:	7c 79       	andi	r23, 0x9C	; 156
    1058:	7f 81       	ldd	r23, Y+7	; 0x07
    105a:	83 86       	std	Z+11, r8	; 0x0b
    105c:	85 91       	lpm	r24, Z+
    105e:	88 7e       	andi	r24, 0xE8	; 232
    1060:	80 7c       	andi	r24, 0xC0	; 192
    1062:	7c 6a       	ori	r23, 0xAC	; 172
    1064:	68 6a       	ori	r22, 0xA8	; 168
    1066:	71 7b       	andi	r23, 0xB1	; 177
    1068:	7d 7d       	andi	r23, 0xDD	; 221
    106a:	7d 84       	ldd	r7, Y+13	; 0x0d
    106c:	82 82       	std	Z+2, r8	; 0x02
    106e:	85 81       	ldd	r24, Z+5	; 0x05
    1070:	85 8e       	std	Z+29, r8	; 0x1d
    1072:	88 83       	st	Y, r24
    1074:	75 66       	ori	r23, 0x65	; 101
    1076:	72 82       	std	Z+2, r7	; 0x02
    1078:	89 88       	ldd	r8, Y+17	; 0x11
    107a:	83 81       	ldd	r24, Z+3	; 0x03
    107c:	89 8d       	ldd	r24, Y+25	; 0x19
    107e:	84 7b       	andi	r24, 0xB4	; 180
    1080:	73 71       	andi	r23, 0x13	; 19
    1082:	7a 81       	ldd	r23, Y+2	; 0x02
    1084:	89 8b       	std	Y+17, r24	; 0x11
    1086:	8f 8b       	std	Y+23, r24	; 0x17
    1088:	90 91 83 7a 	lds	r25, 0x7A83
    108c:	7f 7a       	andi	r23, 0xAF	; 175
    108e:	70 64       	ori	r23, 0x40	; 64
    1090:	68 76       	andi	r22, 0x68	; 104
    1092:	75 74       	andi	r23, 0x45	; 69
    1094:	69 68       	ori	r22, 0x89	; 137
    1096:	6b 79       	andi	r22, 0x9B	; 155
    1098:	85 84       	ldd	r8, Z+13	; 0x0d
    109a:	84 86       	std	Z+12, r8	; 0x0c
    109c:	8b 97       	sbiw	r24, 0x2b	; 43
    109e:	9e 99       	sbic	0x13, 6	; 19
    10a0:	89 7f       	andi	r24, 0xF9	; 249
    10a2:	83 89       	ldd	r24, Z+19	; 0x13
    10a4:	8c 83       	std	Y+4, r24	; 0x04
    10a6:	80 7b       	andi	r24, 0xB0	; 176
    10a8:	72 6b       	ori	r23, 0xB2	; 178
    10aa:	6b 6d       	ori	r22, 0xDB	; 219
    10ac:	77 76       	andi	r23, 0x67	; 103
    10ae:	73 6d       	ori	r23, 0xD3	; 211
    10b0:	80 8a       	std	Z+16, r8	; 0x10
    10b2:	8b 8a       	std	Y+19, r8	; 0x13
    10b4:	82 86       	std	Z+10, r8	; 0x0a
    10b6:	80 7c       	andi	r24, 0xC0	; 192
    10b8:	8b 8d       	ldd	r24, Y+27	; 0x1b
    10ba:	7e 77       	andi	r23, 0x7E	; 126
    10bc:	75 7b       	andi	r23, 0xB5	; 181
    10be:	7b 74       	andi	r23, 0x4B	; 75
    10c0:	72 7d       	andi	r23, 0xD2	; 210
    10c2:	80 91 92 89 	lds	r24, 0x8992
    10c6:	8a 8d       	ldd	r24, Y+26	; 0x1a
    10c8:	93 8f       	std	Z+27, r25	; 0x1b
    10ca:	86 82       	std	Z+6, r8	; 0x06
    10cc:	7e 75       	andi	r23, 0x5E	; 94
    10ce:	7e 7f       	andi	r23, 0xFE	; 254
    10d0:	80 78       	andi	r24, 0x80	; 128
    10d2:	7c 7f       	andi	r23, 0xFC	; 252
    10d4:	75 6e       	ori	r23, 0xE5	; 229
    10d6:	74 74       	andi	r23, 0x44	; 68
    10d8:	75 78       	andi	r23, 0x85	; 133
    10da:	7f 7a       	andi	r23, 0xAF	; 175
    10dc:	75 86       	std	Z+13, r7	; 0x0d
    10de:	88 89       	ldd	r24, Y+16	; 0x10
    10e0:	7f 7b       	andi	r23, 0xBF	; 191
    10e2:	7c 7c       	andi	r23, 0xCC	; 204
    10e4:	85 91       	lpm	r24, Z+
    10e6:	8d 83       	std	Y+5, r24	; 0x05
    10e8:	86 8d       	ldd	r24, Z+30	; 0x1e
    10ea:	8a 80       	ldd	r8, Y+2	; 0x02
    10ec:	75 75       	andi	r23, 0x55	; 85
    10ee:	7c 81       	ldd	r23, Y+4	; 0x04
    10f0:	89 8d       	ldd	r24, Y+25	; 0x19
    10f2:	83 74       	andi	r24, 0x43	; 67
    10f4:	7d 82       	std	Y+5, r7	; 0x05
    10f6:	80 79       	andi	r24, 0x90	; 144
    10f8:	6e 78       	andi	r22, 0x8E	; 142
    10fa:	84 86       	std	Z+12, r8	; 0x0c
    10fc:	86 7d       	andi	r24, 0xD6	; 214
    10fe:	7a 80       	ldd	r7, Y+2	; 0x02
    1100:	75 75       	andi	r23, 0x55	; 85
    1102:	74 72       	andi	r23, 0x24	; 36
    1104:	7d 81       	ldd	r23, Y+5	; 0x05
    1106:	7a 73       	andi	r23, 0x3A	; 58
    1108:	6e 78       	andi	r22, 0x8E	; 142
    110a:	83 89       	ldd	r24, Z+19	; 0x13
    110c:	91 8d       	ldd	r25, Z+25	; 0x19
    110e:	83 80       	ldd	r8, Z+3	; 0x03
    1110:	8f 94 8e 7e 	call	0x22fd1c	; 0x22fd1c <__data_load_end+0x21d4f2>
    1114:	73 77       	andi	r23, 0x73	; 115
    1116:	81 82       	std	Z+1, r8	; 0x01
    1118:	7c 78       	andi	r23, 0x8C	; 140
    111a:	7d 85       	ldd	r23, Y+13	; 0x0d
    111c:	82 79       	andi	r24, 0x92	; 146
    111e:	7b 7b       	andi	r23, 0xBB	; 187
    1120:	7a 7a       	andi	r23, 0xAA	; 170
    1122:	72 71       	andi	r23, 0x12	; 18
    1124:	72 73       	andi	r23, 0x32	; 50
    1126:	7f 82       	std	Y+7, r7	; 0x07
    1128:	7c 7b       	andi	r23, 0xBC	; 188
    112a:	76 75       	andi	r23, 0x56	; 86
    112c:	75 81       	ldd	r23, Z+5	; 0x05
    112e:	84 7d       	andi	r24, 0xD4	; 212
    1130:	84 94       	.word	0x9484	; ????
    1132:	a2 97       	sbiw	r28, 0x22	; 34
    1134:	8c 8b       	std	Y+20, r24	; 0x14
    1136:	8d 8f       	std	Y+29, r24	; 0x1d
    1138:	87 83       	std	Z+7, r24	; 0x07
    113a:	80 73       	andi	r24, 0x30	; 48
    113c:	7a 7b       	andi	r23, 0xBA	; 186
    113e:	73 70       	andi	r23, 0x03	; 3
    1140:	6d 70       	andi	r22, 0x0D	; 13
    1142:	6d 74       	andi	r22, 0x4D	; 77
    1144:	7e 89       	ldd	r23, Y+22	; 0x16
    1146:	84 7e       	andi	r24, 0xE4	; 228
    1148:	84 88       	ldd	r8, Z+20	; 0x14
    114a:	7c 71       	andi	r23, 0x1C	; 28
    114c:	76 81       	ldd	r23, Z+6	; 0x06
    114e:	90 88       	ldd	r9, Z+16	; 0x10
    1150:	81 7f       	andi	r24, 0xF1	; 241
    1152:	89 95       	.word	0x9589	; ????
    1154:	8f 84       	ldd	r8, Y+15	; 0x0f
    1156:	78 75       	andi	r23, 0x58	; 88
    1158:	7c 7a       	andi	r23, 0xAC	; 172
    115a:	83 83       	std	Z+3, r24	; 0x03
    115c:	89 86       	std	Y+9, r8	; 0x09
    115e:	76 81       	ldd	r23, Z+6	; 0x06
    1160:	7b 80       	ldd	r7, Y+3	; 0x03
    1162:	72 6f       	ori	r23, 0xF2	; 242
    1164:	84 80       	ldd	r8, Z+4	; 0x04
    1166:	7d 7b       	andi	r23, 0xBD	; 189
    1168:	7d 91       	ld	r23, X+
    116a:	91 8a       	std	Z+17, r9	; 0x11
    116c:	7d 7b       	andi	r23, 0xBD	; 189
    116e:	7e 7e       	andi	r23, 0xEE	; 238
    1170:	7c 6d       	ori	r23, 0xDC	; 220
    1172:	6f 6e       	ori	r22, 0xEF	; 239
    1174:	65 67       	ori	r22, 0x75	; 117
    1176:	6c 78       	andi	r22, 0x8C	; 140
    1178:	8a 94       	dec	r8
    117a:	96 98       	cbi	0x12, 6	; 18
    117c:	93 8f       	std	Z+27, r25	; 0x1b
    117e:	8c 93       	st	X, r24
    1180:	8d 82       	std	Y+5, r8	; 0x05
    1182:	7d 79       	andi	r23, 0x9D	; 157
    1184:	8f 94 87 85 	call	0x230b0e	; 0x230b0e <__data_load_end+0x21e2e4>
    1188:	7a 73       	andi	r23, 0x3A	; 58
    118a:	69 65       	ori	r22, 0x59	; 89
    118c:	67 68       	ori	r22, 0x87	; 135
    118e:	63 70       	andi	r22, 0x03	; 3
    1190:	73 7a       	andi	r23, 0xA3	; 163
    1192:	7b 7f       	andi	r23, 0xFB	; 251
    1194:	8c 89       	ldd	r24, Y+20	; 0x14
    1196:	84 82       	std	Z+4, r8	; 0x04
    1198:	7f 7d       	andi	r23, 0xDF	; 223
    119a:	88 8b       	std	Y+16, r24	; 0x10
    119c:	83 84       	ldd	r8, Z+11	; 0x0b
    119e:	88 8d       	ldd	r24, Y+24	; 0x18
    11a0:	93 80       	ldd	r9, Z+3	; 0x03
    11a2:	80 86       	std	Z+8, r8	; 0x08
    11a4:	7f 7b       	andi	r23, 0xBF	; 191
    11a6:	75 76       	andi	r23, 0x65	; 101
    11a8:	78 6f       	ori	r23, 0xF8	; 248
    11aa:	6c 78       	andi	r22, 0x8C	; 140
    11ac:	7b 7b       	andi	r23, 0xBB	; 187
    11ae:	7e 8d       	ldd	r23, Y+30	; 0x1e
    11b0:	91 8c       	ldd	r9, Z+25	; 0x19
    11b2:	83 7c       	andi	r24, 0xC3	; 195
    11b4:	81 77       	andi	r24, 0x71	; 113
    11b6:	7d 78       	andi	r23, 0x8D	; 141
    11b8:	6e 7b       	andi	r22, 0xBE	; 190
    11ba:	88 93       	.word	0x9388	; ????
    11bc:	8e 7b       	andi	r24, 0xBE	; 190
    11be:	79 7a       	andi	r23, 0xA9	; 169
    11c0:	74 77       	andi	r23, 0x74	; 116
    11c2:	81 89       	ldd	r24, Z+17	; 0x11
    11c4:	8b 98       	cbi	0x11, 3	; 17
    11c6:	94 92       	xch	Z, r9
    11c8:	92 7b       	andi	r25, 0xB2	; 178
    11ca:	7f 70       	andi	r23, 0x0F	; 15
    11cc:	6e 68       	ori	r22, 0x8E	; 142
    11ce:	63 71       	andi	r22, 0x13	; 19
    11d0:	79 7f       	andi	r23, 0xF9	; 249
    11d2:	7b 73       	andi	r23, 0x3B	; 59
    11d4:	7d 80       	ldd	r7, Y+5	; 0x05
    11d6:	84 80       	ldd	r8, Z+4	; 0x04
    11d8:	8a 93       	st	-Y, r24
    11da:	7c 86       	std	Y+12, r7	; 0x0c
    11dc:	74 77       	andi	r23, 0x74	; 116
    11de:	86 82       	std	Z+6, r8	; 0x06
    11e0:	88 8c       	ldd	r8, Y+24	; 0x18
    11e2:	85 8a       	std	Z+21, r8	; 0x15
    11e4:	81 91       	ld	r24, Z+
    11e6:	8e 8c       	ldd	r8, Y+30	; 0x1e
    11e8:	72 71       	andi	r23, 0x12	; 18
    11ea:	75 98       	cbi	0x0e, 5	; 14
    11ec:	7d 7c       	andi	r23, 0xCD	; 205
    11ee:	a8 7c       	andi	r26, 0xC8	; 200
    11f0:	8b 7d       	andi	r24, 0xDB	; 219
    11f2:	71 70       	andi	r23, 0x01	; 1
    11f4:	63 57       	subi	r22, 0x73	; 115
    11f6:	68 4e       	sbci	r22, 0xE8	; 232
    11f8:	66 6d       	ori	r22, 0xD6	; 214
    11fa:	8e 8f       	std	Y+30, r24	; 0x1e
    11fc:	8b 92       	.word	0x928b	; ????
    11fe:	72 93       	st	-Z, r23
    1200:	85 86       	std	Z+13, r8	; 0x0d
    1202:	8a 81       	ldd	r24, Y+2	; 0x02
    1204:	83 9a       	sbi	0x10, 3	; 16
    1206:	85 80       	ldd	r8, Z+5	; 0x05
    1208:	a9 8a       	std	Y+17, r10	; 0x11
    120a:	84 96       	adiw	r24, 0x24	; 36
    120c:	7e 98       	cbi	0x0f, 6	; 15
    120e:	7f 7e       	andi	r23, 0xEF	; 239
    1210:	7b 3d       	cpi	r23, 0xDB	; 219
    1212:	75 65       	ori	r23, 0x55	; 85
    1214:	64 60       	ori	r22, 0x04	; 4
    1216:	79 a0       	ldd	r7, Y+33	; 0x21
    1218:	72 8e       	std	Z+26, r7	; 0x1a
    121a:	8a 9f       	mul	r24, r26
    121c:	89 67       	ori	r24, 0x79	; 121
    121e:	65 6a       	ori	r22, 0xA5	; 165
    1220:	7b 65       	ori	r23, 0x5B	; 91
    1222:	71 6d       	ori	r23, 0xD1	; 209
    1224:	76 7e       	andi	r23, 0xE6	; 230
    1226:	7e 7d       	andi	r23, 0xDE	; 222
    1228:	78 7f       	andi	r23, 0xF8	; 248
    122a:	74 6b       	ori	r23, 0xB4	; 180
    122c:	73 77       	andi	r23, 0x73	; 115
    122e:	7f 89       	ldd	r23, Y+23	; 0x17
    1230:	9f a3       	std	Y+39, r25	; 0x27
    1232:	9e aa       	std	Y+54, r9	; 0x36
    1234:	ab 9b       	sbis	0x15, 3	; 21
    1236:	a3 9d       	mul	r26, r3
    1238:	8b 8e       	std	Y+27, r8	; 0x1b
    123a:	81 84       	ldd	r8, Z+9	; 0x09
    123c:	90 86       	std	Z+8, r9	; 0x08
    123e:	8d 8c       	ldd	r8, Y+29	; 0x1d
    1240:	8a 92       	st	-Y, r8
    1242:	89 87       	std	Y+9, r24	; 0x09
    1244:	7f 77       	andi	r23, 0x7F	; 127
    1246:	73 60       	ori	r23, 0x03	; 3
    1248:	5d 4f       	sbci	r21, 0xFD	; 253
    124a:	59 68       	ori	r21, 0x89	; 137
    124c:	5f 60       	ori	r21, 0x0F	; 15
    124e:	64 61       	ori	r22, 0x14	; 20
    1250:	68 60       	ori	r22, 0x08	; 8
    1252:	54 53       	subi	r21, 0x34	; 52
    1254:	4e 54       	subi	r20, 0x4E	; 78
    1256:	50 58       	subi	r21, 0x80	; 128
    1258:	60 60       	ori	r22, 0x00	; 0
    125a:	6b 75       	andi	r22, 0x5B	; 91
    125c:	78 7c       	andi	r23, 0xC8	; 200
    125e:	76 7a       	andi	r23, 0xA6	; 166
    1260:	83 84       	ldd	r8, Z+11	; 0x0b
    1262:	84 89       	ldd	r24, Z+20	; 0x14
    1264:	98 a5       	ldd	r25, Y+40	; 0x28
    1266:	ad b3       	in	r26, 0x1d	; 29
    1268:	bf ca       	rjmp	.-2690   	; 0x7e8 <__trampolines_end+0x652>
    126a:	c6 c2       	rjmp	.+1420   	; 0x17f8 <__trampolines_end+0x1662>
    126c:	be bd       	out	0x2e, r27	; 46
    126e:	be b3       	in	r27, 0x1e	; 30
    1270:	b1 b2       	in	r11, 0x11	; 17
    1272:	b3 b4       	in	r11, 0x23	; 35
    1274:	b2 aa       	std	Z+50, r11	; 0x32
    1276:	a6 a2       	std	Z+38, r10	; 0x26
    1278:	93 8b       	std	Z+19, r25	; 0x13
    127a:	89 82       	std	Y+1, r8	; 0x01
    127c:	75 69       	ori	r23, 0x95	; 149
    127e:	69 71       	andi	r22, 0x19	; 25
    1280:	66 5a       	subi	r22, 0xA6	; 166
    1282:	54 52       	subi	r21, 0x24	; 36
    1284:	50 45       	sbci	r21, 0x50	; 80
    1286:	41 41       	sbci	r20, 0x11	; 17
    1288:	3e 3c       	cpi	r19, 0xCE	; 206
    128a:	3e 39       	cpi	r19, 0x9E	; 158
    128c:	3b 3f       	cpi	r19, 0xFB	; 251
    128e:	45 4a       	sbci	r20, 0xA5	; 165
    1290:	4a 4f       	sbci	r20, 0xFA	; 250
    1292:	53 4e       	sbci	r21, 0xE3	; 227
    1294:	53 5d       	subi	r21, 0xD3	; 211
    1296:	5c 62       	ori	r21, 0x2C	; 44
    1298:	63 78       	andi	r22, 0x83	; 131
    129a:	85 84       	ldd	r8, Z+13	; 0x0d
    129c:	8e 9b       	sbis	0x11, 6	; 17
    129e:	a3 a0       	ldd	r10, Z+35	; 0x23
    12a0:	98 98       	cbi	0x13, 0	; 19
    12a2:	97 a0       	ldd	r9, Z+39	; 0x27
    12a4:	a8 ae       	std	Y+56, r10	; 0x38
    12a6:	ae a6       	std	Y+46, r10	; 0x2e
    12a8:	b6 bc       	out	0x26, r11	; 38
    12aa:	b8 bb       	out	0x18, r27	; 24
    12ac:	af a8       	ldd	r10, Y+55	; 0x37
    12ae:	ac ae       	std	Y+60, r10	; 0x3c
    12b0:	b2 ac       	ldd	r11, Z+58	; 0x3a
    12b2:	af b5       	in	r26, 0x2f	; 47
    12b4:	bd b3       	in	r27, 0x1d	; 29
    12b6:	b2 b5       	in	r27, 0x22	; 34
    12b8:	b3 b1       	in	r27, 0x03	; 3
    12ba:	a6 9c       	mul	r10, r6
    12bc:	93 8a       	std	Z+19, r9	; 0x13
    12be:	83 84       	ldd	r8, Z+11	; 0x0b
    12c0:	77 6a       	ori	r23, 0xA7	; 167
    12c2:	66 65       	ori	r22, 0x56	; 86
    12c4:	6a 55       	subi	r22, 0x5A	; 90
    12c6:	51 51       	subi	r21, 0x11	; 17
    12c8:	45 41       	sbci	r20, 0x15	; 21
    12ca:	3b 3a       	cpi	r19, 0xAB	; 171
    12cc:	3d 40       	sbci	r19, 0x0D	; 13
    12ce:	47 51       	subi	r20, 0x17	; 23
    12d0:	50 52       	subi	r21, 0x20	; 32
    12d2:	57 56       	subi	r21, 0x67	; 103
    12d4:	57 4f       	sbci	r21, 0xF7	; 247
    12d6:	46 44       	sbci	r20, 0x46	; 70
    12d8:	48 4c       	sbci	r20, 0xC8	; 200
    12da:	51 55       	subi	r21, 0x51	; 81
    12dc:	58 65       	ori	r21, 0x58	; 88
    12de:	76 7c       	andi	r23, 0xC6	; 198
    12e0:	7c 7e       	andi	r23, 0xEC	; 236
    12e2:	84 84       	ldd	r8, Z+12	; 0x0c
    12e4:	8c 91       	ld	r24, X
    12e6:	97 96       	adiw	r26, 0x27	; 39
    12e8:	a1 a7       	std	Z+41, r26	; 0x29
    12ea:	a4 a6       	std	Z+44, r10	; 0x2c
    12ec:	a4 ab       	std	Z+52, r26	; 0x34
    12ee:	a5 aa       	std	Z+53, r10	; 0x35
    12f0:	a2 a5       	ldd	r26, Z+42	; 0x2a
    12f2:	ac af       	std	Y+60, r26	; 0x3c
    12f4:	b4 b0       	in	r11, 0x04	; 4
    12f6:	b1 b1       	in	r27, 0x01	; 1
    12f8:	b1 b3       	in	r27, 0x11	; 17
    12fa:	b2 ac       	ldd	r11, Z+58	; 0x3a
    12fc:	a5 a4       	ldd	r10, Z+45	; 0x2d
    12fe:	9c 99       	sbic	0x13, 4	; 19
    1300:	99 97       	sbiw	r26, 0x29	; 41
    1302:	93 98       	cbi	0x12, 3	; 18
    1304:	9c 9d       	mul	r25, r12
    1306:	98 93       	.word	0x9398	; ????
    1308:	90 86       	std	Z+8, r9	; 0x08
    130a:	84 76       	andi	r24, 0x64	; 100
    130c:	71 6f       	ori	r23, 0xF1	; 241
    130e:	6f 62       	ori	r22, 0x2F	; 47
    1310:	5b 5d       	subi	r21, 0xDB	; 219
    1312:	60 59       	subi	r22, 0x90	; 144
    1314:	4c 4e       	sbci	r20, 0xEC	; 236
    1316:	48 4b       	sbci	r20, 0xB8	; 184
    1318:	47 48       	sbci	r20, 0x87	; 135
    131a:	4f 52       	subi	r20, 0x2F	; 47
    131c:	54 55       	subi	r21, 0x54	; 84
    131e:	5d 61       	ori	r21, 0x1D	; 29
    1320:	5d 60       	ori	r21, 0x0D	; 13
    1322:	57 52       	subi	r21, 0x27	; 39
    1324:	59 5a       	subi	r21, 0xA9	; 169
    1326:	5f 60       	ori	r21, 0x0F	; 15
    1328:	67 71       	andi	r22, 0x17	; 23
    132a:	67 66       	ori	r22, 0x67	; 103
    132c:	6d 6d       	ori	r22, 0xDD	; 221
    132e:	6e 72       	andi	r22, 0x2E	; 46
    1330:	6e 6f       	ori	r22, 0xFE	; 254
    1332:	72 7c       	andi	r23, 0xC2	; 194
    1334:	8b 92       	.word	0x928b	; ????
    1336:	9d 9d       	mul	r25, r13
    1338:	a6 b3       	in	r26, 0x16	; 22
    133a:	b9 b3       	in	r27, 0x19	; 25
    133c:	b1 ad       	ldd	r27, Z+57	; 0x39
    133e:	a2 9b       	sbis	0x14, 2	; 20
    1340:	9e 9f       	mul	r25, r30
    1342:	a0 9b       	sbis	0x14, 0	; 20
    1344:	9b a0       	ldd	r9, Y+35	; 0x23
    1346:	a3 a1       	ldd	r26, Z+35	; 0x23
    1348:	a3 a8       	ldd	r10, Z+51	; 0x33
    134a:	a7 9d       	mul	r26, r7
    134c:	95 95       	asr	r25
    134e:	98 94       	clz
    1350:	98 9e       	mul	r9, r24
    1352:	96 9a       	sbi	0x12, 6	; 18
    1354:	94 91       	lpm	r25, Z
    1356:	8c 7f       	andi	r24, 0xFC	; 252
    1358:	74 6a       	ori	r23, 0xA4	; 164
    135a:	69 6e       	ori	r22, 0xE9	; 233
    135c:	6a 67       	ori	r22, 0x7A	; 122
    135e:	70 73       	andi	r23, 0x30	; 48
    1360:	70 68       	ori	r23, 0x80	; 128
    1362:	64 67       	ori	r22, 0x74	; 116
    1364:	6a 5e       	subi	r22, 0xEA	; 234
    1366:	53 4e       	sbci	r21, 0xE3	; 227
    1368:	51 51       	subi	r21, 0x11	; 17
    136a:	53 5b       	subi	r21, 0xB3	; 179
    136c:	67 69       	ori	r22, 0x97	; 151
    136e:	6c 71       	andi	r22, 0x1C	; 28
    1370:	7b 7b       	andi	r23, 0xBB	; 187
    1372:	7a 6d       	ori	r23, 0xDA	; 218
    1374:	60 63       	ori	r22, 0x30	; 48
    1376:	69 67       	ori	r22, 0x79	; 121
    1378:	5f 62       	ori	r21, 0x2F	; 47
    137a:	66 6b       	ori	r22, 0xB6	; 182
    137c:	70 73       	andi	r23, 0x30	; 48
    137e:	78 7d       	andi	r23, 0xD8	; 216
    1380:	7a 74       	andi	r23, 0x4A	; 74
    1382:	73 7d       	andi	r23, 0xD3	; 211
    1384:	80 89       	ldd	r24, Z+16	; 0x10
    1386:	8e 94 99 9c 	call	0x213932	; 0x213932 <__data_load_end+0x201108>
    138a:	a5 a5       	ldd	r26, Z+45	; 0x2d
    138c:	9f 9f       	mul	r25, r31
    138e:	99 93       	st	Y+, r25
    1390:	94 a1       	ldd	r25, Z+36	; 0x24
    1392:	9e 98       	cbi	0x13, 6	; 19
    1394:	9d a1       	ldd	r25, Y+37	; 0x25
    1396:	a9 a4       	ldd	r10, Y+41	; 0x29
    1398:	9d 9d       	mul	r25, r13
    139a:	9d 9d       	mul	r25, r13
    139c:	96 8b       	std	Z+22, r25	; 0x16
    139e:	8c 87       	std	Y+12, r24	; 0x0c
    13a0:	8d 97       	sbiw	r24, 0x2d	; 45
    13a2:	93 8d       	ldd	r25, Z+27	; 0x1b
    13a4:	90 96       	adiw	r26, 0x20	; 32
    13a6:	97 96       	adiw	r26, 0x27	; 39
    13a8:	8b 83       	std	Y+3, r24	; 0x03
    13aa:	77 6f       	ori	r23, 0xF7	; 247
    13ac:	75 6f       	ori	r23, 0xF5	; 245
    13ae:	60 5d       	subi	r22, 0xD0	; 208
    13b0:	65 6f       	ori	r22, 0xF5	; 245
    13b2:	72 6a       	ori	r23, 0xA2	; 162
    13b4:	65 6c       	ori	r22, 0xC5	; 197
    13b6:	6d 6f       	ori	r22, 0xFD	; 253
    13b8:	6b 6a       	ori	r22, 0xAB	; 171
    13ba:	6c 70       	andi	r22, 0x0C	; 12
    13bc:	70 74       	andi	r23, 0x40	; 64
    13be:	6f 6b       	ori	r22, 0xBF	; 191
    13c0:	71 6b       	ori	r23, 0xB1	; 177
    13c2:	6a 5c       	subi	r22, 0xCA	; 202
    13c4:	55 5b       	subi	r21, 0xB5	; 181
    13c6:	5d 63       	ori	r21, 0x3D	; 61
    13c8:	65 61       	ori	r22, 0x15	; 21
    13ca:	5f 6a       	ori	r21, 0xAF	; 175
    13cc:	77 7e       	andi	r23, 0xE7	; 231
    13ce:	79 74       	andi	r23, 0x49	; 73
    13d0:	7a 78       	andi	r23, 0x8A	; 138
    13d2:	7b 7a       	andi	r23, 0xAB	; 171
    13d4:	7a 78       	andi	r23, 0x8A	; 138
    13d6:	7a 81       	ldd	r23, Y+2	; 0x02
    13d8:	87 8a       	std	Z+23, r8	; 0x17
    13da:	8c 95 a4 9f 	jmp	0x613f48	; 0x613f48 <__data_load_end+0x60171e>
    13de:	94 86       	std	Z+12, r9	; 0x0c
    13e0:	81 90       	ld	r8, Z+
    13e2:	8e 85       	ldd	r24, Y+14	; 0x0e
    13e4:	86 8b       	std	Z+22, r24	; 0x16
    13e6:	87 86       	std	Z+15, r8	; 0x0f
    13e8:	8c 95 9a 90 	jmp	0x612134	; 0x612134 <__data_load_end+0x5ff90a>
    13ec:	89 89       	ldd	r24, Y+17	; 0x11
    13ee:	8b 94       	des	8
    13f0:	90 97       	sbiw	r26, 0x20	; 32
    13f2:	97 99       	sbic	0x12, 7	; 18
    13f4:	92 94       	swap	r9
    13f6:	9a 9a       	sbi	0x13, 2	; 19
    13f8:	93 7e       	andi	r25, 0xE3	; 227
    13fa:	77 7d       	andi	r23, 0xD7	; 215
    13fc:	87 8c       	ldd	r8, Z+31	; 0x1f
    13fe:	83 88       	ldd	r8, Z+19	; 0x13
    1400:	98 99       	sbic	0x13, 0	; 19
    1402:	95 97       	sbiw	r26, 0x25	; 37
    1404:	98 93       	.word	0x9398	; ????
    1406:	8c 88       	ldd	r8, Y+20	; 0x14
    1408:	84 7b       	andi	r24, 0xB4	; 180
    140a:	72 68       	ori	r23, 0x82	; 130
    140c:	7a 7d       	andi	r23, 0xDA	; 218
    140e:	7a 78       	andi	r23, 0x8A	; 138
    1410:	74 7f       	andi	r23, 0xF4	; 244
    1412:	7c 7c       	andi	r23, 0xCC	; 204
    1414:	6c 65       	ori	r22, 0x5C	; 92
    1416:	63 5b       	subi	r22, 0xB3	; 179
    1418:	61 61       	ori	r22, 0x11	; 17
    141a:	56 5d       	subi	r21, 0xD6	; 214
    141c:	6a 74       	andi	r22, 0x4A	; 74
    141e:	6d 64       	ori	r22, 0x4D	; 77
    1420:	6b 7e       	andi	r22, 0xEB	; 235
    1422:	75 6a       	ori	r23, 0xA5	; 165
    1424:	69 70       	andi	r22, 0x09	; 9
    1426:	7c 7d       	andi	r23, 0xDC	; 220
    1428:	7a 75       	andi	r23, 0x5A	; 90
    142a:	73 77       	andi	r23, 0x73	; 115
    142c:	72 69       	ori	r23, 0x92	; 146
    142e:	64 5d       	subi	r22, 0xD4	; 212
    1430:	55 51       	subi	r21, 0x15	; 21
    1432:	60 69       	ori	r22, 0x90	; 144
    1434:	6c 6f       	ori	r22, 0xFC	; 252
    1436:	6f 88       	ldd	r6, Y+23	; 0x17
    1438:	97 91       	elpm	r25, Z+
    143a:	8d 85       	ldd	r24, Y+13	; 0x0d
    143c:	95 91       	lpm	r25, Z+
    143e:	74 6f       	ori	r23, 0xF4	; 244
    1440:	7c 8b       	std	Y+20, r23	; 0x14
    1442:	8a 83       	std	Y+2, r24	; 0x02
    1444:	80 86       	std	Z+8, r8	; 0x08
    1446:	8e 8f       	std	Y+30, r24	; 0x1e
    1448:	94 9b       	sbis	0x12, 4	; 18
    144a:	98 90       	.word	0x9098	; ????
    144c:	8a 8b       	std	Y+18, r24	; 0x12
    144e:	8a 91       	ld	r24, -Y
    1450:	90 8d       	ldd	r25, Z+24	; 0x18
    1452:	93 8a       	std	Z+19, r9	; 0x13
    1454:	8f 97       	sbiw	r24, 0x2f	; 47
    1456:	99 a0       	ldd	r9, Y+33	; 0x21
    1458:	94 89       	ldd	r25, Z+20	; 0x14
    145a:	85 8f       	std	Z+29, r24	; 0x1d
    145c:	99 a3       	std	Y+33, r25	; 0x21
    145e:	9b 95       	.word	0x959b	; ????
    1460:	95 95       	asr	r25
    1462:	91 8b       	std	Z+17, r25	; 0x11
    1464:	8c 7e       	andi	r24, 0xEC	; 236
    1466:	7c 7a       	andi	r23, 0xAC	; 172
    1468:	74 75       	andi	r23, 0x54	; 84
    146a:	79 86       	std	Y+9, r7	; 0x09
    146c:	8e 8f       	std	Y+30, r24	; 0x1e
    146e:	8e 8c       	ldd	r8, Y+30	; 0x1e
    1470:	92 98       	cbi	0x12, 2	; 18
    1472:	9f 9b       	sbis	0x13, 7	; 19
    1474:	8e 81       	ldd	r24, Y+6	; 0x06
    1476:	87 7c       	andi	r24, 0xC7	; 199
    1478:	72 77       	andi	r23, 0x72	; 114
    147a:	6f 6b       	ori	r22, 0xBF	; 191
    147c:	66 63       	ori	r22, 0x36	; 54
    147e:	67 6e       	ori	r22, 0xE7	; 231
    1480:	69 64       	ori	r22, 0x49	; 73
    1482:	65 65       	ori	r22, 0x55	; 85
    1484:	64 66       	ori	r22, 0x64	; 100
    1486:	65 70       	andi	r22, 0x05	; 5
    1488:	75 71       	andi	r23, 0x15	; 21
    148a:	6d 70       	andi	r22, 0x0D	; 13
    148c:	75 79       	andi	r23, 0x95	; 149
    148e:	79 73       	andi	r23, 0x39	; 57
    1490:	6b 73       	andi	r22, 0x3B	; 59
    1492:	7c 75       	andi	r23, 0x5C	; 92
    1494:	6f 6a       	ori	r22, 0xAF	; 175
    1496:	6b 74       	andi	r22, 0x4B	; 75
    1498:	72 6a       	ori	r23, 0xA2	; 162
    149a:	70 66       	ori	r23, 0x60	; 96
    149c:	6a 71       	andi	r22, 0x1A	; 26
    149e:	6e 6f       	ori	r22, 0xFE	; 254
    14a0:	66 6b       	ori	r22, 0xB6	; 182
    14a2:	6a 72       	andi	r22, 0x2A	; 42
    14a4:	7f 79       	andi	r23, 0x9F	; 159
    14a6:	80 7f       	andi	r24, 0xF0	; 240
    14a8:	89 90       	ld	r8, Y+
    14aa:	8f 89       	ldd	r24, Y+23	; 0x17
    14ac:	83 88       	ldd	r8, Z+19	; 0x13
    14ae:	8f 89       	ldd	r24, Y+23	; 0x17
    14b0:	81 7b       	andi	r24, 0xB1	; 177
    14b2:	8a 93       	st	-Y, r24
    14b4:	91 86       	std	Z+9, r9	; 0x09
    14b6:	8c 91       	ld	r24, X
    14b8:	8c 88       	ldd	r8, Y+20	; 0x14
    14ba:	82 87       	std	Z+10, r24	; 0x0a
    14bc:	8a 83       	std	Y+2, r24	; 0x02
    14be:	83 89       	ldd	r24, Z+19	; 0x13
    14c0:	8b 95       	.word	0x958b	; ????
    14c2:	98 99       	sbic	0x13, 0	; 19
    14c4:	9b 8f       	std	Y+27, r25	; 0x1b
    14c6:	94 99       	sbic	0x12, 4	; 18
    14c8:	98 9e       	mul	r9, r24
    14ca:	92 91       	ld	r25, -Z
    14cc:	89 8b       	std	Y+17, r24	; 0x11
    14ce:	91 8d       	ldd	r25, Z+25	; 0x19
    14d0:	8c 80       	ldd	r8, Y+4	; 0x04
    14d2:	83 82       	std	Z+3, r8	; 0x03
    14d4:	7b 80       	ldd	r7, Y+3	; 0x03
    14d6:	78 7d       	andi	r23, 0xD8	; 216
    14d8:	84 7c       	andi	r24, 0xC4	; 196
    14da:	86 84       	ldd	r8, Z+14	; 0x0e
    14dc:	8b 9f       	mul	r24, r27
    14de:	9a 98       	cbi	0x13, 2	; 19
    14e0:	8d 88       	ldd	r8, Y+21	; 0x15
    14e2:	8d 89       	ldd	r24, Y+21	; 0x15
    14e4:	89 7b       	andi	r24, 0xB9	; 185
    14e6:	78 78       	andi	r23, 0x88	; 136
    14e8:	69 65       	ori	r22, 0x59	; 89
    14ea:	6a 73       	andi	r22, 0x3A	; 58
    14ec:	72 67       	ori	r23, 0x72	; 114
    14ee:	68 69       	ori	r22, 0x98	; 152
    14f0:	67 6d       	ori	r22, 0xD7	; 215
    14f2:	6f 75       	andi	r22, 0x5F	; 95
    14f4:	6b 65       	ori	r22, 0x5B	; 91
    14f6:	6a 6e       	ori	r22, 0xEA	; 234
    14f8:	7c 89       	ldd	r23, Y+20	; 0x14
    14fa:	7f 76       	andi	r23, 0x6F	; 111
    14fc:	71 75       	andi	r23, 0x51	; 81
    14fe:	7a 80       	ldd	r7, Y+2	; 0x02
    1500:	7b 79       	andi	r23, 0x9B	; 155
    1502:	73 75       	andi	r23, 0x53	; 83
    1504:	7b 7d       	andi	r23, 0xDB	; 219
    1506:	7a 75       	andi	r23, 0x5A	; 90
    1508:	75 6e       	ori	r23, 0xE5	; 229
    150a:	65 5b       	subi	r22, 0xB5	; 181
    150c:	60 67       	ori	r22, 0x70	; 112
    150e:	6b 6a       	ori	r22, 0xAB	; 171
    1510:	67 6e       	ori	r22, 0xE7	; 231
    1512:	6f 6f       	ori	r22, 0xFF	; 255
    1514:	77 82       	std	Z+7, r7	; 0x07
    1516:	89 82       	std	Y+1, r8	; 0x01
    1518:	7f 81       	ldd	r23, Y+7	; 0x07
    151a:	87 95       	ror	r24
    151c:	93 8c       	ldd	r9, Z+27	; 0x1b
    151e:	84 82       	std	Z+4, r8	; 0x04
    1520:	8d 85       	ldd	r24, Y+13	; 0x0d
    1522:	7f 81       	ldd	r23, Y+7	; 0x07
    1524:	79 7b       	andi	r23, 0xB9	; 185
    1526:	76 74       	andi	r23, 0x46	; 70
    1528:	7e 80       	ldd	r7, Y+6	; 0x06
    152a:	88 8a       	std	Y+16, r8	; 0x10
    152c:	8a 90       	ld	r8, -Y
    152e:	89 90       	ld	r8, Y+
    1530:	90 92 95 92 	sts	0x9295, r9
    1534:	98 90       	.word	0x9098	; ????
    1536:	8b 8e       	std	Y+27, r8	; 0x1b
    1538:	97 94       	ror	r9
    153a:	89 87       	std	Y+9, r24	; 0x09
    153c:	8b 89       	ldd	r24, Y+19	; 0x13
    153e:	7d 79       	andi	r23, 0x9D	; 157
    1540:	81 83       	std	Z+1, r24	; 0x01
    1542:	84 86       	std	Z+12, r8	; 0x0c
    1544:	85 8c       	ldd	r8, Z+29	; 0x1d
    1546:	94 96       	adiw	r26, 0x24	; 36
    1548:	8e 8c       	ldd	r8, Y+30	; 0x1e
    154a:	8a 8b       	std	Y+18, r24	; 0x12
    154c:	8c 87       	std	Y+12, r24	; 0x0c
    154e:	8e 94 8b 87 	call	0x210f16	; 0x210f16 <__data_load_end+0x1fe6ec>
    1552:	89 8d       	ldd	r24, Y+25	; 0x19
    1554:	8c 82       	std	Y+4, r8	; 0x04
    1556:	73 7c       	andi	r23, 0xC3	; 195
    1558:	82 80       	ldd	r8, Z+2	; 0x02
    155a:	74 64       	ori	r23, 0x44	; 68
    155c:	67 6c       	ori	r22, 0xC7	; 199
    155e:	6e 69       	ori	r22, 0x9E	; 158
    1560:	5f 68       	ori	r21, 0x8F	; 143
    1562:	73 7e       	andi	r23, 0xE3	; 227
    1564:	86 7b       	andi	r24, 0xB6	; 182
    1566:	86 86       	std	Z+14, r8	; 0x0e
    1568:	79 73       	andi	r23, 0x39	; 57
    156a:	73 7a       	andi	r23, 0xA3	; 163
    156c:	7b 76       	andi	r23, 0x6B	; 107
    156e:	79 7e       	andi	r23, 0xE9	; 233
    1570:	88 85       	ldd	r24, Y+8	; 0x08
    1572:	7b 78       	andi	r23, 0x8B	; 139
    1574:	6d 6f       	ori	r22, 0xFD	; 253
    1576:	64 57       	subi	r22, 0x74	; 116
    1578:	5e 6e       	ori	r21, 0xEE	; 238
    157a:	6e 6d       	ori	r22, 0xDE	; 222
    157c:	70 76       	andi	r23, 0x60	; 96
    157e:	7d 7a       	andi	r23, 0xAD	; 173
    1580:	6b 71       	andi	r22, 0x1B	; 27
    1582:	7a 78       	andi	r23, 0x8A	; 138
    1584:	74 6e       	ori	r23, 0xE4	; 228
    1586:	76 87       	std	Z+14, r23	; 0x0e
    1588:	8b 83       	std	Y+3, r24	; 0x03
    158a:	83 84       	ldd	r8, Z+11	; 0x0b
    158c:	8c 91       	ld	r24, X
    158e:	89 7b       	andi	r24, 0xB9	; 185
    1590:	7a 77       	andi	r23, 0x7A	; 122
    1592:	6f 64       	ori	r22, 0x4F	; 79
    1594:	67 74       	andi	r22, 0x47	; 71
    1596:	7b 7d       	andi	r23, 0xDB	; 219
    1598:	7c 89       	ldd	r23, Y+20	; 0x14
    159a:	8f 8f       	std	Y+31, r24	; 0x1f
    159c:	8c 86       	std	Y+12, r8	; 0x0c
    159e:	8b 90       	.word	0x908b	; ????
    15a0:	88 82       	st	Y, r8
    15a2:	80 86       	std	Z+8, r8	; 0x08
    15a4:	8a 81       	ldd	r24, Y+2	; 0x02
    15a6:	7f 85       	ldd	r23, Y+15	; 0x0f
    15a8:	88 85       	ldd	r24, Y+8	; 0x08
    15aa:	7d 78       	andi	r23, 0x8D	; 141
    15ac:	79 86       	std	Y+9, r7	; 0x09
    15ae:	87 82       	std	Z+7, r8	; 0x07
    15b0:	83 92       	.word	0x9283	; ????
    15b2:	9d 97       	sbiw	r26, 0x2d	; 45
    15b4:	90 91 92 8e 	lds	r25, 0x8E92
    15b8:	87 8c       	ldd	r8, Z+31	; 0x1f
    15ba:	90 8e       	std	Z+24, r9	; 0x18
    15bc:	86 7a       	andi	r24, 0xA6	; 166
    15be:	7b 83       	std	Y+3, r23	; 0x03
    15c0:	7d 75       	andi	r23, 0x5D	; 93
    15c2:	7a 85       	ldd	r23, Y+10	; 0x0a
    15c4:	96 95       	lsr	r25
    15c6:	87 7f       	andi	r24, 0xF7	; 247
    15c8:	7f 87       	std	Y+15, r23	; 0x0f
    15ca:	79 70       	andi	r23, 0x09	; 9
    15cc:	70 77       	andi	r23, 0x70	; 112
    15ce:	7f 79       	andi	r23, 0x9F	; 159
    15d0:	80 87       	std	Z+8, r24	; 0x08
    15d2:	89 84       	ldd	r8, Y+9	; 0x09
    15d4:	7e 79       	andi	r23, 0x9E	; 158
    15d6:	86 88       	ldd	r8, Z+22	; 0x16
    15d8:	84 79       	andi	r24, 0x94	; 148
    15da:	74 83       	std	Z+4, r23	; 0x04
    15dc:	7f 7d       	andi	r23, 0xDF	; 223
    15de:	7b 7d       	andi	r23, 0xDB	; 219
    15e0:	7a 6f       	ori	r23, 0xFA	; 250
    15e2:	66 6e       	ori	r22, 0xE6	; 230
    15e4:	74 7b       	andi	r23, 0xB4	; 180
    15e6:	78 73       	andi	r23, 0x38	; 56
    15e8:	76 78       	andi	r23, 0x86	; 134
    15ea:	7b 76       	andi	r23, 0x6B	; 107
    15ec:	71 6f       	ori	r23, 0xF1	; 241
    15ee:	79 7f       	andi	r23, 0xF9	; 249
    15f0:	78 7c       	andi	r23, 0xC8	; 200
    15f2:	7e 79       	andi	r23, 0x9E	; 158
    15f4:	78 6f       	ori	r23, 0xF8	; 248
    15f6:	73 74       	andi	r23, 0x43	; 67
    15f8:	76 7d       	andi	r23, 0xD6	; 214
    15fa:	82 8a       	std	Z+18, r8	; 0x12
    15fc:	82 7f       	andi	r24, 0xF2	; 242
    15fe:	7f 80       	ldd	r7, Y+7	; 0x07
    1600:	83 7d       	andi	r24, 0xD3	; 211
    1602:	73 77       	andi	r23, 0x73	; 115
    1604:	76 7e       	andi	r23, 0xE6	; 230
    1606:	83 78       	andi	r24, 0x83	; 131
    1608:	7a 7f       	andi	r23, 0xFA	; 250
    160a:	83 85       	ldd	r24, Z+11	; 0x0b
    160c:	83 89       	ldd	r24, Z+19	; 0x13
    160e:	89 85       	ldd	r24, Y+9	; 0x09
    1610:	7c 79       	andi	r23, 0x9C	; 156
    1612:	77 71       	andi	r23, 0x17	; 23
    1614:	77 71       	andi	r23, 0x17	; 23
    1616:	6b 6a       	ori	r22, 0xAB	; 171
    1618:	71 7e       	andi	r23, 0xE1	; 225
    161a:	80 87       	std	Z+8, r24	; 0x08
    161c:	8b 8b       	std	Y+19, r24	; 0x13
    161e:	94 93       	xch	Z, r25
    1620:	97 95       	ror	r25
    1622:	8d 8e       	std	Y+29, r8	; 0x1d
    1624:	8b 8e       	std	Y+27, r8	; 0x1b
    1626:	91 92       	st	Z+, r9
    1628:	89 7f       	andi	r24, 0xF9	; 249
    162a:	74 70       	andi	r23, 0x04	; 4
    162c:	6b 65       	ori	r22, 0x5B	; 91
    162e:	68 77       	andi	r22, 0x78	; 120
    1630:	82 82       	std	Z+2, r8	; 0x02
    1632:	82 80       	ldd	r8, Z+2	; 0x02
    1634:	86 8f       	std	Z+30, r24	; 0x1e
    1636:	88 84       	ldd	r8, Y+8	; 0x08
    1638:	80 81       	ld	r24, Z
    163a:	8f 8c       	ldd	r8, Y+31	; 0x1f
    163c:	8b 84       	ldd	r8, Y+11	; 0x0b
    163e:	82 7e       	andi	r24, 0xE2	; 226
    1640:	7b 7d       	andi	r23, 0xDB	; 219
    1642:	7d 85       	ldd	r23, Y+13	; 0x0d
    1644:	89 8c       	ldd	r8, Y+25	; 0x19
    1646:	89 80       	ldd	r8, Y+1	; 0x01
    1648:	7b 7f       	andi	r23, 0xFB	; 251
    164a:	7a 7b       	andi	r23, 0xBA	; 186
    164c:	79 72       	andi	r23, 0x29	; 41
    164e:	79 79       	andi	r23, 0x99	; 153
    1650:	82 88       	ldd	r8, Z+18	; 0x12
    1652:	80 81       	ld	r24, Z
    1654:	80 89       	ldd	r24, Z+16	; 0x10
    1656:	87 87       	std	Z+15, r24	; 0x0f
    1658:	87 85       	ldd	r24, Z+15	; 0x0f
    165a:	81 7f       	andi	r24, 0xF1	; 241
    165c:	7b 79       	andi	r23, 0x9B	; 155
    165e:	78 7f       	andi	r23, 0xF8	; 248
    1660:	7f 75       	andi	r23, 0x5F	; 95
    1662:	6d 67       	ori	r22, 0x7D	; 125
    1664:	67 70       	andi	r22, 0x07	; 7
    1666:	78 82       	st	Y, r7
    1668:	81 77       	andi	r24, 0x71	; 113
    166a:	81 8c       	ldd	r8, Z+25	; 0x19
    166c:	8e 84       	ldd	r8, Y+14	; 0x0e
    166e:	7c 79       	andi	r23, 0x9C	; 156
    1670:	7f 86       	std	Y+15, r7	; 0x0f
    1672:	8a 84       	ldd	r8, Y+10	; 0x0a
    1674:	7c 71       	andi	r23, 0x1C	; 28
    1676:	79 7a       	andi	r23, 0xA9	; 169
    1678:	7a 84       	ldd	r7, Y+10	; 0x0a
    167a:	81 86       	std	Z+9, r8	; 0x09
    167c:	7f 78       	andi	r23, 0x8F	; 143
    167e:	74 6b       	ori	r23, 0xB4	; 180
    1680:	6f 6e       	ori	r22, 0xEF	; 239
    1682:	6b 6c       	ori	r22, 0xCB	; 203
    1684:	6b 78       	andi	r22, 0x8B	; 139
    1686:	87 86       	std	Z+15, r8	; 0x0f
    1688:	83 7f       	andi	r24, 0xF3	; 243
    168a:	87 8c       	ldd	r8, Z+31	; 0x1f
    168c:	95 9c       	mul	r9, r5
    168e:	9c 95 8f 93 	jmp	0x65271e	; 0x65271e <__data_load_end+0x63fef4>
    1692:	94 8e       	std	Z+28, r9	; 0x1c
    1694:	89 7b       	andi	r24, 0xB9	; 185
    1696:	75 70       	andi	r23, 0x05	; 5
    1698:	68 63       	ori	r22, 0x38	; 56
    169a:	5f 6c       	ori	r21, 0xCF	; 207
    169c:	74 7a       	andi	r23, 0xA4	; 164
    169e:	75 73       	andi	r23, 0x35	; 53
    16a0:	7d 84       	ldd	r7, Y+13	; 0x0d
    16a2:	89 88       	ldd	r8, Y+17	; 0x11
    16a4:	82 87       	std	Z+10, r24	; 0x0a
    16a6:	84 8e       	std	Z+28, r8	; 0x1c
    16a8:	90 8e       	std	Z+24, r9	; 0x18
    16aa:	88 7f       	andi	r24, 0xF8	; 248
    16ac:	7f 76       	andi	r23, 0x6F	; 111
    16ae:	75 7b       	andi	r23, 0xB5	; 181
    16b0:	82 89       	ldd	r24, Z+18	; 0x12
    16b2:	81 7e       	andi	r24, 0xE1	; 225
    16b4:	79 75       	andi	r23, 0x59	; 89
    16b6:	7c 7e       	andi	r23, 0xEC	; 236
    16b8:	80 76       	andi	r24, 0x60	; 96
    16ba:	76 79       	andi	r23, 0x96	; 150
    16bc:	7b 7f       	andi	r23, 0xFB	; 251
    16be:	84 86       	std	Z+12, r8	; 0x0c
    16c0:	7c 7f       	andi	r23, 0xFC	; 252
    16c2:	88 91       	.word	0x9188	; ????
    16c4:	92 88       	ldd	r9, Z+18	; 0x12
    16c6:	8c 87       	std	Y+12, r24	; 0x0c
    16c8:	7e 80       	ldd	r7, Y+6	; 0x06
    16ca:	79 7f       	andi	r23, 0xF9	; 249
    16cc:	7b 7e       	andi	r23, 0xEB	; 235
    16ce:	79 75       	andi	r23, 0x59	; 89
    16d0:	71 6f       	ori	r23, 0xF1	; 241
    16d2:	7b 7c       	andi	r23, 0xCB	; 203
    16d4:	7f 83       	std	Y+7, r23	; 0x07
    16d6:	85 88       	ldd	r8, Z+21	; 0x15
    16d8:	89 87       	std	Y+9, r24	; 0x09
    16da:	81 7d       	andi	r24, 0xD1	; 209
    16dc:	81 8d       	ldd	r24, Z+25	; 0x19
    16de:	93 89       	ldd	r25, Z+19	; 0x13
    16e0:	87 89       	ldd	r24, Z+23	; 0x17
    16e2:	89 7d       	andi	r24, 0xD9	; 217
    16e4:	7c 7a       	andi	r23, 0xAC	; 172
    16e6:	79 7c       	andi	r23, 0xC9	; 201
    16e8:	82 85       	ldd	r24, Z+10	; 0x0a
    16ea:	82 80       	ldd	r8, Z+2	; 0x02
    16ec:	79 74       	andi	r23, 0x49	; 73
    16ee:	71 72       	andi	r23, 0x21	; 33
    16f0:	71 72       	andi	r23, 0x21	; 33
    16f2:	70 79       	andi	r23, 0x90	; 144
    16f4:	80 7a       	andi	r24, 0xA0	; 160
    16f6:	76 79       	andi	r23, 0x96	; 150
    16f8:	83 92       	.word	0x9283	; ????
    16fa:	99 9b       	sbis	0x13, 1	; 19
    16fc:	9c 9a       	sbi	0x13, 4	; 19
    16fe:	8f 8c       	ldd	r8, Y+31	; 0x1f
    1700:	84 7a       	andi	r24, 0xA4	; 164
    1702:	7d 77       	andi	r23, 0x7D	; 125
    1704:	72 68       	ori	r23, 0x82	; 130
    1706:	67 6d       	ori	r22, 0xD7	; 215
    1708:	71 7b       	andi	r23, 0xB1	; 177
    170a:	7a 7b       	andi	r23, 0xBA	; 186
    170c:	71 6d       	ori	r23, 0xD1	; 209
    170e:	77 7c       	andi	r23, 0xC7	; 199
    1710:	76 71       	andi	r23, 0x16	; 22
    1712:	71 75       	andi	r23, 0x51	; 81
    1714:	80 94       	com	r8
    1716:	9a 93       	st	-Y, r25
    1718:	88 86       	std	Y+8, r8	; 0x08
    171a:	81 7c       	andi	r24, 0xC1	; 193
    171c:	74 81       	ldd	r23, Z+4	; 0x04
    171e:	89 87       	std	Y+9, r24	; 0x09
    1720:	85 85       	ldd	r24, Z+13	; 0x0d
    1722:	84 81       	ldd	r24, Z+4	; 0x04
    1724:	81 85       	ldd	r24, Z+9	; 0x09
    1726:	7d 6d       	ori	r23, 0xDD	; 221
    1728:	6d 6f       	ori	r22, 0xFD	; 253
    172a:	75 75       	andi	r23, 0x55	; 85
    172c:	7a 81       	ldd	r23, Y+2	; 0x02
    172e:	7b 84       	ldd	r7, Y+11	; 0x0b
    1730:	8d 96       	adiw	r24, 0x2d	; 45
    1732:	8f 90       	pop	r8
    1734:	92 89       	ldd	r25, Z+18	; 0x12
    1736:	7c 73       	andi	r23, 0x3C	; 60
    1738:	75 75       	andi	r23, 0x55	; 85
    173a:	70 77       	andi	r23, 0x70	; 112
    173c:	77 77       	andi	r23, 0x77	; 119
    173e:	73 7b       	andi	r23, 0xB3	; 179
    1740:	8c 96       	adiw	r24, 0x2c	; 44
    1742:	91 89       	ldd	r25, Z+17	; 0x11
    1744:	7e 7e       	andi	r23, 0xEE	; 238
    1746:	7c 75       	andi	r23, 0x5C	; 92
    1748:	75 7b       	andi	r23, 0xB5	; 181
    174a:	86 91       	elpm	r24, Z
    174c:	8b 82       	std	Y+3, r8	; 0x03
    174e:	84 82       	std	Z+4, r8	; 0x04
    1750:	80 78       	andi	r24, 0x80	; 128
    1752:	78 7e       	andi	r23, 0xE8	; 232
    1754:	7c 83       	std	Y+4, r23	; 0x04
    1756:	8a 8c       	ldd	r8, Y+26	; 0x1a
    1758:	88 7b       	andi	r24, 0xB8	; 184
    175a:	7d 7a       	andi	r23, 0xAD	; 173
    175c:	75 78       	andi	r23, 0x85	; 133
    175e:	78 75       	andi	r23, 0x58	; 88
    1760:	71 7a       	andi	r23, 0xA1	; 161
    1762:	7b 7a       	andi	r23, 0xAB	; 171
    1764:	78 80       	ld	r7, Y
    1766:	92 8f       	std	Z+26, r25	; 0x1a
    1768:	94 9e       	mul	r9, r20
    176a:	99 8b       	std	Y+17, r25	; 0x11
    176c:	81 81       	ldd	r24, Z+1	; 0x01
    176e:	85 76       	andi	r24, 0x65	; 101
    1770:	79 7c       	andi	r23, 0xC9	; 201
    1772:	78 75       	andi	r23, 0x58	; 88
    1774:	7a 86       	std	Y+10, r7	; 0x0a
    1776:	8b 86       	std	Y+11, r8	; 0x0b
    1778:	83 7b       	andi	r24, 0xB3	; 179
    177a:	71 72       	andi	r23, 0x21	; 33
    177c:	76 71       	andi	r23, 0x16	; 22
    177e:	6a 6e       	ori	r22, 0xEA	; 234
    1780:	79 83       	std	Y+1, r23	; 0x01
    1782:	7e 84       	ldd	r7, Y+14	; 0x0e
    1784:	8f 90       	pop	r8
    1786:	82 74       	andi	r24, 0x42	; 66
    1788:	78 7e       	andi	r23, 0xE8	; 232
    178a:	81 89       	ldd	r24, Z+17	; 0x11
    178c:	92 95       	swap	r25
    178e:	8e 89       	ldd	r24, Y+22	; 0x16
    1790:	81 76       	andi	r24, 0x61	; 97
    1792:	77 7b       	andi	r23, 0xB7	; 183
    1794:	77 64       	ori	r23, 0x47	; 71
    1796:	68 72       	andi	r22, 0x28	; 40
    1798:	7a 7c       	andi	r23, 0xCA	; 202
    179a:	7f 8a       	std	Y+23, r7	; 0x17
    179c:	86 7c       	andi	r24, 0xC6	; 198
    179e:	82 8d       	ldd	r24, Z+26	; 0x1a
    17a0:	8d 85       	ldd	r24, Y+13	; 0x0d
    17a2:	7a 76       	andi	r23, 0x6A	; 106
    17a4:	6f 6c       	ori	r22, 0xCF	; 207
    17a6:	70 74       	andi	r23, 0x40	; 64
    17a8:	76 82       	std	Z+6, r7	; 0x06
    17aa:	8b 89       	ldd	r24, Y+19	; 0x13
    17ac:	84 83       	std	Z+4, r24	; 0x04
    17ae:	89 89       	ldd	r24, Y+17	; 0x11
    17b0:	79 7a       	andi	r23, 0xA9	; 169
    17b2:	7c 7c       	andi	r23, 0xCC	; 204
    17b4:	7d 87       	std	Y+13, r23	; 0x0d
    17b6:	8f 8b       	std	Y+23, r24	; 0x17
    17b8:	85 86       	std	Z+13, r8	; 0x0d
    17ba:	85 78       	andi	r24, 0x85	; 133
    17bc:	71 73       	andi	r23, 0x31	; 49
    17be:	79 78       	andi	r23, 0x89	; 137
    17c0:	7d 7e       	andi	r23, 0xED	; 237
    17c2:	83 84       	ldd	r8, Z+11	; 0x0b
    17c4:	8e 93       	st	-X, r24
    17c6:	84 77       	andi	r24, 0x74	; 116
    17c8:	77 7d       	andi	r23, 0xD7	; 215
    17ca:	7c 72       	andi	r23, 0x2C	; 44
    17cc:	71 79       	andi	r23, 0x91	; 145
    17ce:	7a 82       	std	Y+2, r7	; 0x02
    17d0:	8a 8b       	std	Y+18, r24	; 0x12
    17d2:	81 89       	ldd	r24, Z+17	; 0x11
    17d4:	94 95       	.word	0x9594	; ????
    17d6:	88 7e       	andi	r24, 0xE8	; 232
    17d8:	79 7b       	andi	r23, 0xB9	; 185
    17da:	77 76       	andi	r23, 0x67	; 103
    17dc:	78 6f       	ori	r23, 0xF8	; 248
    17de:	79 89       	ldd	r23, Y+17	; 0x11
    17e0:	8e 84       	ldd	r8, Y+14	; 0x0e
    17e2:	84 86       	std	Z+12, r8	; 0x0c
    17e4:	87 7d       	andi	r24, 0xD7	; 215
    17e6:	74 70       	andi	r23, 0x04	; 4
    17e8:	6d 6f       	ori	r22, 0xFD	; 253
    17ea:	77 80       	ldd	r7, Z+7	; 0x07
    17ec:	83 7f       	andi	r24, 0xF3	; 243
    17ee:	7d 81       	ldd	r23, Y+5	; 0x05
    17f0:	88 85       	ldd	r24, Y+8	; 0x08
    17f2:	81 7a       	andi	r24, 0xA1	; 161
    17f4:	74 7c       	andi	r23, 0xC4	; 196
    17f6:	82 83       	std	Z+2, r24	; 0x02
    17f8:	84 8e       	std	Z+28, r8	; 0x1c
    17fa:	9a 94       	dec	r9
    17fc:	85 80       	ldd	r8, Z+5	; 0x05
    17fe:	7d 78       	andi	r23, 0x8D	; 141
    1800:	72 6f       	ori	r23, 0xF2	; 242
    1802:	71 73       	andi	r23, 0x31	; 49
    1804:	79 7b       	andi	r23, 0xB9	; 185
    1806:	85 87       	std	Z+13, r24	; 0x0d
    1808:	8c 91       	ld	r24, X
    180a:	8d 89       	ldd	r24, Y+21	; 0x15
    180c:	84 81       	ldd	r24, Z+4	; 0x04
    180e:	80 79       	andi	r24, 0x90	; 144
    1810:	72 74       	andi	r23, 0x42	; 66
    1812:	6a 6c       	ori	r22, 0xCA	; 202
    1814:	7a 82       	std	Y+2, r7	; 0x02
    1816:	7f 7c       	andi	r23, 0xCF	; 207
    1818:	84 84       	ldd	r8, Z+12	; 0x0c
    181a:	7b 77       	andi	r23, 0x7B	; 123
    181c:	79 7b       	andi	r23, 0xB9	; 185
    181e:	7d 84       	ldd	r7, Y+13	; 0x0d
    1820:	8a 8f       	std	Y+26, r24	; 0x1a
    1822:	8e 8d       	ldd	r24, Y+30	; 0x1e
    1824:	8b 87       	std	Y+11, r24	; 0x0b
    1826:	81 79       	andi	r24, 0x91	; 145
    1828:	79 72       	andi	r23, 0x29	; 41
    182a:	76 7a       	andi	r23, 0xA6	; 166
    182c:	7a 75       	andi	r23, 0x5A	; 90
    182e:	74 80       	ldd	r7, Z+4	; 0x04
    1830:	89 82       	std	Y+1, r8	; 0x01
    1832:	7b 81       	ldd	r23, Y+3	; 0x03
    1834:	7f 79       	andi	r23, 0x9F	; 159
    1836:	71 6d       	ori	r23, 0xD1	; 209
    1838:	72 79       	andi	r23, 0x92	; 146
    183a:	81 81       	ldd	r24, Z+1	; 0x01
    183c:	82 87       	std	Z+10, r24	; 0x0a
    183e:	90 95       	com	r25
    1840:	8b 84       	ldd	r8, Y+11	; 0x0b
    1842:	82 81       	ldd	r24, Z+2	; 0x02
    1844:	82 7e       	andi	r24, 0xE2	; 226
    1846:	7d 7e       	andi	r23, 0xED	; 237
    1848:	76 71       	andi	r23, 0x16	; 22
    184a:	83 87       	std	Z+11, r24	; 0x0b
    184c:	81 79       	andi	r24, 0x91	; 145
    184e:	7d 83       	std	Y+5, r23	; 0x05
    1850:	7d 79       	andi	r23, 0x9D	; 157
    1852:	74 73       	andi	r23, 0x34	; 52
    1854:	75 7e       	andi	r23, 0xE5	; 229
    1856:	7f 7f       	andi	r23, 0xFF	; 255
    1858:	83 8c       	ldd	r8, Z+27	; 0x1b
    185a:	8c 80       	ldd	r8, Y+4	; 0x04
    185c:	80 7c       	andi	r24, 0xC0	; 192
    185e:	82 7e       	andi	r24, 0xE2	; 226
    1860:	7d 85       	ldd	r23, Y+13	; 0x0d
    1862:	82 82       	std	Z+2, r8	; 0x02
    1864:	80 89       	ldd	r24, Z+16	; 0x10
    1866:	90 86       	std	Z+8, r9	; 0x08
    1868:	80 82       	st	Z, r8
    186a:	7f 75       	andi	r23, 0x5F	; 95
    186c:	6a 68       	ori	r22, 0x8A	; 138
    186e:	6f 7c       	andi	r22, 0xCF	; 207
    1870:	84 82       	std	Z+4, r8	; 0x04
    1872:	80 88       	ldd	r8, Z+16	; 0x10
    1874:	91 95       	neg	r25
    1876:	86 80       	ldd	r8, Z+6	; 0x06
    1878:	7f 80       	ldd	r7, Y+7	; 0x07
    187a:	7e 7c       	andi	r23, 0xCE	; 206
    187c:	7b 7d       	andi	r23, 0xDB	; 219
    187e:	73 6e       	ori	r23, 0xE3	; 227
    1880:	7d 82       	std	Y+5, r7	; 0x05
    1882:	7f 75       	andi	r23, 0x5F	; 95
    1884:	78 7c       	andi	r23, 0xC8	; 200
    1886:	7c 7a       	andi	r23, 0xAC	; 172
    1888:	78 7b       	andi	r23, 0xB8	; 184
    188a:	84 8c       	ldd	r8, Z+28	; 0x1c
    188c:	89 82       	std	Y+1, r8	; 0x01
    188e:	86 8e       	std	Z+30, r8	; 0x1e
    1890:	89 7d       	andi	r24, 0xD9	; 217
    1892:	7a 82       	std	Y+2, r7	; 0x02
    1894:	85 7f       	andi	r24, 0xF5	; 245
    1896:	79 81       	ldd	r23, Y+1	; 0x01
    1898:	7e 7e       	andi	r23, 0xEE	; 238
    189a:	7a 82       	std	Y+2, r7	; 0x02
    189c:	84 7c       	andi	r24, 0xC4	; 196
    189e:	7d 82       	std	Y+5, r7	; 0x05
    18a0:	80 78       	andi	r24, 0x80	; 128
    18a2:	6e 6c       	ori	r22, 0xCE	; 206
    18a4:	6e 7c       	andi	r22, 0xCE	; 206
    18a6:	7f 7c       	andi	r23, 0xCF	; 207
    18a8:	7b 82       	std	Y+3, r7	; 0x03
    18aa:	8c 88       	ldd	r8, Y+20	; 0x14
    18ac:	85 84       	ldd	r8, Z+13	; 0x0d
    18ae:	8a 88       	ldd	r8, Y+18	; 0x12
    18b0:	85 83       	std	Z+5, r24	; 0x05
    18b2:	84 7d       	andi	r24, 0xD4	; 212
    18b4:	77 77       	andi	r23, 0x77	; 119
    18b6:	7d 83       	std	Y+5, r23	; 0x05
    18b8:	7f 80       	ldd	r7, Y+7	; 0x07
    18ba:	7d 7f       	andi	r23, 0xFD	; 253
    18bc:	7b 78       	andi	r23, 0x8B	; 139
    18be:	76 70       	andi	r23, 0x06	; 6
    18c0:	75 7a       	andi	r23, 0xA5	; 165
    18c2:	7e 82       	std	Y+6, r7	; 0x06
    18c4:	85 8a       	std	Z+21, r8	; 0x15
    18c6:	87 7c       	andi	r24, 0xC7	; 199
    18c8:	7c 86       	std	Y+12, r7	; 0x0c
    18ca:	83 7a       	andi	r24, 0xA3	; 163
    18cc:	76 7c       	andi	r23, 0xC6	; 198
    18ce:	86 86       	std	Z+14, r8	; 0x0e
    18d0:	84 84       	ldd	r8, Z+12	; 0x0c
    18d2:	85 81       	ldd	r24, Z+5	; 0x05
    18d4:	83 7c       	andi	r24, 0xC3	; 195
    18d6:	7c 7d       	andi	r23, 0xDC	; 220
    18d8:	7e 7a       	andi	r23, 0xAE	; 174
    18da:	6e 76       	andi	r22, 0x6E	; 110
    18dc:	84 89       	ldd	r24, Z+20	; 0x14
    18de:	7f 7c       	andi	r23, 0xCF	; 207
    18e0:	82 86       	std	Z+10, r8	; 0x0a
    18e2:	82 7e       	andi	r24, 0xE2	; 226
    18e4:	80 85       	ldd	r24, Z+8	; 0x08
    18e6:	7b 7a       	andi	r23, 0xAB	; 171
    18e8:	85 82       	std	Z+5, r8	; 0x05
    18ea:	7e 79       	andi	r23, 0x9E	; 158
    18ec:	76 7e       	andi	r23, 0xE6	; 230
    18ee:	7b 77       	andi	r23, 0x7B	; 123
    18f0:	7a 7a       	andi	r23, 0xAA	; 170
    18f2:	7e 80       	ldd	r7, Y+6	; 0x06
    18f4:	7f 7c       	andi	r23, 0xCF	; 207
    18f6:	7e 85       	ldd	r23, Y+14	; 0x0e
    18f8:	86 80       	ldd	r8, Z+6	; 0x06
    18fa:	7f 7f       	andi	r23, 0xFF	; 255
    18fc:	7e 7b       	andi	r23, 0xBE	; 190
    18fe:	75 88       	ldd	r7, Z+21	; 0x15
    1900:	89 7e       	andi	r24, 0xE9	; 233
    1902:	7a 80       	ldd	r7, Y+2	; 0x02
    1904:	8e 85       	ldd	r24, Y+14	; 0x0e
    1906:	79 7b       	andi	r23, 0xB9	; 185
    1908:	7c 7f       	andi	r23, 0xFC	; 252
    190a:	76 7b       	andi	r23, 0xB6	; 182
    190c:	89 87       	std	Y+9, r24	; 0x09
    190e:	81 7b       	andi	r24, 0xB1	; 177
    1910:	78 7c       	andi	r23, 0xC8	; 200
    1912:	7f 77       	andi	r23, 0x7F	; 127
    1914:	76 7b       	andi	r23, 0xB6	; 182
    1916:	80 86       	std	Z+8, r8	; 0x08
    1918:	7d 86       	std	Y+13, r7	; 0x0d
    191a:	8b 87       	std	Y+11, r24	; 0x0b
    191c:	80 75       	andi	r24, 0x50	; 80
    191e:	7f 87       	std	Y+15, r23	; 0x0f
    1920:	84 80       	ldd	r8, Z+4	; 0x04
    1922:	74 80       	ldd	r7, Z+4	; 0x04
    1924:	89 80       	ldd	r8, Y+1	; 0x01
    1926:	7d 81       	ldd	r23, Y+5	; 0x05
    1928:	85 7d       	andi	r24, 0xD5	; 213
    192a:	7c 7e       	andi	r23, 0xEC	; 236
    192c:	7b 80       	ldd	r7, Y+3	; 0x03
    192e:	84 88       	ldd	r8, Z+20	; 0x14
    1930:	84 7d       	andi	r24, 0xD4	; 212
    1932:	7b 7b       	andi	r23, 0xBB	; 187
    1934:	75 75       	andi	r23, 0x55	; 85
    1936:	78 7c       	andi	r23, 0xC8	; 200
    1938:	78 79       	andi	r23, 0x98	; 152
    193a:	83 8f       	std	Z+27, r24	; 0x1b
    193c:	8e 89       	ldd	r24, Y+22	; 0x16
    193e:	7c 85       	ldd	r23, Y+12	; 0x0c
    1940:	87 7f       	andi	r24, 0xF7	; 247
    1942:	7d 77       	andi	r23, 0x7D	; 125
    1944:	7c 7a       	andi	r23, 0xAC	; 172
    1946:	79 81       	ldd	r23, Y+1	; 0x01
    1948:	7e 87       	std	Y+14, r23	; 0x0e
    194a:	86 86       	std	Z+14, r8	; 0x0e
    194c:	83 7a       	andi	r24, 0xA3	; 163
    194e:	7b 7e       	andi	r23, 0xEB	; 235
    1950:	7b 77       	andi	r23, 0x7B	; 123
    1952:	75 7a       	andi	r23, 0xA5	; 165
    1954:	80 88       	ldd	r8, Z+16	; 0x10
    1956:	8b 83       	std	Y+3, r24	; 0x03
    1958:	77 6d       	ori	r23, 0xD7	; 215
    195a:	76 74       	andi	r23, 0x46	; 70
    195c:	71 71       	andi	r23, 0x11	; 17
    195e:	82 8d       	ldd	r24, Z+26	; 0x1a
    1960:	90 8f       	std	Z+24, r25	; 0x18
    1962:	90 93 8b 85 	sts	0x858B, r25
    1966:	80 84       	ldd	r8, Z+8	; 0x08
    1968:	7b 6d       	ori	r23, 0xDB	; 219
    196a:	6d 75       	andi	r22, 0x5D	; 93
    196c:	76 71       	andi	r23, 0x16	; 22
    196e:	6a 7c       	andi	r22, 0xCA	; 202
    1970:	8c 89       	ldd	r24, Y+20	; 0x14
    1972:	83 83       	std	Z+3, r24	; 0x03
    1974:	84 8d       	ldd	r24, Z+28	; 0x1c
    1976:	8b 82       	std	Y+3, r8	; 0x03
    1978:	81 86       	std	Z+9, r8	; 0x09
    197a:	8b 7e       	andi	r24, 0xEB	; 235
    197c:	73 72       	andi	r23, 0x23	; 35
    197e:	82 80       	ldd	r8, Z+2	; 0x02
    1980:	75 77       	andi	r23, 0x75	; 117
    1982:	7c 7c       	andi	r23, 0xCC	; 204
    1984:	7c 7b       	andi	r23, 0xBC	; 188
    1986:	7a 7a       	andi	r23, 0xAA	; 170
    1988:	77 75       	andi	r23, 0x57	; 87
    198a:	7f 89       	ldd	r23, Y+23	; 0x17
    198c:	8f 86       	std	Y+15, r8	; 0x0f
    198e:	82 80       	ldd	r8, Z+2	; 0x02
    1990:	7f 78       	andi	r23, 0x8F	; 143
    1992:	71 7c       	andi	r23, 0xC1	; 193
    1994:	79 7c       	andi	r23, 0xC9	; 201
    1996:	7f 7e       	andi	r23, 0xEF	; 239
    1998:	85 84       	ldd	r8, Z+13	; 0x0d
    199a:	8f 8d       	ldd	r24, Y+31	; 0x1f
    199c:	80 79       	andi	r24, 0x90	; 144
    199e:	7b 81       	ldd	r23, Y+3	; 0x03
    19a0:	76 6f       	ori	r23, 0xF6	; 246
    19a2:	6f 6c       	ori	r22, 0xCF	; 207
    19a4:	6c 76       	andi	r22, 0x6C	; 108
    19a6:	89 9a       	sbi	0x11, 1	; 17
    19a8:	97 91       	elpm	r25, Z+
    19aa:	8f 8d       	ldd	r24, Y+31	; 0x1f
    19ac:	86 7b       	andi	r24, 0xB6	; 182
    19ae:	74 75       	andi	r23, 0x54	; 84
    19b0:	78 76       	andi	r23, 0x68	; 104
    19b2:	76 7c       	andi	r23, 0xC6	; 198
    19b4:	8a 93       	st	-Y, r24
    19b6:	97 8f       	std	Z+31, r25	; 0x1f
    19b8:	86 82       	std	Z+6, r8	; 0x06
    19ba:	81 7e       	andi	r24, 0xE1	; 225
    19bc:	7e 7c       	andi	r23, 0xCE	; 206
    19be:	7d 79       	andi	r23, 0x9D	; 157
    19c0:	78 84       	ldd	r7, Y+8	; 0x08
    19c2:	8c 84       	ldd	r8, Y+12	; 0x0c
    19c4:	7c 74       	andi	r23, 0x4C	; 76
    19c6:	75 72       	andi	r23, 0x25	; 37
    19c8:	6f 75       	andi	r22, 0x5F	; 95
    19ca:	7b 86       	std	Y+11, r7	; 0x0b
    19cc:	87 8c       	ldd	r8, Z+31	; 0x1f
    19ce:	91 97       	sbiw	r26, 0x21	; 33
    19d0:	96 8d       	ldd	r25, Z+30	; 0x1e
    19d2:	84 79       	andi	r24, 0x94	; 148
    19d4:	79 71       	andi	r23, 0x19	; 25
    19d6:	6e 70       	andi	r22, 0x0E	; 14
    19d8:	6c 6c       	ori	r22, 0xCC	; 204
    19da:	6b 74       	andi	r22, 0x4B	; 75
    19dc:	81 85       	ldd	r24, Z+9	; 0x09
    19de:	87 8b       	std	Z+23, r24	; 0x17
    19e0:	8f 8a       	std	Y+23, r8	; 0x17
    19e2:	85 83       	std	Z+5, r24	; 0x05
    19e4:	7d 7e       	andi	r23, 0xED	; 237
    19e6:	72 6a       	ori	r23, 0xA2	; 162
    19e8:	67 69       	ori	r22, 0x97	; 151
    19ea:	72 71       	andi	r23, 0x12	; 18
    19ec:	74 79       	andi	r23, 0x94	; 148
    19ee:	7c 7c       	andi	r23, 0xCC	; 204
    19f0:	7a 7f       	andi	r23, 0xFA	; 250
    19f2:	7f 84       	ldd	r7, Y+15	; 0x0f
    19f4:	86 7e       	andi	r24, 0xE6	; 230
    19f6:	87 92       	lat	Z, r8
    19f8:	8e 8e       	std	Y+30, r8	; 0x1e
    19fa:	8d 90       	ld	r8, X+
    19fc:	8c 83       	std	Y+4, r24	; 0x04
    19fe:	7e 7e       	andi	r23, 0xEE	; 238
    1a00:	7f 7d       	andi	r23, 0xDF	; 223
    1a02:	7b 79       	andi	r23, 0x9B	; 155
    1a04:	79 82       	std	Y+1, r7	; 0x01
    1a06:	8c 92       	st	X, r8
    1a08:	91 92       	st	Z+, r9
    1a0a:	89 7d       	andi	r24, 0xD9	; 217
    1a0c:	7d 78       	andi	r23, 0x8D	; 141
    1a0e:	79 78       	andi	r23, 0x89	; 137
    1a10:	75 77       	andi	r23, 0x75	; 117
    1a12:	7e 86       	std	Y+14, r7	; 0x0e
    1a14:	8b 90       	.word	0x908b	; ????
    1a16:	94 a1       	ldd	r25, Z+36	; 0x24
    1a18:	96 7a       	andi	r25, 0xA6	; 166
    1a1a:	73 6f       	ori	r23, 0xF3	; 243
    1a1c:	6a 75       	andi	r22, 0x5A	; 90
    1a1e:	6f 70       	andi	r22, 0x0F	; 15
    1a20:	76 89       	ldd	r23, Z+22	; 0x16
    1a22:	95 90       	lpm	r9, Z+
    1a24:	8d a3       	std	Y+37, r24	; 0x25
    1a26:	7d 79       	andi	r23, 0x9D	; 157
    1a28:	85 7b       	andi	r24, 0xB5	; 181
    1a2a:	90 75       	andi	r25, 0x50	; 80
    1a2c:	70 6d       	ori	r23, 0xD0	; 208
    1a2e:	77 73       	andi	r23, 0x37	; 55
    1a30:	6c 5f       	subi	r22, 0xFC	; 252
    1a32:	5b 61       	ori	r21, 0x1B	; 27
    1a34:	7c 7b       	andi	r23, 0xBC	; 188
    1a36:	66 69       	ori	r22, 0x96	; 150
    1a38:	74 71       	andi	r23, 0x14	; 20
    1a3a:	82 a1       	ldd	r24, Z+34	; 0x22
    1a3c:	96 8a       	std	Z+22, r9	; 0x16
    1a3e:	7e 78       	andi	r23, 0x8E	; 142
    1a40:	7b 7c       	andi	r23, 0xCB	; 203
    1a42:	72 6f       	ori	r23, 0xF2	; 242
    1a44:	66 62       	ori	r22, 0x26	; 38
    1a46:	66 6b       	ori	r22, 0xB6	; 182
    1a48:	74 7b       	andi	r23, 0xB4	; 180
    1a4a:	85 8a       	std	Z+21, r8	; 0x15
    1a4c:	84 8c       	ldd	r8, Z+28	; 0x1c
    1a4e:	8f 95 7a 68 	call	0x62d0f4	; 0x62d0f4 <__data_load_end+0x61a8ca>
    1a52:	74 73       	andi	r23, 0x34	; 52
    1a54:	83 7b       	andi	r24, 0xB3	; 179
    1a56:	7c 7f       	andi	r23, 0xFC	; 252
    1a58:	8e 94 a1 ae 	call	0x215d42	; 0x215d42 <__data_load_end+0x203518>
    1a5c:	b5 b9       	out	0x05, r27	; 5
    1a5e:	a5 9c       	mul	r10, r5
    1a60:	9a 9c       	mul	r9, r10
    1a62:	99 90       	ld	r9, Y+
    1a64:	95 a9       	ldd	r25, Z+53	; 0x35
    1a66:	ae a2       	std	Y+38, r10	; 0x26
    1a68:	96 98       	cbi	0x12, 6	; 18
    1a6a:	97 83       	std	Z+7, r25	; 0x07
    1a6c:	72 74       	andi	r23, 0x42	; 66
    1a6e:	72 78       	andi	r23, 0x82	; 130
    1a70:	76 80       	ldd	r7, Z+6	; 0x06
    1a72:	7c 7a       	andi	r23, 0xAC	; 172
    1a74:	77 74       	andi	r23, 0x47	; 71
    1a76:	7a 70       	andi	r23, 0x0A	; 10
    1a78:	61 4e       	sbci	r22, 0xE1	; 225
    1a7a:	4a 4f       	sbci	r20, 0xFA	; 250
    1a7c:	67 6c       	ori	r22, 0xC7	; 199
    1a7e:	5d 6f       	ori	r21, 0xFD	; 253
    1a80:	83 84       	ldd	r8, Z+11	; 0x0b
    1a82:	83 7b       	andi	r24, 0xB3	; 179
    1a84:	7b 85       	ldd	r23, Y+11	; 0x0b
    1a86:	83 7d       	andi	r24, 0xD3	; 211
    1a88:	7b 7c       	andi	r23, 0xCB	; 203
    1a8a:	70 6c       	ori	r23, 0xC0	; 192
    1a8c:	6c 7c       	andi	r22, 0xCC	; 204
    1a8e:	8b 9e       	mul	r8, r27
    1a90:	9e 9d       	mul	r25, r14
    1a92:	9e 96       	adiw	r26, 0x2e	; 46
    1a94:	7c 6c       	ori	r23, 0xCC	; 204
    1a96:	6b 79       	andi	r22, 0x9B	; 155
    1a98:	7b 6d       	ori	r23, 0xDB	; 219
    1a9a:	5f 54       	subi	r21, 0x4F	; 79
    1a9c:	58 5f       	subi	r21, 0xF8	; 248
    1a9e:	67 6b       	ori	r22, 0xB7	; 183
    1aa0:	75 77       	andi	r23, 0x75	; 117
    1aa2:	76 7d       	andi	r23, 0xD6	; 214
    1aa4:	85 91       	lpm	r24, Z+
    1aa6:	89 7a       	andi	r24, 0xA9	; 169
    1aa8:	82 81       	ldd	r24, Z+2	; 0x02
    1aaa:	88 81       	ld	r24, Y
    1aac:	7b 85       	ldd	r23, Y+11	; 0x0b
    1aae:	79 77       	andi	r23, 0x79	; 121
    1ab0:	77 80       	ldd	r7, Z+7	; 0x07
    1ab2:	89 8e       	std	Y+25, r8	; 0x19
    1ab4:	88 7b       	andi	r24, 0xB8	; 184
    1ab6:	77 7e       	andi	r23, 0xE7	; 231
    1ab8:	77 7c       	andi	r23, 0xC7	; 199
    1aba:	7d 79       	andi	r23, 0x9D	; 157
    1abc:	7a 6d       	ori	r23, 0xDA	; 218
    1abe:	69 77       	andi	r22, 0x79	; 121
    1ac0:	70 69       	ori	r23, 0x90	; 144
    1ac2:	62 62       	ori	r22, 0x22	; 34
    1ac4:	73 83       	std	Z+3, r23	; 0x03
    1ac6:	89 88       	ldd	r8, Y+17	; 0x11
    1ac8:	8c 90       	ld	r8, X
    1aca:	9a a4       	ldd	r9, Y+42	; 0x2a
    1acc:	a3 90       	.word	0x90a3	; ????
    1ace:	88 78       	andi	r24, 0x88	; 136
    1ad0:	69 74       	andi	r22, 0x49	; 73
    1ad2:	63 65       	ori	r22, 0x53	; 83
    1ad4:	65 69       	ori	r22, 0x95	; 149
    1ad6:	72 8a       	std	Z+18, r7	; 0x12
    1ad8:	9e 97       	sbiw	r26, 0x2e	; 46
    1ada:	a1 9b       	sbis	0x14, 1	; 20
    1adc:	94 87       	std	Z+12, r25	; 0x0c
    1ade:	82 88       	ldd	r8, Z+18	; 0x12
    1ae0:	84 87       	std	Z+12, r24	; 0x0c
    1ae2:	85 96       	adiw	r24, 0x25	; 37
    1ae4:	a3 9d       	mul	r26, r3
    1ae6:	9b 91       	.word	0x919b	; ????
    1ae8:	90 94       	com	r9
    1aea:	9b 9d       	mul	r25, r11
    1aec:	a3 af       	std	Z+59, r26	; 0x3b
    1aee:	b0 aa       	std	Z+48, r11	; 0x30
    1af0:	aa a4       	ldd	r10, Y+42	; 0x2a
    1af2:	9a 9e       	mul	r9, r26
    1af4:	8f 9d       	mul	r24, r15
    1af6:	a2 8a       	std	Z+18, r10	; 0x12
    1af8:	8b 8e       	std	Y+27, r8	; 0x1b
    1afa:	88 85       	ldd	r24, Y+8	; 0x08
    1afc:	8b 76       	andi	r24, 0x6B	; 107
    1afe:	7a 8e       	std	Y+26, r7	; 0x1a
    1b00:	85 84       	ldd	r8, Z+13	; 0x0d
    1b02:	89 7c       	andi	r24, 0xC9	; 201
    1b04:	64 5e       	subi	r22, 0xE4	; 228
    1b06:	3b 3b       	cpi	r19, 0xBB	; 187
    1b08:	39 18       	sub	r3, r9
    1b0a:	1f 2f       	mov	r17, r31
    1b0c:	40 4d       	sbci	r20, 0xD0	; 208
    1b0e:	65 6d       	ori	r22, 0xD5	; 213
    1b10:	71 89       	ldd	r23, Z+17	; 0x11
    1b12:	7d 70       	andi	r23, 0x0D	; 13
    1b14:	73 74       	andi	r23, 0x43	; 67
    1b16:	6d 6d       	ori	r22, 0xDD	; 221
    1b18:	65 63       	ori	r22, 0x35	; 53
    1b1a:	79 65       	ori	r23, 0x59	; 89
    1b1c:	61 6a       	ori	r22, 0xA1	; 161
    1b1e:	6a 76       	andi	r22, 0x6A	; 106
    1b20:	78 7f       	andi	r23, 0xF8	; 248
    1b22:	78 7e       	andi	r23, 0xE8	; 232
    1b24:	82 6e       	ori	r24, 0xE2	; 226
    1b26:	76 7f       	andi	r23, 0xF6	; 246
    1b28:	7e 7e       	andi	r23, 0xEE	; 238
    1b2a:	73 75       	andi	r23, 0x53	; 83
    1b2c:	82 7a       	andi	r24, 0xA2	; 162
    1b2e:	69 66       	ori	r22, 0x69	; 105
    1b30:	65 6b       	ori	r22, 0xB5	; 181
    1b32:	77 7c       	andi	r23, 0xC7	; 199
    1b34:	79 7f       	andi	r23, 0xF9	; 249
    1b36:	99 97       	sbiw	r26, 0x29	; 41
    1b38:	90 a2       	std	Z+32, r9	; 0x20
    1b3a:	9c 90       	ld	r9, X
    1b3c:	84 7a       	andi	r24, 0xA4	; 164
    1b3e:	77 7d       	andi	r23, 0xD7	; 215
    1b40:	70 75       	andi	r23, 0x50	; 80
    1b42:	8f a0       	ldd	r8, Y+39	; 0x27
    1b44:	ac a8       	ldd	r10, Y+52	; 0x34
    1b46:	a7 9f       	mul	r26, r23
    1b48:	a5 a0       	ldd	r10, Z+37	; 0x25
    1b4a:	7f 87       	std	Y+15, r23	; 0x0f
    1b4c:	88 83       	st	Y, r24
    1b4e:	80 8c       	ldd	r8, Z+24	; 0x18
    1b50:	8e 90       	ld	r8, -X
    1b52:	8d 79       	andi	r24, 0x9D	; 157
    1b54:	7d 81       	ldd	r23, Y+5	; 0x05
    1b56:	8e 83       	std	Y+6, r24	; 0x06
    1b58:	89 89       	ldd	r24, Y+17	; 0x11
    1b5a:	a3 b4       	in	r10, 0x23	; 35
    1b5c:	99 9d       	mul	r25, r9
    1b5e:	9c 99       	sbic	0x13, 4	; 19
    1b60:	87 7e       	andi	r24, 0xE7	; 231
    1b62:	7d 78       	andi	r23, 0x8D	; 141
    1b64:	78 68       	ori	r23, 0x88	; 136
    1b66:	71 7c       	andi	r23, 0xC1	; 193
    1b68:	8b 99       	sbic	0x11, 3	; 17
    1b6a:	9a 9c       	mul	r9, r10
    1b6c:	94 a4       	ldd	r9, Z+44	; 0x2c
    1b6e:	97 88       	ldd	r9, Z+23	; 0x17
    1b70:	8b 87       	std	Y+11, r24	; 0x0b
    1b72:	79 72       	andi	r23, 0x29	; 41
    1b74:	6d 76       	andi	r22, 0x6D	; 109
    1b76:	81 6f       	ori	r24, 0xF1	; 241
    1b78:	69 74       	andi	r22, 0x49	; 73
    1b7a:	8c a0       	ldd	r8, Y+36	; 0x24
    1b7c:	a7 a9       	ldd	r26, Z+55	; 0x37
    1b7e:	a5 a9       	ldd	r26, Z+53	; 0x35
    1b80:	a6 99       	sbic	0x14, 6	; 20
    1b82:	9d 9e       	mul	r9, r29
    1b84:	95 8d       	ldd	r25, Z+29	; 0x1d
    1b86:	87 7f       	andi	r24, 0xF7	; 247
    1b88:	86 75       	andi	r24, 0x56	; 86
    1b8a:	67 69       	ori	r22, 0x97	; 151
    1b8c:	6a 73       	andi	r22, 0x3A	; 58
    1b8e:	6a 75       	andi	r22, 0x5A	; 90
    1b90:	74 78       	andi	r23, 0x84	; 132
    1b92:	83 6a       	ori	r24, 0xA3	; 163
    1b94:	64 66       	ori	r22, 0x64	; 100
    1b96:	61 63       	ori	r22, 0x31	; 49
    1b98:	49 45       	sbci	r20, 0x59	; 89
    1b9a:	4a 49       	sbci	r20, 0x9A	; 154
    1b9c:	38 43       	sbci	r19, 0x38	; 56
    1b9e:	5a 63       	ori	r21, 0x3A	; 58
    1ba0:	68 6b       	ori	r22, 0xB8	; 184
    1ba2:	6a 6f       	ori	r22, 0xFA	; 250
    1ba4:	7f 7c       	andi	r23, 0xCF	; 207
    1ba6:	75 6e       	ori	r23, 0xE5	; 229
    1ba8:	65 5c       	subi	r22, 0xC5	; 197
    1baa:	58 58       	subi	r21, 0x88	; 136
    1bac:	65 62       	ori	r22, 0x25	; 37
    1bae:	60 6b       	ori	r22, 0xB0	; 176
    1bb0:	87 96       	adiw	r24, 0x27	; 39
    1bb2:	92 91       	ld	r25, -Z
    1bb4:	88 78       	andi	r24, 0x88	; 136
    1bb6:	81 7c       	andi	r24, 0xC1	; 193
    1bb8:	6e 7b       	andi	r22, 0xBE	; 190
    1bba:	7b 74       	andi	r23, 0x4B	; 75
    1bbc:	6b 67       	ori	r22, 0x7B	; 123
    1bbe:	72 6c       	ori	r23, 0xC2	; 194
    1bc0:	5c 59       	subi	r21, 0x9C	; 156
    1bc2:	6d 76       	andi	r22, 0x6D	; 109
    1bc4:	79 84       	ldd	r7, Y+9	; 0x09
    1bc6:	8d 8c       	ldd	r8, Y+29	; 0x1d
    1bc8:	9b a7       	std	Y+43, r25	; 0x2b
    1bca:	92 a1       	ldd	r25, Z+34	; 0x22
    1bcc:	9e 88       	ldd	r9, Y+22	; 0x16
    1bce:	8c 84       	ldd	r8, Y+12	; 0x0c
    1bd0:	8d 8e       	std	Y+29, r8	; 0x1d
    1bd2:	81 7f       	andi	r24, 0xF1	; 241
    1bd4:	95 9b       	sbis	0x12, 5	; 18
    1bd6:	92 96       	adiw	r26, 0x22	; 34
    1bd8:	99 90       	ld	r9, Y+
    1bda:	9c a1       	ldd	r25, Y+36	; 0x24
    1bdc:	84 8d       	ldd	r24, Z+28	; 0x1c
    1bde:	99 90       	ld	r9, Y+
    1be0:	89 81       	ldd	r24, Y+1	; 0x01
    1be2:	87 8e       	std	Z+31, r8	; 0x1f
    1be4:	7e 79       	andi	r23, 0x9E	; 158
    1be6:	95 a2       	std	Z+37, r9	; 0x25
    1be8:	99 a1       	ldd	r25, Y+33	; 0x21
    1bea:	a1 9b       	sbis	0x14, 1	; 20
    1bec:	9a a5       	ldd	r25, Y+42	; 0x2a
    1bee:	9f 9a       	sbi	0x13, 7	; 19
    1bf0:	a1 90       	ld	r10, Z+
    1bf2:	81 77       	andi	r24, 0x71	; 113
    1bf4:	74 79       	andi	r23, 0x94	; 148
    1bf6:	6a 57       	subi	r22, 0x7A	; 122
    1bf8:	6d 7d       	andi	r22, 0xDD	; 221
    1bfa:	88 9e       	mul	r8, r24
    1bfc:	9d 91       	ld	r25, X+
    1bfe:	8b 85       	ldd	r24, Y+11	; 0x0b
    1c00:	85 82       	std	Z+5, r8	; 0x05
    1c02:	90 97       	sbiw	r26, 0x20	; 32
    1c04:	93 82       	std	Z+3, r9	; 0x03
    1c06:	89 91       	ld	r24, Y+
    1c08:	88 6e       	ori	r24, 0xE8	; 232
    1c0a:	7f 8f       	std	Y+31, r23	; 0x1f
    1c0c:	86 9a       	sbi	0x10, 6	; 16
    1c0e:	93 96       	adiw	r26, 0x23	; 35
    1c10:	9b 9a       	sbi	0x13, 3	; 19
    1c12:	93 9b       	sbis	0x12, 3	; 18
    1c14:	8a 81       	ldd	r24, Y+2	; 0x02
    1c16:	83 78       	andi	r24, 0x83	; 131
    1c18:	7a 7c       	andi	r23, 0xCA	; 202
    1c1a:	76 62       	ori	r23, 0x26	; 38
    1c1c:	73 80       	ldd	r7, Z+3	; 0x03
    1c1e:	79 83       	std	Y+1, r23	; 0x01
    1c20:	7b 74       	andi	r23, 0x4B	; 75
    1c22:	6d 6c       	ori	r22, 0xCD	; 205
    1c24:	5b 6a       	ori	r21, 0xAB	; 171
    1c26:	6b 5b       	subi	r22, 0xBB	; 187
    1c28:	62 43       	sbci	r22, 0x32	; 50
    1c2a:	41 40       	sbci	r20, 0x01	; 1
    1c2c:	49 2c       	mov	r4, r9
    1c2e:	34 56       	subi	r19, 0x64	; 100
    1c30:	5e 73       	andi	r21, 0x3E	; 62
    1c32:	75 7e       	andi	r23, 0xE5	; 229
    1c34:	76 76       	andi	r23, 0x66	; 102
    1c36:	68 78       	andi	r22, 0x88	; 136
    1c38:	80 6b       	ori	r24, 0xB0	; 176
    1c3a:	70 6a       	ori	r23, 0xA0	; 160
    1c3c:	6c 71       	andi	r22, 0x1C	; 28
    1c3e:	78 5f       	subi	r23, 0xF8	; 248
    1c40:	5d 74       	andi	r21, 0x4D	; 77
    1c42:	78 87       	std	Y+8, r23	; 0x08
    1c44:	7d 80       	ldd	r7, Y+5	; 0x05
    1c46:	7e 75       	andi	r23, 0x5E	; 94
    1c48:	6b 6e       	ori	r22, 0xEB	; 235
    1c4a:	7f 6e       	ori	r23, 0xEF	; 239
    1c4c:	81 70       	andi	r24, 0x01	; 1
    1c4e:	6f 75       	andi	r22, 0x5F	; 95
    1c50:	7c 76       	andi	r23, 0x6C	; 108
    1c52:	64 78       	andi	r22, 0x84	; 132
    1c54:	78 8a       	std	Y+16, r7	; 0x10
    1c56:	7f 88       	ldd	r7, Y+23	; 0x17
    1c58:	8a 8f       	std	Y+26, r24	; 0x1a
    1c5a:	87 99       	sbic	0x10, 7	; 16
    1c5c:	aa 97       	sbiw	r28, 0x2a	; 42
    1c5e:	a0 86       	std	Z+8, r10	; 0x08
    1c60:	81 84       	ldd	r8, Z+9	; 0x09
    1c62:	84 82       	std	Z+4, r8	; 0x04
    1c64:	77 80       	ldd	r7, Z+7	; 0x07
    1c66:	8d a4       	ldd	r8, Y+45	; 0x2d
    1c68:	a2 9b       	sbis	0x14, 2	; 20
    1c6a:	98 8f       	std	Y+24, r25	; 0x18
    1c6c:	7f 85       	ldd	r23, Y+15	; 0x0f
    1c6e:	97 93       	lat	Z, r25
    1c70:	a9 97       	sbiw	r28, 0x29	; 41
    1c72:	90 99       	sbic	0x12, 0	; 18
    1c74:	94 8f       	std	Z+28, r25	; 0x1c
    1c76:	7e 80       	ldd	r7, Y+6	; 0x06
    1c78:	8e 9d       	mul	r24, r14
    1c7a:	93 98       	cbi	0x12, 3	; 18
    1c7c:	98 96       	adiw	r26, 0x28	; 40
    1c7e:	8a 88       	ldd	r8, Y+18	; 0x12
    1c80:	98 79       	andi	r25, 0x98	; 152
    1c82:	82 77       	andi	r24, 0x72	; 114
    1c84:	78 7d       	andi	r23, 0xD8	; 216
    1c86:	81 83       	std	Z+1, r24	; 0x01
    1c88:	79 7c       	andi	r23, 0xC9	; 201
    1c8a:	86 95       	lsr	r24
    1c8c:	8c 86       	std	Y+12, r8	; 0x0c
    1c8e:	86 83       	std	Z+6, r24	; 0x06
    1c90:	78 7c       	andi	r23, 0xC8	; 200
    1c92:	98 9c       	mul	r9, r8
    1c94:	9d 94 7f 7b 	jmp	0x26f6fe	; 0x26f6fe <__data_load_end+0x25ced4>
    1c98:	73 79       	andi	r23, 0x93	; 147
    1c9a:	70 75       	andi	r23, 0x50	; 80
    1c9c:	85 94       	asr	r8
    1c9e:	9b a3       	std	Y+35, r25	; 0x23
    1ca0:	a5 9f       	mul	r26, r21
    1ca2:	98 84       	ldd	r9, Y+8	; 0x08
    1ca4:	95 98       	cbi	0x12, 5	; 18
    1ca6:	91 91       	ld	r25, Z+
    1ca8:	84 82       	std	Z+4, r8	; 0x04
    1caa:	79 6d       	ori	r23, 0xD9	; 217
    1cac:	64 5c       	subi	r22, 0xC4	; 196
    1cae:	62 76       	andi	r22, 0x62	; 98
    1cb0:	7c 72       	andi	r23, 0x2C	; 44
    1cb2:	70 71       	andi	r23, 0x10	; 16
    1cb4:	6a 53       	subi	r22, 0x3A	; 58
    1cb6:	55 5b       	subi	r21, 0xB5	; 181
    1cb8:	50 52       	subi	r21, 0x20	; 32
    1cba:	52 5c       	subi	r21, 0xC2	; 194
    1cbc:	5c 60       	ori	r21, 0x0C	; 12
    1cbe:	57 57       	subi	r21, 0x77	; 119
    1cc0:	5a 64       	ori	r21, 0x4A	; 74
    1cc2:	6d 5e       	subi	r22, 0xED	; 237
    1cc4:	65 66       	ori	r22, 0x65	; 101
    1cc6:	72 6c       	ori	r23, 0xC2	; 194
    1cc8:	71 7f       	andi	r23, 0xF1	; 241
    1cca:	82 80       	ldd	r8, Z+2	; 0x02
    1ccc:	72 65       	ori	r23, 0x52	; 82
    1cce:	67 68       	ori	r22, 0x87	; 135
    1cd0:	6b 6e       	ori	r22, 0xEB	; 235
    1cd2:	70 81       	ld	r23, Z
    1cd4:	96 8c       	ldd	r9, Z+30	; 0x1e
    1cd6:	85 85       	ldd	r24, Z+13	; 0x0d
    1cd8:	7a 6c       	ori	r23, 0xCA	; 202
    1cda:	68 81       	ld	r22, Y
    1cdc:	87 88       	ldd	r8, Z+23	; 0x17
    1cde:	85 7b       	andi	r24, 0xB5	; 181
    1ce0:	79 77       	andi	r23, 0x79	; 121
    1ce2:	71 69       	ori	r23, 0x91	; 145
    1ce4:	68 71       	andi	r22, 0x18	; 24
    1ce6:	89 8a       	std	Y+17, r8	; 0x11
    1ce8:	8a 8d       	ldd	r24, Y+26	; 0x1a
    1cea:	90 8d       	ldd	r25, Z+24	; 0x18
    1cec:	83 84       	ldd	r8, Z+11	; 0x0b
    1cee:	85 8b       	std	Z+21, r24	; 0x15
    1cf0:	8e 8d       	ldd	r24, Y+30	; 0x1e
    1cf2:	9a a0       	ldd	r9, Y+34	; 0x22
    1cf4:	99 97       	sbiw	r26, 0x29	; 41
    1cf6:	8f 8f       	std	Y+31, r24	; 0x1f
    1cf8:	9c 8f       	std	Y+28, r25	; 0x1c
    1cfa:	85 8e       	std	Z+29, r8	; 0x1d
    1cfc:	8d 90       	ld	r8, X+
    1cfe:	8b 9f       	mul	r24, r27
    1d00:	9d 9c       	mul	r9, r13
    1d02:	92 81       	ldd	r25, Z+2	; 0x02
    1d04:	7c 7a       	andi	r23, 0xAC	; 172
    1d06:	85 81       	ldd	r24, Z+5	; 0x05
    1d08:	87 86       	std	Z+15, r8	; 0x0f
    1d0a:	9f 9f       	mul	r25, r31
    1d0c:	98 9b       	sbis	0x13, 0	; 19
    1d0e:	92 8d       	ldd	r25, Z+26	; 0x1a
    1d10:	81 7f       	andi	r24, 0xF1	; 241
    1d12:	87 8c       	ldd	r8, Z+31	; 0x1f
    1d14:	8a 7c       	andi	r24, 0xCA	; 202
    1d16:	78 7b       	andi	r23, 0xB8	; 184
    1d18:	80 7b       	andi	r24, 0xB0	; 176
    1d1a:	78 7a       	andi	r23, 0xA8	; 168
    1d1c:	90 9c       	mul	r9, r0
    1d1e:	87 8e       	std	Z+31, r8	; 0x1f
    1d20:	8a 81       	ldd	r24, Y+2	; 0x02
    1d22:	77 7e       	andi	r23, 0xE7	; 231
    1d24:	84 85       	ldd	r24, Z+12	; 0x0c
    1d26:	89 88       	ldd	r8, Y+17	; 0x11
    1d28:	8b 8d       	ldd	r24, Y+27	; 0x1b
    1d2a:	95 88       	ldd	r9, Z+21	; 0x15
    1d2c:	82 78       	andi	r24, 0x82	; 130
    1d2e:	83 8a       	std	Z+19, r8	; 0x13
    1d30:	80 86       	std	Z+8, r8	; 0x08
    1d32:	98 9c       	mul	r9, r8
    1d34:	95 90       	lpm	r9, Z+
    1d36:	95 90       	lpm	r9, Z+
    1d38:	8b 7b       	andi	r24, 0xBB	; 187
    1d3a:	67 6b       	ori	r22, 0xB7	; 183
    1d3c:	66 68       	ori	r22, 0x86	; 134
    1d3e:	6e 72       	andi	r22, 0x2E	; 46
    1d40:	7d 85       	ldd	r23, Y+13	; 0x0d
    1d42:	77 76       	andi	r23, 0x67	; 103
    1d44:	75 6a       	ori	r23, 0xA5	; 165
    1d46:	59 5c       	subi	r21, 0xC9	; 201
    1d48:	6e 6c       	ori	r22, 0xCE	; 206
    1d4a:	68 60       	ori	r22, 0x08	; 8
    1d4c:	5a 5d       	subi	r21, 0xDA	; 218
    1d4e:	62 55       	subi	r22, 0x52	; 82
    1d50:	55 53       	subi	r21, 0x35	; 53
    1d52:	66 77       	andi	r22, 0x76	; 118
    1d54:	74 6c       	ori	r23, 0xC4	; 196
    1d56:	70 63       	ori	r23, 0x30	; 48
    1d58:	5c 55       	subi	r21, 0x5C	; 92
    1d5a:	61 6a       	ori	r22, 0xA1	; 161
    1d5c:	6f 7c       	andi	r22, 0xCF	; 207
    1d5e:	81 86       	std	Z+9, r8	; 0x09
    1d60:	8b 85       	ldd	r24, Y+11	; 0x0b
    1d62:	79 79       	andi	r23, 0x99	; 153
    1d64:	7a 7f       	andi	r23, 0xFA	; 250
    1d66:	73 74       	andi	r23, 0x43	; 67
    1d68:	84 89       	ldd	r24, Z+20	; 0x14
    1d6a:	7c 78       	andi	r23, 0x8C	; 140
    1d6c:	7e 85       	ldd	r23, Y+14	; 0x0e
    1d6e:	7f 72       	andi	r23, 0x2F	; 47
    1d70:	6f 6b       	ori	r22, 0xBF	; 191
    1d72:	74 78       	andi	r23, 0x84	; 132
    1d74:	79 7b       	andi	r23, 0xB9	; 185
    1d76:	80 8b       	std	Z+16, r24	; 0x10
    1d78:	8a 84       	ldd	r8, Y+10	; 0x0a
    1d7a:	86 86       	std	Z+14, r8	; 0x0e
    1d7c:	7f 81       	ldd	r23, Y+7	; 0x07
    1d7e:	86 8b       	std	Z+22, r24	; 0x16
    1d80:	8a 87       	std	Y+10, r24	; 0x0a
    1d82:	85 89       	ldd	r24, Z+21	; 0x15
    1d84:	8f 8c       	ldd	r8, Y+31	; 0x1f
    1d86:	85 8b       	std	Z+21, r24	; 0x15
    1d88:	9a a8       	ldd	r9, Y+50	; 0x32
    1d8a:	a9 9f       	mul	r26, r25
    1d8c:	9c 90       	ld	r9, X
    1d8e:	80 77       	andi	r24, 0x70	; 112
    1d90:	78 82       	st	Y, r7
    1d92:	87 89       	ldd	r24, Z+23	; 0x17
    1d94:	85 8e       	std	Z+29, r8	; 0x1d
    1d96:	95 97       	sbiw	r26, 0x25	; 37
    1d98:	89 87       	std	Y+9, r24	; 0x09
    1d9a:	81 88       	ldd	r8, Z+17	; 0x11
    1d9c:	89 89       	ldd	r24, Y+17	; 0x11
    1d9e:	9c a3       	std	Y+36, r25	; 0x24
    1da0:	9a 8f       	std	Y+26, r25	; 0x1a
    1da2:	8e 86       	std	Y+14, r8	; 0x0e
    1da4:	81 7d       	andi	r24, 0xD1	; 209
    1da6:	73 73       	andi	r23, 0x33	; 51
    1da8:	78 7f       	andi	r23, 0xF8	; 248
    1daa:	7b 7b       	andi	r23, 0xBB	; 187
    1dac:	81 8d       	ldd	r24, Z+25	; 0x19
    1dae:	8d 7f       	andi	r24, 0xFD	; 253
    1db0:	83 90       	.word	0x9083	; ????
    1db2:	8e 8b       	std	Y+22, r24	; 0x16
    1db4:	94 9b       	sbis	0x12, 4	; 18
    1db6:	97 86       	std	Z+15, r9	; 0x0f
    1db8:	78 7b       	andi	r23, 0xB8	; 184
    1dba:	81 77       	andi	r24, 0x71	; 113
    1dbc:	7a 7e       	andi	r23, 0xEA	; 234
    1dbe:	85 8c       	ldd	r8, Z+29	; 0x1d
    1dc0:	96 90       	elpm	r9, Z
    1dc2:	8d 88       	ldd	r8, Y+21	; 0x15
    1dc4:	7f 72       	andi	r23, 0x2F	; 47
    1dc6:	70 74       	andi	r23, 0x40	; 64
    1dc8:	7d 85       	ldd	r23, Y+13	; 0x0d
    1dca:	7d 81       	ldd	r23, Y+5	; 0x05
    1dcc:	8b 84       	ldd	r8, Y+11	; 0x0b
    1dce:	7c 74       	andi	r23, 0x4C	; 76
    1dd0:	6c 6f       	ori	r22, 0xFC	; 252
    1dd2:	73 71       	andi	r23, 0x13	; 19
    1dd4:	76 80       	ldd	r7, Z+6	; 0x06
    1dd6:	78 72       	andi	r23, 0x28	; 40
    1dd8:	6d 6a       	ori	r22, 0xAD	; 173
    1dda:	68 64       	ori	r22, 0x48	; 72
    1ddc:	61 67       	ori	r22, 0x71	; 113
    1dde:	6f 6c       	ori	r22, 0xCF	; 207
    1de0:	6c 68       	ori	r22, 0x8C	; 140
    1de2:	65 64       	ori	r22, 0x45	; 69
    1de4:	65 5a       	subi	r22, 0xA5	; 165
    1de6:	58 64       	ori	r21, 0x48	; 72
    1de8:	6b 74       	andi	r22, 0x4B	; 75
    1dea:	79 7b       	andi	r23, 0xB9	; 185
    1dec:	79 77       	andi	r23, 0x79	; 121
    1dee:	6d 71       	andi	r22, 0x1D	; 29
    1df0:	78 7e       	andi	r23, 0xE8	; 232
    1df2:	86 87       	std	Z+14, r24	; 0x0e
    1df4:	84 88       	ldd	r8, Z+20	; 0x14
    1df6:	98 95       	break
    1df8:	83 7c       	andi	r24, 0xC3	; 195
    1dfa:	6e 64       	ori	r22, 0x4E	; 78
    1dfc:	60 66       	ori	r22, 0x60	; 96
    1dfe:	72 7b       	andi	r23, 0xB2	; 178
    1e00:	78 80       	ld	r7, Y
    1e02:	85 84       	ldd	r8, Z+13	; 0x0d
    1e04:	87 86       	std	Z+15, r8	; 0x0f
    1e06:	86 84       	ldd	r8, Z+14	; 0x0e
    1e08:	89 89       	ldd	r24, Y+17	; 0x11
    1e0a:	84 87       	std	Z+12, r24	; 0x0c
    1e0c:	88 88       	ldd	r8, Y+16	; 0x10
    1e0e:	7e 6f       	ori	r23, 0xFE	; 254
    1e10:	6c 72       	andi	r22, 0x2C	; 44
    1e12:	79 85       	ldd	r23, Y+9	; 0x09
    1e14:	94 9c       	mul	r9, r4
    1e16:	99 91       	ld	r25, Y+
    1e18:	89 86       	std	Y+9, r8	; 0x09
    1e1a:	8a 8b       	std	Y+18, r24	; 0x12
    1e1c:	83 8d       	ldd	r24, Z+27	; 0x1b
    1e1e:	8f 97       	sbiw	r24, 0x2f	; 47
    1e20:	9a 94       	dec	r9
    1e22:	91 8d       	ldd	r25, Z+25	; 0x19
    1e24:	7f 78       	andi	r23, 0x8F	; 143
    1e26:	77 80       	ldd	r7, Z+7	; 0x07
    1e28:	88 91       	.word	0x9188	; ????
    1e2a:	90 8f       	std	Z+24, r25	; 0x18
    1e2c:	9a 93       	st	-Y, r25
    1e2e:	87 80       	ldd	r8, Z+7	; 0x07
    1e30:	7e 79       	andi	r23, 0x9E	; 158
    1e32:	75 6c       	ori	r23, 0xC5	; 197
    1e34:	73 76       	andi	r23, 0x63	; 99
    1e36:	76 78       	andi	r23, 0x86	; 134
    1e38:	7e 81       	ldd	r23, Y+6	; 0x06
    1e3a:	83 83       	std	Z+3, r24	; 0x03
    1e3c:	81 88       	ldd	r8, Z+17	; 0x11
    1e3e:	8e 91       	ld	r24, -X
    1e40:	87 8d       	ldd	r24, Z+31	; 0x1f
    1e42:	8e 89       	ldd	r24, Y+22	; 0x16
    1e44:	7f 75       	andi	r23, 0x5F	; 95
    1e46:	7a 76       	andi	r23, 0x6A	; 106
    1e48:	7d 83       	std	Y+5, r23	; 0x05
    1e4a:	8d 95 97 92 	jmp	0x63252e	; 0x63252e <__data_load_end+0x61fd04>
    1e4e:	84 7c       	andi	r24, 0xC4	; 196
    1e50:	85 84       	ldd	r8, Z+13	; 0x0d
    1e52:	70 73       	andi	r23, 0x30	; 48
    1e54:	80 8c       	ldd	r8, Z+24	; 0x18
    1e56:	93 91       	.word	0x9193	; ????
    1e58:	8d 83       	std	Y+5, r24	; 0x05
    1e5a:	70 67       	ori	r23, 0x70	; 112
    1e5c:	66 7b       	andi	r22, 0xB6	; 182
    1e5e:	78 7f       	andi	r23, 0xF8	; 248
    1e60:	8a 8a       	std	Y+18, r8	; 0x12
    1e62:	92 91       	ld	r25, -Z
    1e64:	82 73       	andi	r24, 0x32	; 50
    1e66:	70 69       	ori	r23, 0x90	; 144
    1e68:	64 66       	ori	r22, 0x64	; 100
    1e6a:	6a 78       	andi	r22, 0x8A	; 138
    1e6c:	77 6c       	ori	r23, 0xC7	; 199
    1e6e:	67 63       	ori	r22, 0x37	; 55
    1e70:	6a 67       	ori	r22, 0x7A	; 122
    1e72:	6f 7c       	andi	r22, 0xCF	; 207
    1e74:	91 8e       	std	Z+25, r9	; 0x19
    1e76:	81 74       	andi	r24, 0x41	; 65
    1e78:	72 6a       	ori	r23, 0xA2	; 162
    1e7a:	6a 5d       	subi	r22, 0xDA	; 218
    1e7c:	5d 65       	ori	r21, 0x5D	; 93
    1e7e:	72 83       	std	Z+2, r23	; 0x02
    1e80:	84 93       	xch	Z, r24
    1e82:	91 89       	ldd	r25, Z+17	; 0x11
    1e84:	76 6a       	ori	r23, 0xA6	; 166
    1e86:	78 81       	ld	r23, Y
    1e88:	76 7c       	andi	r23, 0xC6	; 198
    1e8a:	86 8c       	ldd	r8, Z+30	; 0x1e
    1e8c:	8b 7d       	andi	r24, 0xDB	; 219
    1e8e:	7b 7e       	andi	r23, 0xEB	; 235
    1e90:	76 6d       	ori	r23, 0xD6	; 214
    1e92:	73 82       	std	Z+3, r7	; 0x03
    1e94:	8a 8f       	std	Y+26, r24	; 0x1a
    1e96:	8f 8a       	std	Y+23, r8	; 0x17
    1e98:	8c 8e       	std	Y+28, r8	; 0x1c
    1e9a:	81 7a       	andi	r24, 0xA1	; 161
    1e9c:	74 79       	andi	r23, 0x94	; 148
    1e9e:	7a 71       	andi	r23, 0x1A	; 26
    1ea0:	74 7b       	andi	r23, 0xB4	; 180
    1ea2:	76 72       	andi	r23, 0x26	; 38
    1ea4:	74 84       	ldd	r7, Z+12	; 0x0c
    1ea6:	8e 8b       	std	Y+22, r24	; 0x16
    1ea8:	91 92       	st	Z+, r9
    1eaa:	a0 a1       	ldd	r26, Z+32	; 0x20
    1eac:	97 8e       	std	Z+31, r9	; 0x1f
    1eae:	81 82       	std	Z+1, r8	; 0x01
    1eb0:	7c 74       	andi	r23, 0x4C	; 76
    1eb2:	6e 78       	andi	r22, 0x8E	; 142
    1eb4:	80 82       	st	Z, r8
    1eb6:	8e 91       	ld	r24, -X
    1eb8:	97 8f       	std	Z+31, r25	; 0x1f
    1eba:	8c 83       	std	Y+4, r24	; 0x04
    1ebc:	86 88       	ldd	r8, Z+22	; 0x16
    1ebe:	80 7d       	andi	r24, 0xD0	; 208
    1ec0:	80 83       	st	Z, r24
    1ec2:	84 79       	andi	r24, 0x94	; 148
    1ec4:	6e 6f       	ori	r22, 0xFE	; 254
    1ec6:	67 65       	ori	r22, 0x57	; 87
    1ec8:	64 77       	andi	r22, 0x74	; 116
    1eca:	88 8d       	ldd	r24, Y+24	; 0x18
    1ecc:	97 8c       	ldd	r9, Z+31	; 0x1f
    1ece:	8f 95 8c 8c 	call	0x631918	; 0x631918 <__data_load_end+0x61f0ee>
    1ed2:	7f 7f       	andi	r23, 0xFF	; 255
    1ed4:	83 7f       	andi	r24, 0xF3	; 243
    1ed6:	7d 7a       	andi	r23, 0xAD	; 173
    1ed8:	7b 74       	andi	r23, 0x4B	; 75
    1eda:	78 7d       	andi	r23, 0xD8	; 216
    1edc:	88 8e       	std	Y+24, r8	; 0x18
    1ede:	94 92       	xch	Z, r9
    1ee0:	9a a3       	std	Y+34, r25	; 0x22
    1ee2:	90 81       	ld	r25, Z
    1ee4:	73 72       	andi	r23, 0x23	; 35
    1ee6:	76 69       	ori	r23, 0x96	; 150
    1ee8:	66 6d       	ori	r22, 0xD6	; 214
    1eea:	79 7d       	andi	r23, 0xD9	; 217
    1eec:	7d 7f       	andi	r23, 0xFD	; 253
    1eee:	86 8b       	std	Z+22, r24	; 0x16
    1ef0:	8e 80       	ldd	r8, Y+6	; 0x06
    1ef2:	80 8a       	std	Z+16, r8	; 0x10
    1ef4:	84 8c       	ldd	r8, Z+28	; 0x1c
    1ef6:	85 82       	std	Z+5, r8	; 0x05
    1ef8:	81 78       	andi	r24, 0x81	; 129
    1efa:	73 6c       	ori	r23, 0xC3	; 195
    1efc:	6c 5e       	subi	r22, 0xEC	; 236
    1efe:	5e 6b       	ori	r21, 0xBE	; 190
    1f00:	75 83       	std	Z+5, r23	; 0x05
    1f02:	81 87       	std	Z+9, r24	; 0x09
    1f04:	7d 8f       	std	Y+29, r23	; 0x1d
    1f06:	8a 7c       	andi	r24, 0xCA	; 202
    1f08:	7b 6e       	ori	r23, 0xEB	; 235
    1f0a:	79 79       	andi	r23, 0x99	; 153
    1f0c:	76 6e       	ori	r23, 0xE6	; 230
    1f0e:	6d 6c       	ori	r22, 0xCD	; 205
    1f10:	64 73       	andi	r22, 0x34	; 52
    1f12:	7a 82       	std	Y+2, r7	; 0x02
    1f14:	8e 95 8a 96 	call	0x612d14	; 0x612d14 <__data_load_end+0x6004ea>
    1f18:	8d 7c       	andi	r24, 0xCD	; 205
    1f1a:	82 6f       	ori	r24, 0xF2	; 242
    1f1c:	70 70       	andi	r23, 0x00	; 0
    1f1e:	73 77       	andi	r23, 0x73	; 115
    1f20:	86 86       	std	Z+14, r8	; 0x0e
    1f22:	80 92 87 89 	sts	0x8987, r8
    1f26:	91 94       	neg	r9
    1f28:	76 85       	ldd	r23, Z+14	; 0x0e
    1f2a:	8e 7e       	andi	r24, 0xEE	; 238
    1f2c:	8d 76       	andi	r24, 0x6D	; 109
    1f2e:	74 77       	andi	r23, 0x74	; 116
    1f30:	6d 67       	ori	r22, 0x7D	; 125
    1f32:	64 66       	ori	r22, 0x64	; 100
    1f34:	5d 7e       	andi	r21, 0xED	; 237
    1f36:	88 84       	ldd	r8, Y+8	; 0x08
    1f38:	95 9b       	sbis	0x12, 5	; 18
    1f3a:	91 91       	ld	r25, Z+
    1f3c:	9a 84       	ldd	r9, Y+10	; 0x0a
    1f3e:	8e 87       	std	Y+14, r24	; 0x0e
    1f40:	7b 88       	ldd	r7, Y+19	; 0x13
    1f42:	84 89       	ldd	r24, Z+20	; 0x14
    1f44:	7a 73       	andi	r23, 0x3A	; 58
    1f46:	6b 79       	andi	r22, 0x9B	; 155
    1f48:	8b 83       	std	Y+3, r24	; 0x03
    1f4a:	8c 9c       	mul	r8, r12
    1f4c:	96 94       	lsr	r9
    1f4e:	8f 7e       	andi	r24, 0xEF	; 239
    1f50:	76 6d       	ori	r23, 0xD6	; 214
    1f52:	58 58       	subi	r21, 0x88	; 136
    1f54:	65 6e       	ori	r22, 0xE5	; 229
    1f56:	7b 73       	andi	r23, 0x3B	; 59
    1f58:	76 79       	andi	r23, 0x96	; 150
    1f5a:	8b 82       	std	Y+3, r8	; 0x03
    1f5c:	7e 9b       	sbis	0x0f, 6	; 15
    1f5e:	93 8a       	std	Z+19, r9	; 0x13
    1f60:	96 96       	adiw	r26, 0x26	; 38
    1f62:	8f 94 83 65 	call	0x22cb06	; 0x22cb06 <__data_load_end+0x21a2dc>
    1f66:	72 74       	andi	r23, 0x42	; 66
    1f68:	73 6d       	ori	r23, 0xD3	; 211
    1f6a:	68 6e       	ori	r22, 0xE8	; 232
    1f6c:	85 91       	lpm	r24, Z+
    1f6e:	7a 94       	dec	r7
    1f70:	97 8b       	std	Z+23, r25	; 0x17
    1f72:	8e 8d       	ldd	r24, Y+30	; 0x1e
    1f74:	86 81       	ldd	r24, Z+6	; 0x06
    1f76:	80 6c       	ori	r24, 0xC0	; 192
    1f78:	7a 82       	std	Y+2, r7	; 0x02
    1f7a:	7e 73       	andi	r23, 0x3E	; 62
    1f7c:	67 72       	andi	r22, 0x27	; 39
    1f7e:	7b 8b       	std	Y+19, r23	; 0x13
    1f80:	79 86       	std	Y+9, r7	; 0x09
    1f82:	92 8b       	std	Z+18, r25	; 0x12
    1f84:	85 79       	andi	r24, 0x95	; 149
    1f86:	74 69       	ori	r23, 0x94	; 148
    1f88:	70 5c       	subi	r23, 0xC0	; 192
    1f8a:	6a 78       	andi	r22, 0x8A	; 138
    1f8c:	80 87       	std	Z+8, r24	; 0x08
    1f8e:	7b 82       	std	Y+3, r7	; 0x03
    1f90:	7d 82       	std	Y+5, r7	; 0x05
    1f92:	7b 88       	ldd	r7, Y+19	; 0x13
    1f94:	96 93       	lac	Z, r25
    1f96:	95 91       	lpm	r25, Z+
    1f98:	8d 80       	ldd	r8, Y+5	; 0x05
    1f9a:	76 5d       	subi	r23, 0xD6	; 214
    1f9c:	56 63       	ori	r21, 0x36	; 54
    1f9e:	60 6c       	ori	r22, 0xC0	; 192
    1fa0:	69 71       	andi	r22, 0x19	; 25
    1fa2:	7a 88       	ldd	r7, Y+18	; 0x12
    1fa4:	83 7f       	andi	r24, 0xF3	; 243
    1fa6:	8f 8f       	std	Y+31, r24	; 0x1f
    1fa8:	8f 92       	push	r8
    1faa:	8f 89       	ldd	r24, Y+23	; 0x17
    1fac:	8f 81       	ldd	r24, Y+7	; 0x07
    1fae:	7a 88       	ldd	r7, Y+18	; 0x12
    1fb0:	7f 7f       	andi	r23, 0xFF	; 255
    1fb2:	80 7d       	andi	r24, 0xD0	; 208
    1fb4:	81 88       	ldd	r8, Z+17	; 0x11
    1fb6:	8c 83       	std	Y+4, r24	; 0x04
    1fb8:	92 8f       	std	Z+26, r25	; 0x1a
    1fba:	81 7b       	andi	r24, 0xB1	; 177
    1fbc:	71 6b       	ori	r23, 0xB1	; 177
    1fbe:	6a 66       	ori	r22, 0x6A	; 106
    1fc0:	5d 75       	andi	r21, 0x5D	; 93
    1fc2:	79 83       	std	Y+1, r23	; 0x01
    1fc4:	86 7c       	andi	r24, 0xC6	; 198
    1fc6:	7d 85       	ldd	r23, Y+13	; 0x0d
    1fc8:	8a 86       	std	Y+10, r8	; 0x0a
    1fca:	92 9e       	mul	r9, r18
    1fcc:	93 97       	sbiw	r26, 0x23	; 35
    1fce:	98 8a       	std	Y+16, r9	; 0x10
    1fd0:	87 73       	andi	r24, 0x37	; 55
    1fd2:	63 74       	andi	r22, 0x43	; 67
    1fd4:	77 75       	andi	r23, 0x57	; 87
    1fd6:	7a 7a       	andi	r23, 0xAA	; 170
    1fd8:	82 8a       	std	Z+18, r8	; 0x12
    1fda:	86 7c       	andi	r24, 0xC6	; 198
    1fdc:	85 90       	lpm	r8, Z+
    1fde:	88 81       	ld	r24, Y
    1fe0:	84 7d       	andi	r24, 0xD4	; 212
    1fe2:	7d 78       	andi	r23, 0x8D	; 141
    1fe4:	66 71       	andi	r22, 0x16	; 22
    1fe6:	74 6f       	ori	r23, 0xF4	; 244
    1fe8:	7b 79       	andi	r23, 0x9B	; 155
    1fea:	7f 87       	std	Y+15, r23	; 0x0f
    1fec:	88 86       	std	Y+8, r8	; 0x08
    1fee:	8c 98       	cbi	0x11, 4	; 17
    1ff0:	86 78       	andi	r24, 0x86	; 134
    1ff2:	7b 74       	andi	r23, 0x4B	; 75
    1ff4:	7a 74       	andi	r23, 0x4A	; 74
    1ff6:	68 74       	andi	r22, 0x48	; 72
    1ff8:	82 80       	ldd	r8, Z+2	; 0x02
    1ffa:	85 83       	std	Z+5, r24	; 0x05
    1ffc:	7e 87       	std	Y+14, r23	; 0x0e
    1ffe:	8f 88       	ldd	r8, Y+23	; 0x17
    2000:	90 9f       	mul	r25, r16
    2002:	9a 93       	st	-Y, r25
    2004:	8a 7c       	andi	r24, 0xCA	; 202
    2006:	75 70       	andi	r23, 0x05	; 5
    2008:	5d 62       	ori	r21, 0x2D	; 45
    200a:	70 71       	andi	r23, 0x10	; 16
    200c:	76 78       	andi	r23, 0x86	; 134
    200e:	76 78       	andi	r23, 0x86	; 134
    2010:	7d 71       	andi	r23, 0x1D	; 29
    2012:	79 89       	ldd	r23, Y+17	; 0x11
    2014:	89 86       	std	Y+9, r8	; 0x09
    2016:	89 89       	ldd	r24, Y+17	; 0x11
    2018:	8e 89       	ldd	r24, Y+22	; 0x16
    201a:	76 72       	andi	r23, 0x26	; 38
    201c:	7f 80       	ldd	r7, Y+7	; 0x07
    201e:	84 84       	ldd	r8, Z+12	; 0x0c
    2020:	7c 85       	ldd	r23, Y+12	; 0x0c
    2022:	8b 82       	std	Y+3, r8	; 0x03
    2024:	7d 83       	std	Y+5, r23	; 0x05
    2026:	79 76       	andi	r23, 0x69	; 105
    2028:	6c 65       	ori	r22, 0x5C	; 92
    202a:	6e 70       	andi	r22, 0x0E	; 14
    202c:	6d 69       	ori	r22, 0x9D	; 157
    202e:	78 7d       	andi	r23, 0xD8	; 216
    2030:	81 85       	ldd	r24, Z+9	; 0x09
    2032:	7b 84       	ldd	r7, Y+11	; 0x0b
    2034:	8c 8c       	ldd	r8, Y+28	; 0x1c
    2036:	8d 9d       	mul	r24, r13
    2038:	98 95       	break
    203a:	84 78       	andi	r24, 0x84	; 132
    203c:	76 72       	andi	r23, 0x26	; 38
    203e:	6d 61       	ori	r22, 0x1D	; 29
    2040:	7b 81       	ldd	r23, Y+3	; 0x03
    2042:	89 8e       	std	Y+25, r8	; 0x19
    2044:	88 85       	ldd	r24, Y+8	; 0x08
    2046:	89 85       	ldd	r24, Y+9	; 0x09
    2048:	80 88       	ldd	r8, Z+16	; 0x10
    204a:	82 84       	ldd	r8, Z+10	; 0x0a
    204c:	84 7a       	andi	r24, 0xA4	; 164
    204e:	7e 74       	andi	r23, 0x4E	; 78
    2050:	70 64       	ori	r23, 0x40	; 64
    2052:	70 79       	andi	r23, 0x90	; 144
    2054:	7e 89       	ldd	r23, Y+22	; 0x16
    2056:	83 87       	std	Z+11, r24	; 0x0b
    2058:	89 88       	ldd	r8, Y+17	; 0x11
    205a:	7f 8c       	ldd	r7, Y+31	; 0x1f
    205c:	83 85       	ldd	r24, Z+11	; 0x0b
    205e:	80 74       	andi	r24, 0x40	; 64
    2060:	7e 81       	ldd	r23, Y+6	; 0x06
    2062:	81 74       	andi	r24, 0x41	; 65
    2064:	7a 7a       	andi	r23, 0xAA	; 170
    2066:	7f 84       	ldd	r7, Y+15	; 0x0f
    2068:	7b 82       	std	Y+3, r7	; 0x03
    206a:	89 92       	st	Y+, r8
    206c:	8e 97       	sbiw	r24, 0x2e	; 46
    206e:	91 8d       	ldd	r25, Z+25	; 0x19
    2070:	89 72       	andi	r24, 0x29	; 41
    2072:	6b 69       	ori	r22, 0x9B	; 155
    2074:	66 5f       	subi	r22, 0xF6	; 246
    2076:	6c 76       	andi	r22, 0x6C	; 108
    2078:	7f 86       	std	Y+15, r7	; 0x0f
    207a:	7a 76       	andi	r23, 0x6A	; 106
    207c:	7d 85       	ldd	r23, Y+13	; 0x0d
    207e:	82 8c       	ldd	r8, Z+26	; 0x1a
    2080:	8a 8b       	std	Y+18, r24	; 0x12
    2082:	92 80       	ldd	r9, Z+2	; 0x02
    2084:	81 7f       	andi	r24, 0xF1	; 241
    2086:	7b 71       	andi	r23, 0x1B	; 27
    2088:	7b 84       	ldd	r7, Y+11	; 0x0b
    208a:	8e 9e       	mul	r8, r30
    208c:	93 8e       	std	Z+27, r9	; 0x1b
    208e:	85 86       	std	Z+13, r8	; 0x0d
    2090:	7b 7a       	andi	r23, 0xAB	; 171
    2092:	74 71       	andi	r23, 0x14	; 20
    2094:	76 6c       	ori	r23, 0xC6	; 198
    2096:	6e 79       	andi	r22, 0x9E	; 158
    2098:	7c 74       	andi	r23, 0x4C	; 76
    209a:	75 78       	andi	r23, 0x85	; 133
    209c:	7e 86       	std	Y+14, r7	; 0x0e
    209e:	7f 82       	std	Y+7, r7	; 0x07
    20a0:	87 92       	lat	Z, r8
    20a2:	90 90 8f 8b 	lds	r9, 0x8B8F
    20a6:	8a 75       	andi	r24, 0x5A	; 90
    20a8:	6a 6a       	ori	r22, 0xAA	; 170
    20aa:	70 6d       	ori	r23, 0xD0	; 208
    20ac:	73 7a       	andi	r23, 0xA3	; 163
    20ae:	7e 8c       	ldd	r7, Y+30	; 0x1e
    20b0:	83 83       	std	Z+3, r24	; 0x03
    20b2:	83 8b       	std	Z+19, r24	; 0x13
    20b4:	8c 8d       	ldd	r24, Y+28	; 0x1c
    20b6:	8e 88       	ldd	r8, Y+22	; 0x16
    20b8:	89 79       	andi	r24, 0x99	; 153
    20ba:	6c 68       	ori	r22, 0x8C	; 140
    20bc:	69 61       	ori	r22, 0x19	; 25
    20be:	66 72       	andi	r22, 0x26	; 38
    20c0:	7e 92       	st	-X, r7
    20c2:	8e 87       	std	Y+14, r24	; 0x0e
    20c4:	83 85       	ldd	r24, Z+11	; 0x0b
    20c6:	82 7d       	andi	r24, 0xD2	; 210
    20c8:	81 7e       	andi	r24, 0xE1	; 225
    20ca:	86 7f       	andi	r24, 0xF6	; 246
    20cc:	7c 7f       	andi	r23, 0xFC	; 252
    20ce:	82 80       	ldd	r8, Z+2	; 0x02
    20d0:	7d 84       	ldd	r7, Y+13	; 0x0d
    20d2:	81 8b       	std	Z+17, r24	; 0x11
    20d4:	89 87       	std	Y+9, r24	; 0x09
    20d6:	8d 90       	ld	r8, X+
    20d8:	92 88       	ldd	r9, Z+18	; 0x12
    20da:	84 7f       	andi	r24, 0xF4	; 244
    20dc:	7f 72       	andi	r23, 0x2F	; 47
    20de:	67 63       	ori	r22, 0x37	; 55
    20e0:	6a 6b       	ori	r22, 0xBA	; 186
    20e2:	6e 76       	andi	r22, 0x6E	; 110
    20e4:	79 83       	std	Y+1, r23	; 0x01
    20e6:	80 7a       	andi	r24, 0xA0	; 160
    20e8:	7e 85       	ldd	r23, Y+14	; 0x0e
    20ea:	8c 8f       	std	Y+28, r24	; 0x1c
    20ec:	94 96       	adiw	r26, 0x24	; 36
    20ee:	92 89       	ldd	r25, Z+18	; 0x12
    20f0:	7b 76       	andi	r23, 0x6B	; 107
    20f2:	77 73       	andi	r23, 0x37	; 55
    20f4:	76 7d       	andi	r23, 0xD6	; 214
    20f6:	87 93       	lat	Z, r24
    20f8:	8f 85       	ldd	r24, Y+15	; 0x0f
    20fa:	7f 7f       	andi	r23, 0xFF	; 255
    20fc:	78 74       	andi	r23, 0x48	; 72
    20fe:	72 75       	andi	r23, 0x52	; 82
    2100:	7a 78       	andi	r23, 0x8A	; 138
    2102:	74 73       	andi	r23, 0x34	; 52
    2104:	74 74       	andi	r23, 0x44	; 68
    2106:	71 76       	andi	r23, 0x61	; 97
    2108:	80 8a       	std	Z+16, r8	; 0x10
    210a:	8e 8b       	std	Y+22, r24	; 0x16
    210c:	8e 96       	adiw	r24, 0x2e	; 46
    210e:	92 8d       	ldd	r25, Z+26	; 0x1a
    2110:	87 80       	ldd	r8, Z+7	; 0x07
    2112:	7d 6f       	ori	r23, 0xFD	; 253
    2114:	6b 68       	ori	r22, 0x8B	; 139
    2116:	6d 74       	andi	r22, 0x4D	; 77
    2118:	74 7e       	andi	r23, 0xE4	; 228
    211a:	86 8c       	ldd	r8, Z+30	; 0x1e
    211c:	8b 84       	ldd	r8, Y+11	; 0x0b
    211e:	83 8d       	ldd	r24, Z+27	; 0x1b
    2120:	8e 8f       	std	Y+30, r24	; 0x1e
    2122:	8c 8c       	ldd	r8, Y+28	; 0x1c
    2124:	8a 7f       	andi	r24, 0xFA	; 250
    2126:	75 6b       	ori	r23, 0xB5	; 181
    2128:	6a 6b       	ori	r22, 0xBA	; 186
    212a:	69 75       	andi	r22, 0x59	; 89
    212c:	80 8e       	std	Z+24, r8	; 0x18
    212e:	8a 82       	std	Y+2, r8	; 0x02
    2130:	7c 7e       	andi	r23, 0xEC	; 236
    2132:	7e 7a       	andi	r23, 0xAE	; 174
    2134:	81 84       	ldd	r8, Z+9	; 0x09
    2136:	8c 87       	std	Y+12, r24	; 0x0c
    2138:	85 83       	std	Z+5, r24	; 0x05
    213a:	81 81       	ldd	r24, Z+1	; 0x01
    213c:	7a 78       	andi	r23, 0x8A	; 138
    213e:	81 8a       	std	Z+17, r8	; 0x11
    2140:	8f 8e       	std	Y+31, r8	; 0x1f
    2142:	91 96       	adiw	r26, 0x21	; 33
    2144:	92 87       	std	Z+10, r25	; 0x0a
    2146:	7c 76       	andi	r23, 0x6C	; 108
    2148:	71 68       	ori	r23, 0x81	; 129
    214a:	5e 5e       	subi	r21, 0xEE	; 238
    214c:	62 68       	ori	r22, 0x82	; 130
    214e:	69 6c       	ori	r22, 0xC9	; 201
    2150:	79 80       	ldd	r7, Y+1	; 0x01
    2152:	80 7c       	andi	r24, 0xC0	; 192
    2154:	7f 8a       	std	Y+23, r7	; 0x17
    2156:	91 8f       	std	Z+25, r25	; 0x19
    2158:	92 90       	ld	r9, -Z
    215a:	94 8a       	std	Z+20, r9	; 0x14
    215c:	80 7b       	andi	r24, 0xB0	; 176
    215e:	7b 81       	ldd	r23, Y+3	; 0x03
    2160:	83 86       	std	Z+11, r8	; 0x0b
    2162:	8f 94 91 87 	call	0x230f22	; 0x230f22 <__data_load_end+0x21e6f8>
    2166:	80 7f       	andi	r24, 0xF0	; 240
    2168:	7c 78       	andi	r23, 0x8C	; 140
    216a:	79 7b       	andi	r23, 0xB9	; 185
    216c:	7f 7d       	andi	r23, 0xDF	; 223
    216e:	75 72       	andi	r23, 0x25	; 37
    2170:	6e 6e       	ori	r22, 0xEE	; 238
    2172:	6d 6d       	ori	r22, 0xDD	; 221
    2174:	75 85       	ldd	r23, Z+13	; 0x0d
    2176:	8b 8d       	ldd	r24, Y+27	; 0x1b
    2178:	8b 8e       	std	Y+27, r8	; 0x1b
    217a:	8d 88       	ldd	r8, Y+21	; 0x15
    217c:	80 78       	andi	r24, 0x80	; 128
    217e:	78 74       	andi	r23, 0x48	; 72
    2180:	71 6f       	ori	r23, 0xF1	; 241
    2182:	71 79       	andi	r23, 0x91	; 145
    2184:	82 88       	ldd	r8, Z+18	; 0x12
    2186:	8b 8f       	std	Y+27, r24	; 0x1b
    2188:	8c 8c       	ldd	r8, Y+28	; 0x1c
    218a:	8e 94 98 94 	call	0x212930	; 0x212930 <__data_load_end+0x200106>
    218e:	90 88       	ldd	r9, Z+16	; 0x10
    2190:	85 7e       	andi	r24, 0xE5	; 229
    2192:	70 63       	ori	r23, 0x30	; 48
    2194:	63 64       	ori	r22, 0x43	; 67
    2196:	65 6d       	ori	r22, 0xD5	; 213
    2198:	78 7c       	andi	r23, 0xC8	; 200
    219a:	7c 76       	andi	r23, 0x6C	; 108
    219c:	71 70       	andi	r23, 0x01	; 1
    219e:	70 76       	andi	r23, 0x60	; 96
    21a0:	7c 84       	ldd	r7, Y+12	; 0x0c
    21a2:	82 81       	ldd	r24, Z+2	; 0x02
    21a4:	83 7e       	andi	r24, 0xE3	; 227
    21a6:	7e 7e       	andi	r23, 0xEE	; 238
    21a8:	80 82       	st	Z, r8
    21aa:	8d 99       	sbic	0x11, 5	; 17
    21ac:	9e 9f       	mul	r25, r30
    21ae:	9f 9f       	mul	r25, r31
    21b0:	9a 92       	st	-Y, r9
    21b2:	84 82       	std	Z+4, r8	; 0x04
    21b4:	7e 77       	andi	r23, 0x7E	; 126
    21b6:	6c 6a       	ori	r22, 0xAC	; 172
    21b8:	67 5f       	subi	r22, 0xF7	; 247
    21ba:	61 66       	ori	r22, 0x61	; 97
    21bc:	6a 6e       	ori	r22, 0xEA	; 234
    21be:	70 6f       	ori	r23, 0xF0	; 240
    21c0:	78 80       	ld	r7, Y
    21c2:	86 87       	std	Z+14, r24	; 0x0e
    21c4:	87 85       	ldd	r24, Z+15	; 0x0f
    21c6:	83 7d       	andi	r24, 0xD3	; 211
    21c8:	75 75       	andi	r23, 0x55	; 85
    21ca:	7e 7f       	andi	r23, 0xFE	; 254
    21cc:	83 87       	std	Z+11, r24	; 0x0b
    21ce:	91 9b       	sbis	0x12, 1	; 18
    21d0:	9a 8f       	std	Y+26, r25	; 0x1a
    21d2:	8f 89       	ldd	r24, Y+23	; 0x17
    21d4:	84 81       	ldd	r24, Z+4	; 0x04
    21d6:	86 8c       	ldd	r8, Z+30	; 0x1e
    21d8:	8a 86       	std	Y+10, r8	; 0x0a
    21da:	82 82       	std	Z+2, r8	; 0x02
    21dc:	81 76       	andi	r24, 0x61	; 97
    21de:	7a 76       	andi	r23, 0x6A	; 106
    21e0:	7b 97       	sbiw	r30, 0x1b	; 27
    21e2:	86 7a       	andi	r24, 0xA6	; 166
    21e4:	8b 7f       	andi	r24, 0xFB	; 251
    21e6:	6f 6c       	ori	r22, 0xCF	; 207
    21e8:	5c 5c       	subi	r21, 0xCC	; 204
    21ea:	62 63       	ori	r22, 0x32	; 50
    21ec:	5d 64       	ori	r21, 0x4D	; 77
    21ee:	68 67       	ori	r22, 0x78	; 120
    21f0:	78 7d       	andi	r23, 0xD8	; 216
    21f2:	81 93       	st	Z+, r24
    21f4:	97 97       	sbiw	r26, 0x27	; 39
    21f6:	a6 a6       	std	Z+46, r10	; 0x2e
    21f8:	a5 9f       	mul	r26, r21
    21fa:	98 8a       	std	Y+16, r9	; 0x10
    21fc:	7d 74       	andi	r23, 0x4D	; 77
    21fe:	63 6a       	ori	r22, 0xA3	; 163
    2200:	6c 66       	ori	r22, 0x6C	; 108
    2202:	6e 7e       	andi	r22, 0xEE	; 238
    2204:	8b 9c       	mul	r8, r11
    2206:	9d a3       	std	Y+37, r25	; 0x25
    2208:	8a 91       	ld	r24, -Y
    220a:	a7 88       	ldd	r10, Z+23	; 0x17
    220c:	84 8e       	std	Z+28, r8	; 0x1c
    220e:	71 69       	ori	r23, 0x91	; 145
    2210:	68 52       	subi	r22, 0x28	; 40
    2212:	55 5a       	subi	r21, 0xA5	; 165
    2214:	5e 58       	subi	r21, 0x8E	; 142
    2216:	66 70       	andi	r22, 0x06	; 6
    2218:	7d 96       	adiw	r30, 0x1d	; 29
    221a:	93 93       	.word	0x9393	; ????
    221c:	97 90       	elpm	r9, Z+
    221e:	89 8b       	std	Y+17, r24	; 0x11
    2220:	87 86       	std	Z+15, r8	; 0x0f
    2222:	83 80       	ldd	r8, Z+3	; 0x03
    2224:	76 72       	andi	r23, 0x26	; 38
    2226:	7c 7e       	andi	r23, 0xEC	; 236
    2228:	88 8b       	std	Y+16, r24	; 0x10
    222a:	8e 96       	adiw	r24, 0x2e	; 46
    222c:	9d 9c       	mul	r9, r13
    222e:	9a 86       	std	Y+10, r9	; 0x0a
    2230:	80 96       	adiw	r24, 0x20	; 32
    2232:	70 54       	subi	r23, 0x40	; 64
    2234:	60 58       	subi	r22, 0x80	; 128
    2236:	59 5a       	subi	r21, 0xA9	; 169
    2238:	50 5f       	subi	r21, 0xF0	; 240
    223a:	7b 90       	.word	0x907b	; ????
    223c:	8b 89       	ldd	r24, Y+19	; 0x13
    223e:	90 90 99 90 	lds	r9, 0x9099
    2242:	8b 99       	sbic	0x11, 3	; 17
    2244:	9a 8a       	std	Y+18, r9	; 0x12
    2246:	7d 70       	andi	r23, 0x0D	; 13
    2248:	6e 63       	ori	r22, 0x3E	; 62
    224a:	65 67       	ori	r22, 0x75	; 117
    224c:	70 80       	ld	r7, Z
    224e:	8a 94       	dec	r8
    2250:	a7 a7       	std	Z+47, r26	; 0x2f
    2252:	b1 a6       	std	Z+41, r11	; 0x29
    2254:	9f 6c       	ori	r25, 0xCF	; 207
    2256:	75 96       	adiw	r30, 0x15	; 21
    2258:	5a 4b       	sbci	r21, 0xBA	; 186
    225a:	59 4d       	sbci	r21, 0xD9	; 217
    225c:	5e 82       	std	Y+6, r5	; 0x06
    225e:	64 88       	ldd	r6, Z+20	; 0x14
    2260:	91 98       	cbi	0x12, 1	; 18
    2262:	7c 9b       	sbis	0x0f, 4	; 15
    2264:	7c 8f       	std	Y+28, r23	; 0x1c
    2266:	86 65       	ori	r24, 0x56	; 86
    2268:	78 4d       	sbci	r23, 0xD8	; 216
    226a:	71 4e       	sbci	r23, 0xE1	; 225
    226c:	66 40       	sbci	r22, 0x06	; 6
    226e:	52 7f       	andi	r21, 0xF2	; 242
    2270:	78 83       	st	Y, r23
    2272:	81 94       	neg	r8
    2274:	91 ad       	ldd	r25, Z+57	; 0x39
    2276:	bd dc       	rcall	.-1670   	; 0x1bf2 <__trampolines_end+0x1a5c>
    2278:	e3 e3       	ldi	r30, 0x33	; 51
    227a:	ca c2       	rjmp	.+1428   	; 0x2810 <astley7_data+0x55a>
    227c:	dc 9b       	sbis	0x1b, 4	; 27
    227e:	74 61       	ori	r23, 0x14	; 20
    2280:	4b 59       	subi	r20, 0x9B	; 155
    2282:	5b 60       	ori	r21, 0x0B	; 11
    2284:	65 5b       	subi	r22, 0xB5	; 181
    2286:	6f 6a       	ori	r22, 0xAF	; 175
    2288:	64 56       	subi	r22, 0x64	; 100
    228a:	5f 6c       	ori	r21, 0xCF	; 207
    228c:	55 5d       	subi	r21, 0xD5	; 213
    228e:	51 50       	subi	r21, 0x01	; 1
    2290:	6a 59       	subi	r22, 0x9A	; 154
    2292:	44 4f       	sbci	r20, 0xF4	; 244
    2294:	64 7f       	andi	r22, 0xF4	; 244
    2296:	78 89       	ldd	r23, Y+16	; 0x10
    2298:	94 bc       	out	0x24, r9	; 36
    229a:	bd a6       	std	Y+45, r11	; 0x2d
    229c:	a0 c2       	rjmp	.+1344   	; 0x27de <astley7_data+0x528>
    229e:	c9 92       	st	Y+, r12
    22a0:	9f 8b       	std	Y+23, r25	; 0x17
    22a2:	a3 a4       	ldd	r10, Z+43	; 0x2b
    22a4:	7d 84       	ldd	r7, Y+13	; 0x0d
    22a6:	63 7e       	andi	r22, 0xE3	; 227
    22a8:	86 80       	ldd	r8, Z+6	; 0x06
    22aa:	81 71       	andi	r24, 0x11	; 17
    22ac:	70 7d       	andi	r23, 0xD0	; 208
    22ae:	82 69       	ori	r24, 0x92	; 146
    22b0:	70 71       	andi	r23, 0x10	; 16
    22b2:	73 78       	andi	r23, 0x83	; 131
    22b4:	7a 80       	ldd	r7, Y+2	; 0x02

000022b6 <astley7_data>:
    22b6:	a1 b8 ac bd ac b7 b0 b2 97 94 99 94 a5 93 92 95     ................
    22c6:	7e 8a 87 85 95 7e 73 78 6b 61 6f 55 4e 40 44 65     ~....~sxkaoUN@De
    22d6:	62 49 3f 4d 67 5e 5e 5b 68 9f 95 95 8d 75 99 c8     bI?Mg^^[h....u..
    22e6:	ad 98 81 9e b3 90 8e 8f 82 83 88 67 7b 79 67 76     ...........g{ygv
    22f6:	5c 5c 5f 62 64 5f 5b 66 75 6d 6b 66 81 89 81 74     \\_bd_[fumkf...t
    2306:	8f 94 93 a5 a2 b4 b5 b2 ac ba b8 b7 c5 b6 ad a4     ................
    2316:	a8 a8 a5 9d a0 95 8b 90 87 7d 70 6c 5f 60 5d 4e     .........}pl_`]N
    2326:	52 62 48 43 44 4e 4d 49 44 4d 49 50 5b 42 51 53     RbHCDNMIDMIP[BQS
    2336:	5a 6a 5e 5b 5b 58 6f 62 6c 7d 84 7b a2 a4 97 af     Zj^[[Xobl}.{....
    2346:	b6 ca c1 d3 ce be c1 c2 c0 c0 a7 aa a8 b3 ad ac     ................
    2356:	a7 ad a7 96 91 96 9c 7f 82 69 71 6d 5f 62 5a 57     .........iqm_bZW
    2366:	55 42 48 4f 48 48 46 48 44 41 50 45 4b 5c 5e 53     UBHOHHFHDAPEK\^S
    2376:	56 57 62 6d 66 73 6e 84 8d 81 6f 7a 90 8e 79 78     VWbmfsn...oz..yx
    2386:	79 75 84 8f 79 84 a1 9c a7 8f ae 9a b7 af 9c a5     yu..y...........
    2396:	8d 98 9f a5 a4 b9 a8 b9 b1 a7 ac a6 aa a0 a6 90     ................
    23a6:	9c 9b 92 92 90 8e 80 80 6f 6d 67 67 5a 4f 57 65     ........omggZOWe
    23b6:	73 52 49 62 4e 46 40 3d 4d 5b 5a 4b 45 5c 6a 62     sRIbNF@=M[ZKE\jb
    23c6:	67 61 63 6d 65 63 5a 62 87 70 75 8a 7e 8e 9c 99     gacmecZb.pu.~...
    23d6:	a1 b2 ae ac af b2 9b 9e a9 a6 ad 93 9e a3 a8 9f     ................
    23e6:	a6 a3 89 a6 a1 9e 8c 7c 92 8c 8e 7d 7c 90 81 73     .......|...}|..s
    23f6:	62 72 6e 7b 61 74 81 76 71 65 6b 6a 79 71 61 63     brn{at.vqekjyqac
    2406:	5b 5c 77 62 67 6f 77 6e 6b 6c 6a 72 64 60 64 60     [\wbgownkljrd`d`
    2416:	55 62 4c 5e 74 75 7c 75 79 80 84 85 93 87 75 87     UbL^tu|uy.....u.
    2426:	83 7c 7d 91 9e a1 a0 96 97 a2 b0 a2 a8 a0 a0 a3     .|}.............
    2436:	a6 a4 af a4 a7 aa 9b 9a 92 8e 7a 98 98 8d 83 88     ..........z.....
    2446:	85 92 8a 79 6a 6c 6c 5a 72 63 6b 61 70 6f 6e 73     ...yjllZrckapons
    2456:	74 64 5e 66 64 5a 52 58 56 67 5b 5f 62 6b 7f 7a     td^fdZRXVg[_bk.z
    2466:	73 78 83 74 79 7f 7c 79 71 6d 77 7e 81 81 80 87     sx.ty.|yqmw~....
    2476:	7b 86 8b 83 7c 84 83 86 87 8c 94 7e 87 85 8f 8e     {...|......~....
    2486:	92 90 91 88 91 8d 91 97 93 9c 9e 96 87 99 9d 95     ................
    2496:	8a 8f 95 a3 a5 a5 9f a1 a1 9f 92 7c 7c 70 74 74     ...........||ptt
    24a6:	6e 55 63 6c 75 6d 75 75 7a 82 6c 72 72 66 5b 69     nUclumuuz.lrrf[i
    24b6:	69 6b 74 77 6d 6f 5f 77 7b 7c 73 72 6a 6b 81 71     iktwmo_w{|srjk.q
    24c6:	7c 7d 75 75 78 70 70 6a 6e 74 76 71 74 80 79 80     |}uuxppjntvqt.y.
    24d6:	82 6f 71 86 6e 64 70 71 7a 77 7e 85 8b 91 8d 99     .oq.ndpqzw~.....
    24e6:	9d 96 98 91 86 85 80 75 8a 8a 85 97 9e 9d a7 a8     .......u........
    24f6:	aa ac ab 92 9a 9b 90 9c 8a 8c 8a 8e 8d 85 82 7d     ...............}
    2506:	83 7a 6e 7e 6f 6f 7e 7e 85 82 80 7c 85 70 6c 7b     .zn~oo~~...|.pl{
    2516:	72 77 7e 77 79 81 80 7d 84 7e 75 75 70 6e 62 69     rw~wy..}.~uupnbi
    2526:	77 63 65 66 82 81 85 7e 6c 64 62 74 67 66 5d 66     wcef...~ldbtgf]f
    2536:	57 5a 5f 66 6d 85 77 76 7e 7d 8c 81 7e 72 7f 7b     WZ_fm.wv~}..~r.{
    2546:	84 8d 81 85 90 8b 84 81 95 87 82 81 7b 87 81 90     ............{...
    2556:	9a 8e 90 93 8e 8a 88 88 86 8c 8f 99 93 94 9d a6     ................
    2566:	8f 91 8f 83 8e 82 88 83 89 95 90 90 93 a1 9c 93     ................
    2576:	98 87 78 88 88 77 72 75 74 77 6b 74 80 85 82 89     ..x..wrutwkt....
    2586:	78 75 81 7f 75 71 74 7c 77 6b 71 6c 75 75 7d 73     xu..uqt|wkqluu}s
    2596:	69 6d 6c 6d 6d 6b 6e 77 74 7b 77 79 79 73 68 77     imlmmknwt{wyyshw
    25a6:	7b 70 73 7d 73 7a 77 76 77 6d 70 68 65 5c 64 6f     {ps}szwvwmphe\do
    25b6:	63 69 88 85 8a 8c 85 8a 89 89 84 80 7f 8b 87 77     ci.............w
    25c6:	7f 8c 90 93 8b 93 96 95 94 8b 8e 8b 8f 93 8b 94     ................
    25d6:	8c 84 92 91 87 8b 89 8d 88 83 80 8d 91 84 8c 89     ................
    25e6:	87 8e 86 7b 7d 84 80 7a 89 7b 86 8a 7d 81 7e 7a     ...{}..z.{..}.~z
    25f6:	83 7f 77 76 6e 76 73 7c 7a 78 83 7f 81 87 86 8d     ..wvnvs|zx......
    2606:	89 7f 7a 7a 7c 6f 67 62 72 76 71 6d 6f 6c 79 6a     ..zz|ogbrvqmolyj
    2616:	59 66 68 73 6c 6f 68 76 82 7a 84 86 7a 82 76 7d     Yfhslohv.z..z.v}
    2626:	7d 80 84 7b 86 85 81 89 88 7d 7c 7f 82 83 84 7c     }..{.....}|....|
    2636:	89 86 85 89 84 88 86 79 7d 77 82 83 72 89 77 79     .......y}w..r.wy
    2646:	83 77 7f 87 8a 95 95 a0 9c 98 92 89 87 85 8a 81     .w..............
    2656:	81 8b 89 88 81 79 7f 81 7f 7b 7b 6d 72 75 75 84     .....y...{{mruu.
    2666:	83 81 8c 85 80 83 7b 80 7e 80 87 8c 8f 87 81 7e     ......{.~......~
    2676:	80 7d 78 77 6d 77 7c 77 7b 7b 80 7e 75 6e 6f 70     .}xwmw|w{{.~unop
    2686:	77 73 75 7e 79 7a 72 6d 74 6e 7e 81 7b 88 8c 87     wsu~yzrmtn~.{...
    2696:	8c 88 82 89 8b 80 7f 72 72 80 72 69 73 76 72 74     .......rr.risvrt
    26a6:	6b 6b 6c 69 5d 72 89 81 8e 97 91 94 89 86 84 8b     kkli]r..........
    26b6:	8e 87 9a 92 99 8f 84 89 7c 80 75 77 80 7f 82 80     ........|.uw....
    26c6:	83 82 80 6f 71 71 79 7b 84 88 8a 89 83 7a 77 7e     ...oqqy{.....zw~
    26d6:	80 82 87 8c 8d 93 93 9d 98 90 95 92 8a 84 7f 7f     ................
    26e6:	7b 7a 79 7f 76 6b 77 6c 62 66 6d 67 6a 72 78 82     {zy.vkwlbfmgjrx.
    26f6:	89 89 8f 8a 7e 88 80 7f 82 83 7f 83 89 7d 80 7c     ....~........}.|
    2706:	75 77 77 6f 75 7f 7f 7e 80 7b 81 7d 6d 70 73 78     uwwou..~.{.}mpsx
    2716:	7a 7a 77 81 82 78 77 7d 80 7e 7f 79 82 8c 8a 87     zzw..xw}.~.y....
    2726:	89 8e 87 82 7b 7f 80 78 7b 81 7d 81 86 72 74 7c     ....{..x{.}..rt|
    2736:	77 70 6d 74 77 79 79 81 8a 90 94 97 8a 96 96 8b     wpmtwyy.........
    2746:	92 93 8b 89 98 8b 80 80 7f 79 75 77 79 7a 7b 7c     .........yuwyz{|
    2756:	78 72 75 7f 74 6e 7b 79 7b 7e 7b 7e 87 84 80 7f     xru.tn{y{~{~....
    2766:	81 85 81 7e 88 90 89 8a 91 85 82 88 7d 77 7f 81     ...~........}w..
    2776:	77 7b 7e 82 88 7f 79 7a 76 73 70 6f 70 7e 7e 77     w{~...yzvspop~~w
    2786:	80 85 88 8d 8e 89 8c 86 80 89 84 7d 82 7b 72 77     ...........}.{rw
    2796:	72 6d 73 79 73 74 7c 7b 7f 80 78 81 7f 7a 7e 7b     rmsyst|{..x..z~{
    27a6:	7c 88 88 84 87 86 83 85 7e 81 7f 7d 83 88 87 84     |.......~..}....
    27b6:	8a 84 7c 7d 84 7b 7d 7e 79 7c 7f 79 88 85 7a 7e     ..|}.{}~y|.y..z~
    27c6:	7b 77 70 6c 6b 6c 7a 7e 7f 89 86 8e 8e 8b 90 93     {wplklz~........
    27d6:	8e 87 89 8f 8c 8d 89 82 7c 7f 7b 77 79 7a 79 79     ........|.{wyzyy
    27e6:	73 75 77 6c 77 79 7b 78 79 81 82 8c 88 86 8a 8c     suwlwy{xy.......
    27f6:	89 84 7f 82 88 7f 87 8f 8a 8d 8b 7d 7a 7d 75 77     ...........}z}uw
    2806:	7f 7e 85 86 78 80 83 7a 7a 77 6a 6b 73 71 7a 87     .~..x..zzwjksqz.
    2816:	7b 7b 80 80 84 8b 85 81 85 80 7f 82 81 8d 8e 82     {{..............
    2826:	7d 7e 75 74 75 77 72 7b 7c 77 7b 73 79 77 77 76     }~utuwr{|w{sywwv
    2836:	80 8d 8c 8f 8a 8b 8a 83 7d 7a 78 75 7e 78 78 87     ........}zxu~xx.
    2846:	8b 88 8a 81 7b 80 79 77 80 7d 7d 88 84 82 8b 7f     ....{.yw.}}.....
    2856:	79 7f 75 6b 6f 6c 72 80 82 80 83 8b 87 80 7e 7f     y.ukolr.......~.
    2866:	88 87 88 8c 8d 92 90 89 80 85 7d 79 72 74 76 78     ..........}yrtvx
    2876:	77 6a 73 6e 75 78 76 71 7e 83 7f 8e 8f 92 98 94     wjsnuxvq~.......
    2886:	87 89 82 7c 7f 7a 78 84 88 89 8d 8b 80 7d 74 73     ...|.zx......}ts
    2896:	77 7c 80 82 83 7f 82 80 7a 7a 76 72 6f 70 72 7b     w|......zzvropr{
    28a6:	82 81 87 8a 88 84 7b 7c 81 83 7d 81 86 8c 94 8d     ......{|..}.....
    28b6:	89 89 88 81 78 75 72 78 7a 75 74 74 75 77 74 71     ....xurxzuttuwtq
    28c6:	7e 7f 80 89 8c 88 87 8a 7f 83 7d 75 71 75 74 78     ~.........}uqutx
    28d6:	7c 80 8b 8a 82 7a 7f 7e 82 80 82 8c 8d 88 87 84     |....z.~........
    28e6:	88 86 81 73 6e 71 75 78 7c 7a 82 88 7a 7c 7f 72     ...snqux|z..z|.r
    28f6:	78 7b 78 81 8c 8d 8e 92 89 8a 84 79 7c 78 72 73     x{x........y|xrs
    2906:	73 6c 6f 72 71 77 7a 70 77 7a 81 88 8d 8f 91 94     slorqwzpwz......
    2916:	91 92 8d 87 7f 7e 79 80 80 85 82 83 7e 79 7b 6f     .....~y.....~y{o
    2926:	72 79 7e 80 80 84 80 81 7e 7e 7e 7e 76 6e 76 7a     ry~.....~~~~vnvz
    2936:	83 81 7e 7f 80 7f 79 78 75 7c 81 81 8a 91 91 94     ..~...yxu|......
    2946:	92 8b 87 87 80 78 75 73 76 78 79 7a 80 7d 79 76     .....xusvxyz.}yv
    2956:	6f 72 78 80 82 86 83 7f 87 85 80 86 7f 74 76 78     orx..........tvx
    2966:	75 7f 86 82 87 81 7b 82 7b 79 83 82 88 8e 8e 84     u.....{.{y......
    2976:	8c 8b 7f 83 7a 70 79 7d 7d 7f 81 74 7b 78 6e 78     ....zpy}}..t{xnx
    2986:	77 76 7d 85 87 94 93 89 8e 88 82 80 7b 6c 72 73     wv}.........{lrs
    2996:	72 79 74 72 7b 7e 77 73 76 77 7d 83 84 8d 95 89     rytr{~wsvw}.....
    29a6:	8d 99 8b 87 81 77 79 80 7e 7b 80 80 89 83 70 71     .....wy.~{....pq
    29b6:	70 72 72 71 71 7a 81 7e 82 87 8a 89 83 7f 7f 82     prrqqz.~........
    29c6:	86 83 7f 7a 7b 7d 7e 78 75 7c 81 88 8c 91 94 99     ...z{}~xu|......
    29d6:	93 8b 85 7b 78 77 71 73 7d 7e 7b 81 7b 75 7a 73     ...{xwqs}~{.{uzs
    29e6:	74 7d 77 7e 84 84 86 88 84 84 8a 83 7b 78 75 76     t}w~........{xuv
    29f6:	7e 80 85 87 83 86 88 7f 75 76 7a 77 80 85 80 85     ~.......uvzw....
    2a06:	8b 89 88 88 84 83 83 7e 82 80 76 6f 6f 6f 74 73     .......~..vooots
    2a16:	74 75 7c 82 85 8c 8e 88 85 88 82 7e 75 6d 6e 73     tu|........~umns
    2a26:	76 76 80 7e 7a 79 79 75 7d 7d 7d 83 8e 93 95 8e     vv.~zyyu}}}.....
    2a36:	89 96 8c 80 7c 77 79 7e 7b 7f 86 85 81 80 7b 72     ....|wy~{.....{r
    2a46:	71 69 65 6f 6a 71 7f 85 88 92 90 8f 93 8d 86 88     qieojq..........
    2a56:	85 7f 7d 74 71 77 71 70 77 78 76 80 84 81 89 8a     ..}tqwqpwxv.....
    2a66:	7e 85 84 80 79 78 78 7e 7d 7d 81 7d 7c 73 77 7c     ~...yxx~}}.}|sw|
    2a76:	88 88 81 8a 90 90 8d 8b 84 86 8a 84 7f 7a 7c 7a     .............z|z
    2a86:	83 81 8b 94 8a 8a 87 8a 77 70 6b 73 77 76 80 88     ........wpkswv..
    2a96:	8a 87 8a 84 85 84 84 80 75 75 71 6a 62 61 69 6a     ........uuqjbaij
    2aa6:	6f 6f 72 7a 7a 7f 74 7c 7c 80 89 82 80 7d 85 7a     oorzz.t||....}.z
    2ab6:	85 7f 82 80 8e 80 77 87 83 92 92 a5 9d 92 94 9c     ......w.........
    2ac6:	8c 91 90 76 84 82 74 6f 8b 84 7b 9b 8f 81 7e 73     ...v..to..{...~s
    2ad6:	7c 78 60 5b 5e 6d 76 78 70 6a 69 86 92 7f 7a 67     |x`[^mvxpji...zg
    2ae6:	6a 61 7b 85 7b 69 78 80 74 90 88 96 8c 88 93 7b     ja{.{ix.t......{
    2af6:	84 7f 89 87 76 82 7c 89 8f 74 6f 6f 71 7a 77 6c     ....v.|..tooqzwl
    2b06:	68 77 6c 77 88 84 7a 8e 92 91 95 73 8b a3 93 8a     hwlw..z....s....
    2b16:	a4 af b3 a4 b1 ad a0 a7 99 85 84 74 7a 87 98 94     ...........tz...
    2b26:	87 8a 77 7a 6c 65 64 69 61 5f 5c 5c 4e 45 56 5d     ..wzledia_\\NEV]
    2b36:	63 66 7d 76 74 74 79 73 75 93 a0 94 84 7a 7f 8c     cf}vttysu....z..
    2b46:	8b 81 67 71 71 70 73 77 75 78 82 7b 7a 80 7f 74     ..gqqpswux.{z..t
    2b56:	7d 6f 80 81 80 6b 68 81 73 76 8d 83 90 97 79 8e     }o...kh.sv....y.
    2b66:	95 91 81 80 85 8f 99 89 84 8a 82 80 86 7f 79 6a     ..............yj
    2b76:	60 64 67 6e 6d 6d 74 77 83 8f 92 99 ad a5 a1 b4     `dgnmmtw........
    2b86:	b0 a4 a5 af b1 a2 a9 ae aa a4 95 80 7b 80 70 60     ............{.p`
    2b96:	65 69 62 6b 6c 65 6d 64 60 64 5f 55 5d 7b 78 7f     eibklemd`d_U]{x.
    2ba6:	83 a0 a9 99 a3 a9 a7 92 93 98 8f 8d 84 7c 8b 8a     .............|..
    2bb6:	6c 5a 61 56 53 4a 4b 50 4d 4f 47 4f 3a 3d 3d 41     lZaVSJKPMOGO:==A
    2bc6:	49 56 67 76 81 85 87 8e 96 a5 a8 9d aa a5 a1 93     IVgv............
    2bd6:	99 94 8f 87 80 80 7c 81 79 79 73 78 72 70 7a 75     ......|.yysxrpzu
    2be6:	71 7b 81 7c 81 77 8b 99 8c 94 ab ba ac a7 ad a9     q{.|.w..........
    2bf6:	a8 a2 9f 9d 9a 93 8c 8c 85 7b 64 71 6e 61 59 59     .........{dqnaYY
    2c06:	61 59 60 60 66 67 6a 66 71 90 93 98 af bd bf b2     aY``fgjfq.......
    2c16:	ba ba af b2 ad a5 a1 a4 95 98 8e 7f 70 67 65 53     ............pgeS
    2c26:	4c 55 59 59 51 5a 65 61 65 64 66 68 75 79 8a 94     LUYYQZeaedfhuy..
    2c36:	95 a8 a8 a7 a9 ae 9c 93 90 94 84 72 84 7e 74 6b     ...........r.~tk
    2c46:	64 59 50 44 38 3f 54 48 45 55 5e 57 4c 4f 52 5d     dYPD8?THEU^WLOR]
    2c56:	55 67 75 85 92 89 94 a4 9c 94 9d a7 98 8c 92 91     Ugu.............
    2c66:	81 7c 88 83 74 6d 68 61 69 6b 57 69 74 79 6e 76     .|..tmhaikWitynv
    2c76:	8c 8b 92 92 97 9f a3 a6 9e a3 b3 ac a5 a3 a6 9b     ................
    2c86:	90 8d 8d 92 8e 86 83 80 7e 6f 5a 65 6e 5a 58 64     ........~oZenZXd
    2c96:	71 73 67 7a 74 7e 89 84 89 8e 99 9a 9e b1 b3 ab     qsgzt~..........
    2ca6:	a1 a2 a4 99 94 8a 9a 9b 8c 95 93 84 78 5a 6d 62     ............xZmb
    2cb6:	55 53 52 6a 5f 59 69 7b 79 7a 7a 83 85 89 87 8b     USRj_Yi{yzz.....
    2cc6:	89 95 9e 91 89 91 8c 84 78 73 8a 7b 81 78 74 79     ........xs.{.xty
    2cd6:	69 5c 59 4b 52 47 4d 57 55 69 62 67 68 6c 6e 6e     i\YKRGMWUibghlnn
    2ce6:	6c 73 81 82 7b 85 92 8d 7f 80 8d 8a 7d 80 88 85     ls..{.......}...
    2cf6:	8d 88 88 84 7d 7a 6e 6b 72 6a 69 73 79 76 7e 8d     ....}znkrjisyv~.
    2d06:	8e 8e 97 9d 9a 9f a4 9e 9f a0 a9 9e 8c 99 8e 8c     ................
    2d16:	7b 7e 88 7f 88 84 80 86 80 78 75 71 74 68 6d 74     {~.......xuqthmt
    2d26:	79 7c 7d 82 82 7f 8d 8c 85 93 91 9d a1 9b a1 9d     y|}.............
    2d36:	9b 90 84 8a 82 7e 7a 7f 88 88 8d 8d 7d 76 71 6b     .....~z.....}vqk
    2d46:	67 64 65 6c 76 7a 78 6d 7d 81 78 76 80 81 87 87     gdelvzxm}.xv....
    2d56:	8f 96 97 8f 8e 8a 86 81 73 6c 6a 70 68 68 6c 74     ........sljphhlt
    2d66:	73 6a 63 5b 64 64 5f 67 68 7c 7e 6c 6d 75 76 6a     sjc[dd_gh|~lmuvj
    2d76:	6b 78 7a 80 83 87 91 86 7f 82 83 76 78 74 79 79     kxz........vxtyy
    2d86:	67 72 87 85 78 78 7d 82 7c 78 76 88 8c 80 85 90     gr..xx}.|xv.....
    2d96:	92 93 87 88 9a 87 84 90 9a a1 94 a3 a7 96 8a 83     ................
    2da6:	8a 81 6c 70 79 7a 77 6f 71 7c 77 6f 71 7c 85 7c     ..lpyzwoq|woq|.|
    2db6:	7e 88 9b 8d 7c 90 93 86 81 7f 92 95 89 8c 95 a8     ~...|...........
    2dc6:	96 7e 89 8b 85 74 72 8f 83 78 84 89 8f 81 6f 71     .~...tr..x....oq
    2dd6:	71 75 73 6d 72 7b 82 79 7b 82 7a 70 80 77 76 82     qusmr{.y{.zp.wv.
    2de6:	86 8f 90 91 91 96 91 89 7c 79 7a 72 68 70 78 77     ........|yzrhpxw
    2df6:	74 75 71 6a 6b 69 5c 5a 6a 75 70 6d 72 77 79 70     tuqjki\Zjupmrwyp
    2e06:	69 72 7c 7f 77 7d 8a 88 85 7e 83 82 82 82 81 7e     ir|.w}...~.....~
    2e16:	8a 86 7a 8b 8c 8e 86 78 74 78 7a 7d 67 75 7e 86     ..z....xtxz}gu~.
    2e26:	7f 6f 85 88 7e 7d 79 85 98 8c 8b 90 a7 99 89 98     .o..~}y.........
    2e36:	8a 85 86 81 8c 83 83 8d 7b 79 84 76 72 6f 6e 68     ........{y.vronh
    2e46:	71 7c 6b 7b 7e 80 86 7e 7e 83 85 7f 86 86 8d 9f     q|k{~..~~.......
    2e56:	91 86 96 92 85 8b 85 89 9e 91 8b 95 92 95 78 79     ..............xy
    2e66:	7c 6e 6e 65 70 6b 69 73 71 62 64 71 72 62 66 81     |nnepkisqbdqrbf.
    2e76:	8d 7b 82 8e a0 a1 8e 8e 8c 9c 8d 7b 86 9e 9e 80     .{.........{....
    2e86:	87 89 8b 76 55 71 6a 4e 5b 61 6a 5d 5f 82 62 56     ...vUqjN[aj]_.bV
    2e96:	67 71 6d 56 72 8d 79 76 82 8c 8b 8b 8f 82 94 a4     gqmVr.yv........
    2ea6:	8b 89 a8 aa 9d 8f 9a 9d 92 71 80 8f 66 6c 72 75     .........q..flru
    2eb6:	5c 64 80 64 51 61 63 74 53 6f 87 6a 96 87 82 8f     \d.dQactSo.j....
    2ec6:	93 93 83 95 a1 9a a1 8c 9d a9 89 97 85 7a 74 7a     .............ztz
    2ed6:	81 72 6e 86 75 79 7c 6e 7a 5d 69 6f 66 70 85 75     .rn.uy|nz]iofp.u
    2ee6:	87 88 92 75 89 ad 80 96 90 9e 98 88 a7 c3 bd 98     ...u............
    2ef6:	87 87 96 91 7b 76 57 65 80 79 73 4b 55 58 5d 7c     ....{vWe.ysKUX]|
    2f06:	60 58 63 6a 88 7d 86 92 87 87 88 7f 87 8e a3 90     `Xcj.}..........
    2f16:	7b 8d 86 81 72 72 83 61 5d 73 6a 6b 57 68 69 52     {...rr.a]sjkWhiR
    2f26:	71 67 4c 50 50 68 5a 5f 6f 78 91 88 92 af a6 a0     qgLPPhZ_ox......
    2f36:	a3 a2 aa a0 ab bb c3 c3 b5 ae ba 94 7a 75 66 64     ............zufd
    2f46:	72 72 66 65 66 54 39 4a 52 55 46 50 5f 67 66 63     rrfefT9JRUFP_gfc
    2f56:	7f 92 86 82 91 93 a5 a7 95 96 9c 9d 99 8a 88 6f     ...............o
    2f66:	71 85 87 85 82 6a 73 63 5f 75 5e 61 6e 6d 74 7d     q....jsc_u^anmt}
    2f76:	7e 8b 85 85 96 96 98 96 9a a7 b0 b5 b3 b6 b8 b2     ~...............
    2f86:	ab 9b 9a 9c 8f 8a 76 7b 73 68 76 61 5b 64 57 62     ......v{shva[dWb
    2f96:	69 5c 63 66 77 85 88 87 7e 7e 80 78 81 7f 78 86     i\cfw...~~.x..x.
    2fa6:	77 75 72 76 7a 70 6f 67 5f 5e 5c 64 5a 4f 57 4f     wurvzpog_^\dZOWO
    2fb6:	5b 68 4e 51 57 52 62 65 6f 81 8a 8d 98 a8 aa 9b     [hNQWRbeo.......
    2fc6:	a5 9d a0 a7 a0 b0 bc c0 bc b1 a9 98 8b 7c 64 71     .............|dq
    2fd6:	72 75 6f 6d 6f 6e 56 5d 60 5c 63 65 6e 79 84 7a     ruomonV]`\ceny.z
    2fe6:	81 8f 99 97 a8 9a a7 ac 9f 9c a1 a3 94 9b 8f 7f     ................
    2ff6:	85 89 7c 86 81 7b 75 6a 6d 6f 6b 6f 68 6f 74 74     ..|..{ujmokohott
    3006:	80 81 7e 83 82 8c 89 89 96 84 9d 9f a1 9d 9b a0     ..~.............
    3016:	8f 89 89 7d 85 82 69 6e 68 6d 6c 65 67 60 67 58     ...}..inhmleg`gX
    3026:	5a 62 63 5f 73 7f 79 80 7b 7b 76 7d 7b 6a 7f 76     Zbc_s.y.{{v}{j.v
    3036:	77 76 6f 78 71 71 6f 64 69 71 60 68 62 5c 5e 5d     wvoxqqodiq`hb\^]
    3046:	61 67 6a 65 60 6c 68 6b 77 86 89 8f 99 96 a0 9c     agje`lhkw.......
    3056:	97 9c 99 9f a1 b0 aa bc b2 a8 ae 97 9a 7d 82 73     .............}.s
    3066:	84 78 7a 81 78 7a 6a 71 63 6e 66 6d 6b 85 7e 88     .xz.xzjqcnfmk.~.
    3076:	81 85 91 8e 95 98 9a 97 9e 9a 99 98 9a 90 93 89     ................
    3086:	8d 87 8d 81 90 77 77 7d 71 77 6c 76 6c 76 78 78     .....ww}qwlvlvxx
    3096:	81 87 7e 85 82 7c 7e 7d 7f 81 8b 89 8d 93 92 86     ..~..|~}........
    30a6:	86 81 7c 80 7e 7e 76 74 74 73 71 72 73 70 6f 68     ..|.~~vttsqrspoh
    30b6:	6c 65 65 6d 74 80 86 87 80 7d 76 73 63 6d 63 6a     leemt....}vscmcj
    30c6:	64 67 69 68 6a 61 6a 63 73 68 73 6c 72 6d 6c 6f     dgihjajcshslrmlo
    30d6:	6e 79 74 7d 73 79 76 7f 7f 88 91 92 92 92 92 8f     nyt}syv.........
    30e6:	91 89 91 8f 9a 9e a9 a5 9f a1 99 94 8a 89 85 89     ................
    30f6:	82 89 84 85 82 7e 79 78 79 72 78 77 80 75 8a 84     .....~yxyrxw.u..
    3106:	82 80 81 89 86 86 87 84 91 96 8d 96 8d 90 85 86     ................
    3116:	83 8b 84 89 86 8c 86 7f 82 78 85 7a 86 7f 85 80     .........x.z....
    3126:	87 83 83 82 80 7a 7e 7d 78 80 78 82 7e 8b 7f 88     .....z~}x.x.~...
    3136:	77 78 73 72 72 71 7c 70 80 7e 87 7d 80 7b 7c 77     wxsrrq|p.~.}.{|w
    3146:	7e 78 7a 7e 7e 83 81 86 78 75 72 6b 5b 62 58 5d     ~xz~~...xurk[bX]
    3156:	5c 62 66 62 67 5a 63 5d 5d 63 68 68 72 75 7c 80     \bfbgZc]]chhru|.
    3166:	7d 80 87 8f 86 8c 8b 8e 8e 8f 95 95 96 8c 91 8c     }...............
    3176:	94 80 87 7d 8b 89 8e 93 8e 97 80 8d 76 84 78 82     ...}........v.x.
    3186:	80 85 8e 8b 8f 85 8c 84 8e 86 94 8c 8d 92 8b 95     ................
    3196:	8b 88 7e 82 87 7a 7b 7d 81 8c 81 87 85 85 7d 6f     ..~..z{}......}o
    31a6:	77 6e 79 75 7e 81 8f 8e 8a 93 86 97 90 90 89 96     wnyu~...........
    31b6:	95 8a 92 83 8a 84 7d 72 77 7b 76 75 73 7a 81 7a     ......}rw{vusz.z
    31c6:	72 72 71 68 69 67 6a 77 6a 7f 75 89 89 80 8e 85     rrqhigjwj.u.....
    31d6:	96 85 92 90 93 92 8d 8e 7e 7f 68 65 5b 5b 59 56     ........~.he[[YV
    31e6:	5e 55 64 59 5f 5a 56 53 51 4e 5e 5b 65 70 76 8a     ^UdY_ZVSQN^[epv.
    31f6:	83 8c 86 9d 8a 95 90 9b 97 9a 9e 8e a1 8a 8d 82     ................
    3206:	88 7d 7c 7c 7d 84 82 87 85 86 7b 7e 76 74 74 70     .}||}.....{~vttp
    3216:	79 78 88 83 96 91 94 93 97 9a 9a 9b 92 a1 91 93     yx..............
    3226:	80 86 72 79 71 78 75 7b 7a 79 7d 78 7c 78 78 6c     ..ryqxu{zy}x|xxl
    3236:	75 6e 70 7a 7a 87 8f 92 98 90 9e 90 99 95 99 97     unpzz...........
    3246:	93 92 8f 8b 79 7d 71 6f 66 70 6c 70 72 76 7a 7d     ....y}qofplprvz}
    3256:	7b 77 75 73 70 71 79 78 76 7d 81 8e 88 89 8c 92     {wuspqyxv}......
    3266:	8d 85 89 88 8c 81 82 78 83 71 70 65 6c 6c 6c 70     .......x.qpelllp
    3276:	6d 73 65 72 6a 6c 6b 6b 60 66 70 70 76 7d 7e 83     mserjlkk`fppv}~.
    3286:	83 80 83 7f 81 80 8d 89 8d 8b 88 86 8a 83 75 7f     ..............u.
    3296:	7b 84 75 79 91 8c 94 92 8e 91 8f 88 78 76 78 80     {.uy........xvx.
    32a6:	75 77 73 82 8a 7d 87 81 92 87 8f 84 82 8b 87 79     uws..}.........y
    32b6:	7c 7d 7c 70 76 88 81 89 91 84 8c 8a 80 79 6e 7b     |}|pv........yn{
    32c6:	6b 6f 68 6f 73 7d 7a 85 7b 82 8a 88 82 83 98 94     kohos}z.{.......
    32d6:	a2 ab 89 87 bb 90 77 89 76 76 7f 6f 64 6b 88 6e     ......w.vv.odk.n
    32e6:	71 6c 5d 6c 6e 5a 5e 62 6e 73 70 7d 84 88 91 bc     ql]lnZ^bnsp}....
    32f6:	92 9e d3 bc a1 b3 95 9f 95 8f 77 6a 72 58 64 58     ..........wjrXdX
    3306:	48 72 62 4e 60 53 56 4b 56 59 65 7a 8f 78 99 ac     HrbN`SVKVYez.x..
    3316:	a6 ad a4 6a ac a5 6e a6 8f 94 a1 95 76 4d 4c 61     ...j..n.....vMLa
    3326:	49 5b 46 73 62 4d 70 7d 9f 8f 80 7d 99 b2 cf ba     I[FsbMp}...}....
    3336:	99 99 a8 96 7f 87 bc 9c 88 9b 73 7b 6e 7d 51 44     ..........s{n}QD
    3346:	58 3e 49 5b 4d 4c 4b 50 75 5a 83 93 6a 86 7e 71     X>I[MLKPuZ..j.~q
    3356:	7a 78 8c 83 a0 a1 a4 c2 9e af b0 84 90 99 8e a1     zx..............
    3366:	a6 97 90 a4 ca 9f 77 9e 8b 86 93 6e 66 67 73 68     ......w....nfgsh
    3376:	64 67 5a 5f 68 6f 63 5c 50 48 55 57 60 60 5d 8e     dgZ_hoc\PHUW``].
    3386:	9f 8d 93 99 aa 89 9a 9e 6e 86 7e 83 90 7d 88 8c     ........n.~..}..
    3396:	92 aa 99 9c 98 95 aa 9e 9a 80 8d c0 b1 ac ac 93     ................
    33a6:	9b 8b 80 82 62 73 77 6a 71 4f 54 55 4c 48 32 32     ....bswjqOTULH22
    33b6:	31 37 51 46 28 36 4d 66 57 57 49 49 64 62 71 5a     17QF(6MfWWIIdbqZ
    33c6:	50 68 7b 99 94 83 8c 97 99 9c a0 a2 b4 c5 be b9     Ph{.............
    33d6:	b1 be d0 d0 e3 c5 a8 b6 b0 c8 bf a6 a7 90 a2 a5     ................
    33e6:	8c 8b 83 88 85 81 7f 7b 87 7c 68 5f 63 68 6a 75     .......{.|h_chju
    33f6:	68 54 58 62 5a 51 3e 35 37 33 40 42 37 37 36 4a     hTXbZQ>573@B776J
    3406:	58 61 6e 72 78 6f 5e 78 82 82 9e 9b 89 91 a0 a7     Xanrxo^x........
    3416:	ab 90 99 aa a4 a4 9a 9d 9e 8f 98 9f a0 ae 9e 9a     ................
    3426:	93 97 bf b7 ab a7 9e 90 93 97 97 9e 89 78 8b 8f     .............x..
    3436:	92 90 7d 7d 6b 6a 70 75 6b 63 55 39 47 57 69 63     ..}}kjpukcU9GWic
    3446:	53 48 4e 61 5c 50 4c 4b 4a 58 50 4a 4e 5a 66 63     SHNa\PLKJXPJNZfc
    3456:	73 80 92 91 84 71 57 77 88 83 8e 8d 81 96 b2 b2     s....qWw........
    3466:	b0 9c 85 7d 8c 8f 89 81 8b 8d 8d a0 af ac ab ae     ...}............
    3476:	80 76 8b aa a6 96 93 8a b3 c5 b7 b0 a9 a5 8e 8d     .v..............
    3486:	89 84 7c 7e 89 76 7d 86 84 70 55 49 59 67 5a 48     ..|~.v}..pUIYgZH
    3496:	4b 3d 4b 75 74 7c 76 6d 5d 68 62 65 60 57 6c 63     K=Kut|vm]hbe`Wlc
    34a6:	73 73 7e 8f 82 6b 68 87 9c 85 6c 60 61 7a 9e a1     ss~..kh...l`az..
    34b6:	93 93 7f 82 8a 8a 91 87 97 90 8b 8f a2 bb 96 89     ................
    34c6:	9b a5 ae a7 98 9c 90 91 b3 b0 b3 aa 9f 95 7f 88     ................
    34d6:	7a 64 6a 69 6b 71 56 63 6e 5b 70 70 72 69 54 46     zdjikqVcn[ppriTF
    34e6:	3e 3b 4d 64 6b 76 5a 5a 55 5e 72 58 73 74 6c 7c     >;MdkvZZU^rXstl|
    34f6:	69 79 7b 5d 76 8a 82 7f 73 60 61 5f 75 99 97 a7     iy{]v...s`a_u...
    3506:	88 76 67 5c 88 78 86 96 98 a6 93 91 99 95 97 ac     .vg\.x..........
    3516:	a2 92 9a 9d a0 99 a5 a0 a0 b1 91 84 81 6e 87 7f     .............n..
    3526:	7f 9e a9 bb 9d 8e 7e 7c 93 94 a2 91 88 8b 92 96     ......~|........
    3536:	9b 98 96 ab 82 6d 6f 6a 73 6c 76 7b 7b 8d 7c 6e     .....mojslv{{.|n
    3546:	69 5b 7f 67 5a 67 58 61 65 5d 69 62 6c 8b 72 55     i[.gZgXae]ibl.rU
    3556:	46 49 44 33 45 6e 80 99 90 87 7a 61 8d 8c 73 7a     FID3En....za..sz
    3566:	65 71 75 7f 92 8c a9 a5 8c 7b 71 6b 63 44 51 79     equ......{qkcDQy
    3576:	8a b1 bc ae 95 88 9f a3 89 7d 76 82 7e 8b b1 9c     .........}v.~...
    3586:	b8 be a1 a8 8e 7d 68 59 5a 6a 79 89 8d 99 80 6e     .....}hYZjy....n
    3596:	86 70 71 58 4d 62 57 69 7e 72 9f 94 87 9b 8e 8a     .pqXMbWi~r......
    35a6:	5a 5a 71 72 8a 8f 9e a9 8d 8d 8a 74 7c 63 49 61     ZZqr.......t|cIa
    35b6:	4b 63 78 68 8a 6e 67 7e 83 7c 51 56 57 48 6b 85     Kcxh.ng~.|QVWHk.
    35c6:	8b 92 93 a4 8f 6b 7d 91 7c 6b 6a 86 8e 91 ae 87     .....k}.|kj.....
    35d6:	94 a3 ab a0 6c 78 86 85 86 97 a2 98 b4 be 8a 7d     ....lx.........}
    35e6:	79 78 7a 67 7b 99 93 ab 96 7f 92 a8 c1 a5 78 80     yxzg{.........x.
    35f6:	85 8c 8b 92 92 74 99 a1 79 68 5a 71 80 4c 50 6c     .....t..yhZq.LPl
    3606:	78 9b 72 5c 64 66 95 77 70 77 73 8b 69 72 7b 7c     x.r\df.wpws.ir{|
    3616:	a3 a0 7a 6c 6a 7a 79 62 74 74 83 a1 6e 73 6e 67     ..zljzybtt..nsng
    3626:	9a 7b 78 61 62 85 6b 6b 63 5a 85 8a 78 6b 5f 7a     .{xab.kkcZ..xk_z
    3636:	75 5f 71 74 9c ab 7b 72 68 74 89 78 76 62 64 7c     u_qt..{rht.xvbd|
    3646:	72 7b 6c 73 9a 90 7c 6e 6e 79 69 61 75 6f a2 a7     r{ls..|nnyiauo..
    3656:	8d 95 8a 8f 80 8e 92 81 90 93 8e 89 8d ab b0 a7     ................
    3666:	90 83 83 85 74 78 6a 71 a6 8a 84 85 74 81 70 7f     ....txjq....t.p.
    3676:	81 79 79 7b 8c 77 8a a4 8f 9d 9d 9a a8 95 90 8a     .yy{.w..........
    3686:	7f 96 9a 8e 7f 88 91 7c 87 92 81 7a 77 81 66 51     .......|...zw.fQ
    3696:	7f 88 7b 79 72 80 72 81 91 73 6d 7b 73 75 71 84     ..{yr.r..sm{suq.
    36a6:	7f 64 7a 72 79 79 7b 87 53 61 83 78 81 79 77 65     .dzryy{.Sa.x.ywe
    36b6:	5b 7d 6e 70 79 77 74 5d 6f 80 5a 63 86 8c 84 70     [}npywt]o.Zc...p
    36c6:	7d 72 59 91 a7 9b a6 93 92 71 89 b8 85 84 77 80     }rY......q....w.
    36d6:	89 6f 85 79 66 88 87 89 8d 79 84 4e 60 a5 70 7c     .o.yf....y.N`.p|
    36e6:	8b 97 96 63 8f 76 6c 81 75 83 67 64 82 67 70 a1     ...c.vl.u.gd.gp.
    36f6:	a1 a1 83 7c 70 69 98 7e 7e 88 78 8a 66 7f 95 74     ...|pi.~~.x.f..t
    3706:	86 69 6c 6d 63 81 76 6b 78 a1 ae 9e 97 79 78 96     .ilmc.vkx....yx.
    3716:	90 86 78 7c 97 83 79 71 6e 8c 7d 6f 6c 68 7d 81     ..x|..yqn.}olh}.
    3726:	6f 70 a4 c2 96 85 5c 82 9e 9c a6 78 8e 95 8e 8b     op....\....x....
    3736:	6e 7d 82 75 7b 74 86 8a 8d 92 6a af b9 7f 7a 43     n}.u{t....j...zC
    3746:	7e 89 7f 98 68 8b 8c 7f 8d 5b 67 64 56 79 63 88     ~...h....[gdVyc.
    3756:	86 72 82 66 a8 a2 7c 6e 54 8b 80 7c 78 59 7a 7b     .r.f..|nT..|xYz{
    3766:	80 7c 61 77 6f 61 69 65 94 8e 81 6f 74 aa 8e 78     .|awoaie...ot..x
    3776:	72 7f a0 96 97 7f 73 8a 82 7e 67 6d 91 7f 7c 6f     r.....s..~gm..|o
    3786:	71 94 85 7c 71 90 ac 7f 6b 5c 7d 7c 7e 82 6d 87     q..|q...k\}|~.m.
    3796:	84 6d 5e 53 6f 7f 62 70 70 92 96 7c 79 7e b3 a0     .m^So.bpp..|y~..
    37a6:	83 77 7b 8e 7f 81 7f 77 91 8a 7f 6c 60 77 64 64     .w{....w...l`wdd
    37b6:	6f 7d 98 8f 81 73 91 a0 87 76 83 8f 92 92 79 7f     o}...s...v....y.
    37c6:	8f 93 82 64 6c 78 7f 72 65 6e 84 91 86 74 93 a4     ...dlx.ren...t..
    37d6:	90 7d 6e 82 82 92 93 7f 8e 8d 82 6b 68 86 91 8e     .}n........kh...
    37e6:	7b 6d 8c a1 92 66 78 9d 8c 86 72 85 82 83 95 79     {m...fx...r....y
    37f6:	80 7c 70 65 64 82 83 72 78 7a 91 96 83 6e 66 94     .|ped..rxz...nf.
    3806:	74 65 7a 7c 98 84 8a 7f 7a 83 71 5f 4c 6c 79 6d     tez|....z.q_Llym
    3816:	78 78 89 9e 8b 7b 7e 99 87 63 6d 73 8c 80 7b 84     xx...{~..cms..{.
    3826:	73 86 7f 6e 6b 6e 92 80 75 85 8c a8 9c 7f 8b 9e     s..nkn..u.......
    3836:	89 70 7a 91 95 8b 7e 79 6b 78 70 51 50 63 78 6a     .pz...~ykxpQPcxj
    3846:	61 6a 83 9c 88 6e 6e 8c 86 76 77 91 a9 a1 9e 8f     aj...nn..vw.....
    3856:	98 a5 97 62 40 4c 75 6f 60 69 8d af 92 77 7b 9b     ...b@Luo`i...w{.
    3866:	8d 6a 62 6e 81 84 84 7d 8d aa 9c 76 58 5e 84 6b     .jbn...}...vX^.k
    3876:	5b 6b 79 9f 8f 80 8d 9a 89 6c 6b 80 93 a3 94 7c     [ky......lk....|
    3886:	83 97 9c 71 63 75 88 78 67 70 8e 9c 8d 80 87 8a     ...qcu.xgp......
    3896:	77 64 63 84 90 b4 a3 82 9b a1 95 6d 4c 61 70 67     wdc........mLapg
    38a6:	6f 6e 95 9c 9b 8d 89 90 6a 60 5a 64 6f 87 84 74     on......j`Zdo..t
    38b6:	85 98 8c 68 50 5c 6d 69 78 78 8f 98 97 a0 a7 9c     ...hP\mixx......
    38c6:	7c 73 6e 79 7f 9f 92 71 7f 95 85 67 58 66 68 64     |sny...q...gXfhd
    38d6:	76 73 85 8b 84 87 9c 93 75 77 79 8c 9d b6 97 88     vs......uwy.....
    38e6:	93 94 87 5d 5a 6c 5c 5a 6f 6d 86 83 82 87 97 80     ...]Zl\Zom......
    38f6:	66 66 76 80 88 a1 86 7e 8d 96 82 5c 61 6d 63 71     ffv....~...\amcq
    3906:	80 87 8d 86 84 86 97 8c 69 71 76 7e 92 a6 8c 8a     ........iqv~....
    3916:	98 99 7e 5a 6e 64 59 64 75 82 8b 78 75 7c 95 8a     ..~ZndYdu..xu|..
    3926:	74 7f 85 8c 95 a6 8f 9b a3 9f 84 6b 7a 7c 65 70     t..........kz|ep
    3936:	7b 88 7d 73 78 78 88 72 6a 7f 84 84 8f a4 92 8d     {.}sxx.rj.......
    3946:	8b 7c 68 5a 78 7c 79 88 94 9e a0 93 8b 79 7d 6c     .|hZx|y......y}l
    3956:	56 63 68 65 8f a1 82 95 8f 84 64 58 69 5f 58 5b     Vche......dXi_X[
    3966:	77 92 93 94 97 99 9b 7d 71 89 7a 70 92 8b 85 91     w......}q.zp....
    3976:	8e 8b 6f 62 75 65 6a 66 72 85 77 83 7f 8b 96 88     ..obuejfr.w.....
    3986:	87 a4 99 8b 9c 96 88 8f 85 71 56 56 66 5f 6f 76     .........qVVf_ov
    3996:	94 93 88 8b 74 74 6c 5b 6e 90 7d 7d 9e a5 a8 b1     ....ttl[n.}}....
    39a6:	a0 89 6a 5b 56 4a 60 67 84 89 8d 91 7e 80 73 63     ..j[VJ`g....~.sc
    39b6:	6f 7c 6f 75 91 99 a2 b6 a4 98 79 6e 6c 61 70 6a     o|ou......ynlapj
    39c6:	7d 7e 80 88 81 81 80 74 75 84 6d 83 92 88 92 9b     }~.....tu.m.....
    39d6:	92 7d 61 67 69 70 86 85 90 92 a7 9f 88 76 61 63     .}agip.......vac
    39e6:	6a 7b 79 8e 95 92 a5 ad 9f 8f 67 5e 56 64 71 68     j{y.......g^Vdqh
    39f6:	8c 98 b0 a9 84 6a 61 6a 6f 6e 6e 87 84 7c 92 a8     .....jajonn..|..
    3a06:	a8 99 79 63 51 5a 61 69 78 93 af 95 7d 6b 78 86     ..ycQZaix...}kx.
    3a16:	79 73 7a 8d 8a 86 86 8a 92 7e 5a 48 51 76 84 85     ysz......~ZHQv..
    3a26:	90 92 a3 98 82 72 6a 7a 70 5d 7d 99 a2 9f a7 aa     .....rjzp]}.....
    3a36:	95 79 5e 48 50 67 6d 6b 78 a1 b0 a7 84 68 58 5f     .y^HPgmkx....hX_
    3a46:	65 5a 7c 98 a4 a8 95 a5 a8 99 80 5b 54 59 57 5b     eZ|........[TYW[
    3a56:	6d 9c b1 b1 8d 66 6b 6f 73 62 7f 92 89 96 90 9a     m....fkosb......
    3a66:	a1 91 79 4c 47 67 6b 70 82 a2 aa 95 76 6a 6a 7e     ..yLGgkp....vjj~
    3a76:	7c 56 67 7e 8e ab ac b3 a7 8f 76 55 56 6b 7a 72     |Vg~......vUVkzr
    3a86:	6f 93 aa a9 86 69 65 63 61 4f 71 8a 8c 9d 9c a1     o....iecaOq.....
    3a96:	9c 95 8a 6c 6d 73 6b 5c 65 92 b0 b6 91 76 6f 79     ...lmsk\e....voy
    3aa6:	70 56 78 9a 8c 8e 87 88 83 7c 75 5b 5e 6c 74 6d     pVx......|u[^ltm
    3ab6:	7b 9d ab a1 7a 5f 63 72 7a 65 79 88 82 98 a4 b3     {...z_crzey.....
    3ac6:	a4 8c 6f 45 51 67 75 74 7d a1 b7 ad 84 63 5d 67     ..oEQgut}....c]g
    3ad6:	65 54 68 89 8a 99 9a a5 a7 8f 7d 5b 61 68 6f 68     eTh.......}[ahoh
    3ae6:	60 86 ac b7 a4 7f 82 84 70 5a 63 85 92 9b 9e 9b     `.......pZc.....
    3af6:	8e 7b 69 51 56 6b 6b 63 66 89 aa a6 8e 70 6a 74     .{iQVkkcf....pjt
    3b06:	74 68 6a 86 8c 94 a0 a3 b3 ae 8c 63 4b 56 64 5b     thj........cKVd[
    3b16:	66 86 a8 b2 96 70 59 62 63 5d 5b 72 7c 86 8e 99     f....pYbc][r|...
    3b26:	ab aa 9e 77 66 67 6d 6f 5b 73 9f ad a0 84 81 8c     ...wfgmo[s......
    3b36:	89 6b 62 7a 83 93 99 92 9b 96 87 6c 6a 82 81 7d     .kbz.......lj..}
    3b46:	6c 86 97 98 8d 68 6b 6d 6a 5e 5e 7a 84 8a 91 9a     l....hkmj^^z....
    3b56:	a2 98 7c 5c 54 67 6f 74 6c 79 ae b1 9a 84 76 67     ..|\Tgotly....vg
    3b66:	5d 53 58 6e 7c 95 94 95 a2 9e 9a 71 50 53 5c 55     ]SXn|......qPS\U
    3b76:	59 84 aa b9 aa 85 7e 79 7b 6d 5b 71 7d 87 89 9a     Y.....~y{m[q}...
    3b86:	a4 a2 91 69 5d 5b 58 5a 51 65 9a 9c 95 87 84 84     ...i][XZQe......
    3b96:	76 6a 69 85 8c 84 87 a2 b8 b2 a3 78 6d 7c 71 68     vji........xm|qh
    3ba6:	5e 7a a5 b5 ae 91 8f 8f 80 67 58 71 89 92 a2 ab     ^z.......gXq....
    3bb6:	b0 b3 a5 80 66 6a 64 5a 55 61 7c 8f 8f 83 87 8c     ....fjdZUa|.....
    3bc6:	82 6a 53 62 68 63 6b 75 80 85 8b 71 59 64 63 5e     .jSbhcku...qYdc^
    3bd6:	55 59 7f 86 78 6c 6d 7d 7a 68 67 74 82 85 7e 92     UY..xlm}zhgt..~.
    3be6:	9d 9c 9c 7e 67 6b 75 73 72 83 a1 a6 90 73 77 82     ...~gkusr....sw.
    3bf6:	65 50 3e 53 7b 81 8d 9c a0 aa 95 75 69 5d 78 76     eP>S{......ui]xv
    3c06:	80 94 9c c3 b8 af af b9 a4 89 7c 7c 8d 8d 93 a1     ..........||....
    3c16:	ad b6 a9 90 80 63 6e 5a 5b 73 81 a9 a2 9c 98 9a     .....cnZ[s......
    3c26:	7d 61 69 64 73 81 7c 88 93 9a 92 81 75 69 78 60     }aids.|.....uix`
    3c36:	4d 67 63 7b 7e 64 70 7d 6f 5f 54 45 5a 73 76 86     Mgc{~dp}o_TEZsv.
    3c46:	90 8d 84 77 66 54 5b 5e 5a 6b 66 89 9c 88 97 9f     ...wfT[^Zkf.....
    3c56:	8f 8f 97 7c 6d 8b 8c 8f 99 97 9a a2 92 87 76 58     ...|m.........vX
    3c66:	63 68 60 71 7d 77 85 82 6e 71 76 73 7b 73 6e 7e     ch`q}w..nqvs{sn~
    3c76:	85 85 7f 89 7d 7e 90 7e 8a 8b 89 85 71 6f 74 75     ....}~.~....qotu
    3c86:	78 80 81 77 83 8e 92 97 9b 9b 8d 93 7d 6f 6f 61     x..w........}ooa
    3c96:	7e 7d 85 a6 a4 a2 a2 89 79 7c 74 6b 75 79 7e 85     ~}......y|tkuy~.
    3ca6:	8b 86 7e 8c 7e 73 6a 5a 6e 7b 81 a7 9c a0 c1 a6     ..~.~sjZn{......
    3cb6:	98 97 8c 7c 82 7f 81 9e 9e 98 9a 96 97 8a 6b 61     ...|..........ka
    3cc6:	7a 85 79 84 6c 75 91 85 8c 89 70 68 76 70 78 87     z.y.lu....phvpx.
    3cd6:	7d 77 6f 6a 77 6a 58 4f 5c 6d 72 7a 6a 7d 88 5f     }wojwjXO\mrzj}._
    3ce6:	5e 6d 58 54 6b 76 75 7d 85 76 74 7b 7a 6c 48 4f     ^mXTkvu}.vt{zlHO
    3cf6:	80 79 7d 80 6f 91 98 89 78 88 89 72 74 6b 7f 9d     .y}.o...x..rtk..
    3d06:	95 a0 a2 a6 a3 91 78 7a a6 9e 95 83 66 89 7a 60     ......xz....f.z`
    3d16:	74 81 7f 7e 75 7c 84 87 8a 65 62 80 83 76 5c 70     t..~u|...eb..v\p
    3d26:	93 87 9a 91 98 b6 96 7c 65 68 6c 65 70 8f b5 b4     .......|ehlep...
    3d36:	a8 8f 81 95 91 80 67 6e 9d 92 8e 88 96 b8 91 8c     ......gn........
    3d46:	8e 8d 7d 58 51 5f 78 82 84 84 89 a3 94 7d 76 67     ..}XQ_x......}vg
    3d56:	7f 6e 76 81 82 a5 8b 78 93 a0 94 84 87 b3 ac 8f     .nv....x........
    3d66:	88 75 84 8a 7e 86 78 92 8f 6c 74 72 83 97 76 71     .u..~.x..ltr..vq
    3d76:	86 84 6d 51 5b 83 98 83 7f 90 91 84 5b 4f 59 6c     ..mQ[.......[OYl
    3d86:	78 62 66 78 7f 7d 61 53 71 6d 4c 3f 43 59 64 5a     xbfx.}aSqmL?CYdZ
    3d96:	62 85 90 8c 81 74 81 83 79 67 52 6a 7b 79 73 67     b....t..ygRj{ysg
    3da6:	78 76 63 68 7a 8e 9d 8e 7b 86 92 8c 89 86 95 9a     xvchz...{.......
    3db6:	8f a3 93 92 a8 92 85 81 7b 7e 6e 57 73 76 77 85     ........{~nWsvw.
    3dc6:	78 7d 8f 88 75 65 6a 73 79 85 8f 91 98 9d 97 93     x}..uejsy.......
    3dd6:	94 91 7a 62 64 6b 71 78 87 9a 9c a8 b4 9d 98 8c     ..zbdkqx........
    3de6:	85 87 7c 71 72 83 8e 9a 8f 87 94 86 91 97 90 91     ..|qr...........
    3df6:	84 75 72 76 7b 82 7a 77 75 80 7a 74 73 77 8a 7e     .urv{.zwu.ztsw.~
    3e06:	78 89 90 85 87 81 8b 9b 9d 9f 93 95 9b 84 6f 67     x.............og
    3e16:	76 8a 88 88 82 7e 7c 7a 6f 71 73 6e 68 63 77 75     v....~|zoqsnhcwu
    3e26:	80 7f 7c 95 a5 9b 93 81 77 6c 5f 5b 58 60 61 61     ..|.....wl_[X`aa
    3e36:	5c 64 63 57 59 62 74 79 6f 67 5b 68 79 68 64 64     \dcWYbtyog[hyhdd
    3e46:	7b 8d 83 86 8d 88 81 7c 6f 7a 85 73 66 61 78 7f     {......|oz.sfax.
    3e56:	79 7c 81 90 90 82 71 75 7f 92 8f 93 a0 a6 a7 9d     y|....qu........
    3e66:	95 94 86 72 66 60 79 86 7f 7c 73 90 9f 95 8a 7f     ...rf`y..|s.....
    3e76:	82 75 6a 67 6b 77 83 80 80 88 8d 94 91 85 91 92     .ujgkw..........
    3e86:	85 82 7d 8a 96 88 82 70 7d 8a 85 91 8d 93 8d 91     ..}....p}.......
    3e96:	87 90 95 8a 8e 7a 77 87 89 80 81 7e 82 7e 71 73     .....zw....~.~qs
    3ea6:	7a 7b 77 7f 7f 85 83 7c 82 7f 77 6d 6a 68 81 8a     z{w....|..wmjh..
    3eb6:	93 99 93 a7 b2 ac aa 9c 93 81 69 69 6f 75 6b 64     ..........iioukd
    3ec6:	6d 76 79 6f 6e 79 7f 85 7e 7e 7d 86 8c 7e 77 76     mvyony..~~}..~wv
    3ed6:	7a 77 7e 84 89 86 6f 65 70 75 76 67 57 5e 5f 61     zw~...oepuvgW^_a
    3ee6:	62 59 66 75 7d 79 6a 71 79 7d 74 72 8b 93 91 8c     bYfu}yjqy}tr....
    3ef6:	84 80 74 60 4f 59 65 75 7a 74 87 97 9e a4 a1 9f     ..t`OYeuzt......
    3f06:	a1 97 83 79 7b 7e 73 72 7b 89 94 8b 84 83 7c 82     ...y{~sr{.....|.
    3f16:	7e 74 7e 87 8e 7e 77 73 7e 84 73 7c 8d 96 8a 83     ~t~..~ws~.s|....
    3f26:	89 8e 92 8a 77 7c 7c 85 76 65 6d 75 7b 74 73 7a     ....w||.vemu{tsz
    3f36:	85 85 74 6d 85 96 8f 8a 8c 8c 90 83 79 77 7e 8a     ..tm........yw~.
    3f46:	85 88 96 ac ad a5 a3 9e 9b 8e 75 6c 6e 68 5f 53     ..........ulnh_S
    3f56:	59 73 7f 82 87 7b 70 79 80 86 90 99 94 87 88 87     Ys...{py........
    3f66:	99 a6 8f 7d 81 86 86 7f 82 88 83 72 6f 6a 7a 7d     ...}.......rojz}
    3f76:	6d 79 6c 73 7c 7e 8b 85 87 8d 72 74 8c 94 8a 71     myls|~....rt...q
    3f86:	6f 6d 64 65 63 59 60 7e 87 91 9b 97 98 8e 93 94     omdecY`~........
    3f96:	9c 9a 8a 7b 72 63 57 59 60 6c 7b 86 78 61 56 59     ...{rcWY`l{.xaVY
    3fa6:	54 5c 61 72 7a 78 75 71 88 8b 7b 68 64 76 84 89     T\arzxuq..{hdv..
    3fb6:	8c 8a 89 89 7a 6f 73 83 8b 8b 7a 6e 76 77 78 7c     ....zos...znvwx|
    3fc6:	7e 7f 7b 89 8d 83 86 89 84 83 7b 74 6d 66 6b 76     ~.{.......{tmfkv
    3fd6:	8a 92 93 8f 8f 99 94 9b 9a 88 81 7f 82 7e 81 89     .............~..
    3fe6:	87 8c 8e 9b a1 9c 94 92 97 97 99 9b a3 a5 a4 9b     ................
    3ff6:	97 92 8b 86 85 86 8b 99 9b 99 8b 7c 72 61 67 72     ...........|ragr
    4006:	83 80 73 75 79 83 86 81 82 7f 7d 7f 75 73 6d 70     ..suy.....}.usmp
    4016:	6f 71 6f 69 60 58 58 59 5e 5b 59 5f 6a 7a 86 87     oqoi`XXY^[Y_jz..
    4026:	83 83 77 77 72 66 5f 66 6a 74 77 7a 7c 74 79 7d     ..wwrf_fjtwz|ty}
    4036:	80 84 7f 88 9b a7 9b 89 80 82 8e 8e 89 89 84 86     ................
    4046:	86 84 87 88 7f 6d 6b 6f 73 75 66 65 6e 6d 6f 6a     .....mkosufenmoj
    4056:	6f 77 81 85 89 8f 89 80 7a 7c 7e 76 6b 64 60 66     ow......z|~vkd`f
    4066:	71 80 85 92 ab b5 af a6 97 93 8f 85 7b 7d 89 87     q...........{}..
    4076:	89 83 83 8b 81 6f 63 67 76 78 71 6f 7f 8b 88 7d     .....ocgvxqo...}
    4086:	71 7d 89 87 7d 7a 7f 7c 82 8e a2 ab a3 94 82 8f     q}..}z.|........
    4096:	a2 9e 97 9c 9c a2 96 8e 8e 95 9d 9c 99 98 9f 96     ................
    40a6:	92 90 8f 8d 79 65 4f 50 63 6b 74 7d 8f a0 a2 9b     ....yeOPckt}....
    40b6:	94 93 91 80 70 69 6e 6f 70 65 63 6c 6f 6c 4f 50     ....pinopeclolOP
    40c6:	58 58 51 53 4e 5a 57 53 57 5f 73 6f 6f 6e 70 68     XXQSNZWSW_soonph
    40d6:	62 6a 7c 86 89 7e 70 6e 7a 7e 7d 7b 8b 84 7f 76     bj|..~pnz~}{...v
    40e6:	7d 92 93 92 8c 9f 9c 9a 8b 86 83 81 79 6f 60 64     }...........yo`d
    40f6:	73 70 78 79 8c 8d 92 88 89 87 83 77 6e 75 81 88     spxy.......wnu..
    4106:	92 94 92 90 84 7e 6d 6a 77 7d 76 77 87 9b 9d 9a     .....~mjw}vw....
    4116:	9c a7 ac 9c 90 8f 88 89 81 89 8d 9e a2 99 86 79     ...............y
    4126:	7d 6d 70 65 82 83 83 76 72 7f 8a 81 74 87 80 8e     }mpe...vr...t...
    4136:	83 84 75 71 71 6e 6f 6e 81 83 8c 88 a2 a5 ad a4     ..uqqnon........
    4146:	9f a4 a0 93 84 80 83 8b 99 9a 98 96 94 94 77 72     ..............wr
    4156:	5d 6c 5f 63 64 72 79 70 72 6e 87 78 80 70 76 76     ]l_cdryprn.x.pvv
    4166:	7a 75 74 7d 7c 86 6c 6d 64 65 5b 63 5e 63 66 52     zut}|.lmde[c^cfR
    4176:	51 50 5e 5a 5d 5c 66 75 6c 74 6e 64 6b 5c 63 5f     QP^Z]\fultndk\c_
    4186:	6b 77 7b 87 8b 96 9e a5 95 96 8f 91 8e 80 84 8e     kw{.............
    4196:	97 a0 97 9b 96 8f 82 70 72 73 70 72 6c 75 83 82     .......prsprlu..
    41a6:	79 78 7b 84 88 79 87 7f 8e 8a 89 90 97 91 8e 8a     yx{..y..........
    41b6:	80 88 7a 76 72 80 85 8f 89 8e 97 a5 a7 a1 9d 9f     ..zvr...........
    41c6:	a9 a1 8e 8a 7e 82 78 6c 75 7c 87 8e 81 93 8e 8b     ....~.xlu|......
    41d6:	8a 6e 8e 80 8b 79 6c 7a 87 8c 8c 87 90 8d 76 73     .n...ylz......vs
    41e6:	66 7b 77 6d 78 7e 8d 92 81 94 80 99 90 80 8a 87     f{wmx~..........
    41f6:	99 9d 95 89 96 8a 9f 7d 96 77 8d 65 6b 6f 62 86     .......}.w.ekob.
    4206:	5d 8f 5d 92 6a 83 6d 7b 86 7d 7c 67 77 53 7e 40     ].].j.m{.}|gwS~@
    4216:	59 66 5f 73 6b 6e 83 74 6b 63 5e 64 61 56 4b 52     Yf_skn.tkc^daVKR
    4226:	65 63 71 6d 70 88 65 6b 5f 64 79 71 6c 7a 7c 7e     ecqmp.ek_dyqlz|~
    4236:	88 83 91 8d 94 8e 8a 8f 95 a2 98 9d 8e 9a 99 8f     ................
    4246:	8c 8f 7b 82 67 64 84 6e 88 70 90 83 97 84 82 8e     ..{.gd.n.p......
    4256:	87 98 80 7c 70 85 6e 82 72 83 8d 89 8c 7a 93 7d     ...|p.n.r....z.}
    4266:	88 84 84 91 90 93 8f 91 9e 98 a9 99 98 9f 90 94     ................
    4276:	81 83 83 87 82 7b 83 74 76 7f 77 80 75 79 78 84     .....{.tv.w.uyx.
    4286:	81 95 86 86 90 78 94 79 87 74 7e 75 68 72 6f 7e     .....x.y.t~uhro~
    4296:	7d 84 89 9a 8a 9d 8d 98 94 87 8e 82 7d 83 78 74     }...........}.xt
    42a6:	81 73 85 91 85 95 80 7a 7a 79 6f 79 75 6e 7c 6e     .s.....zzyoyun|n
    42b6:	7a 6a 8d 70 87 76 6d 7f 65 72 63 82 59 76 68 60     zj.p.vm.erc.Yvh`
    42c6:	79 68 78 61 6c 54 70 6a 5c 7d 6a 73 71 66 6b 6e     yhxalTpj\}jsqfkn
    42d6:	73 62 65 58 5d 68 57 76 73 8a 91 8e a0 97 a5 9f     sbeX]hWvs.......
    42e6:	91 86 94 8c 8e 87 84 82 86 83 7e 88 80 89 7f 78     ..........~....x
    42f6:	6b 7b 80 7f 7f 84 88 8a 8e 88 90 a4 95 88 90 84     k{..............
    4306:	92 87 92 7a 94 85 70 81 64 7d 72 74 66 6e 81 84     ...z..p.d}rtfn..
    4316:	93 8c 9d 9f 9e 99 96 a7 98 9a 88 86 86 82 84 89     ................
    4326:	8a 91 94 7b 7c 85 82 7c 6e 5d 69 66 63 61 62 67     ...{|..|n]ifcabg
    4336:	7d 75 83 8d 95 98 95 97 8f 9a 88 94 85 88 82 7d     }u.............}
    4346:	7f 6b 7e 84 80 7c 79 73 78 8e 6d 79 94 81 91 92     .k~..|ysx.my....
    4356:	8b 92 8d 7c 76 7a 79 84 8e 88 8e 99 91 7e 7e 77     ...|vzy......~~w
    4366:	76 64 52 41 46 4c 4b 49 60 71 70 86 71 9e 9a a0     vdRAFLKI`qp.q...
    4376:	9c 87 94 a7 a1 84 71 6b 71 58 55 58 56 4f 40 3f     ......qkqXUXVO@?
    4386:	28 3f 75 2a 63 70 72 75 84 83 99 b3 a9 cd b2 d7     (?u*cpru........
    4396:	d4 da aa be c1 96 9c 77 6d 5d 55 38 27 4a 56 4f     .......wm]U8'JVO
    43a6:	65 87 79 8c a7 9a b5 c1 b0 b8 ac 98 a3 90 7e 6c     e.y...........~l
    43b6:	82 72 63 65 5d 75 4a 52 61 47 62 79 61 74 81 95     .rce]uJRaGbyat..
    43c6:	8c 83 9f ca 9c a5 a7 94 b8 98 a7 72 7e 95 7b 64     ...........r~.{d

000043d6 <astley6_data>:
    43d6:	57 39 62 57 6d 87 77 88 8c ba a9 9c af ac a2 a8     W9bWm.w.........
    43e6:	b7 8e a3 a1 90 a2 8d 7d 71 85 77 5a 6b 6f 79 72     .......}q.wZkoyr
    43f6:	8c 82 7f 8c 6d 86 7c 55 6d 5e 6a 60 62 5c 4a 56     ....m.|Um^j`b\JV
    4406:	52 72 68 5e 64 86 91 a0 80 83 9b a6 c7 a1 9a 94     Rrh^d...........
    4416:	9d 91 82 68 80 9d 77 6e 53 4c 56 52 53 51 63 70     ...h..wnSLVRSQcp
    4426:	73 7c 74 84 a5 9e 8c 83 86 8f 9c 8d 7e 95 98 9e     s|t.........~...
    4436:	9d a1 a1 96 8b 88 91 a5 b0 ad b1 98 b1 ae a5 95     ................
    4446:	91 90 8e 98 77 7c 87 70 5e 54 4c 44 47 46 31 3f     ....w|.p^TLDGF1?
    4456:	4d 46 64 62 5e 60 63 6b 58 71 63 6a 76 66 76 73     MFdb^`ckXqcjvfvs
    4466:	6f 6e 7b 79 7b 7d 8a 96 9d a0 a3 aa b5 c7 d4 ce     on{y{}..........
    4476:	c7 c2 bc bd b3 bc ba ad 9e 8f 8a 8c 7a 79 7a 70     ............zyzp
    4486:	84 88 7f 85 79 72 6f 7a 66 6e 64 4d 57 50 68 4d     ....yrozfndMWPhM
    4496:	4f 38 3b 40 40 46 4c 5a 52 70 67 6a 6e 6c 67 70     O8;@@FLZRpgjnlgp
    44a6:	57 63 7d 71 85 80 8b 80 7d 78 78 7e 6e 73 85 8d     Wc}q....}xx~ns..
    44b6:	a5 bb ae a7 a8 ad a0 b0 9f a8 a3 96 ab a8 a2 9f     ................
    44c6:	a4 97 9c 90 95 8b 96 9a 96 9c 8d a1 9e 92 85 83     ................
    44d6:	89 90 84 69 6f 64 6e 6d 5f 53 3f 59 3b 41 3b 43     ...iodnm_S?Y;A;C
    44e6:	4c 4f 65 54 60 62 6b 66 5d 52 72 65 6a 76 60 73     LOeT`bkf]Rrejv`s
    44f6:	6e 64 4c 69 71 79 7c 77 a9 a4 b9 b1 aa c4 a8 b5     ndLiqy|w........
    4506:	b8 9b d2 bd bb d2 ab bd 9f 9f 6c 78 98 7b a2 88     ..........lx.{..
    4516:	95 9b aa ac 85 a1 82 86 82 67 81 77 6d 91 6e 5e     .........g.wm.n^
    4526:	5f 4f 49 46 6c 3e 54 53 58 71 7d 7d 57 6a 74 64     _OIFl>TSXq}}Wjtd
    4536:	73 6d 62 78 58 83 72 7a 8a 6d 5e 46 80 4b 5a 6e     smbxX.rz.m^F.KZn
    4546:	4b 7c 71 86 78 76 95 84 88 8f 7d 9a 94 95 a6 86     K|q.xv....}.....
    4556:	b3 9a 95 75 8b 81 6f 9a 7e a2 9d b3 97 89 a8 9d     ...u..o.~.......
    4566:	a2 af 8e ab ae a6 d4 98 a7 90 78 54 64 6f 57 7a     ..........xTdoWz
    4576:	65 74 76 7c 79 60 71 77 63 80 6d 7d 7d 62 97 66     etv|y`qwc.m}}b.f
    4586:	65 6a 4a 3c 3a 6a 53 68 6b 61 78 85 8e 81 7c 89     ejJ<:jShkax...|.
    4596:	89 85 8b 75 79 6d 98 8f 7c 9a 7d 65 5b 80 6a 68     ...uym..|.}e[.jh
    45a6:	7b 67 90 8d a4 a1 8d 9f 97 8b 88 8a 90 86 a2 ad     {g..............
    45b6:	96 aa 91 82 76 8b 8e 8f 9a 85 95 9d a3 90 89 85     ....v...........
    45c6:	8b 7e 82 89 82 87 9e a6 92 92 7a 6d 5f 5c 69 6d     .~........zm_\im
    45d6:	6c 6a 73 70 6b 63 5f 5c 6c 7f 68 7d 73 7d 8e 85     ljspkc_\l.h}s}..
    45e6:	8a 6f 7b 5f 51 51 59 67 5d 62 64 7a 81 83 86 6e     .o{_QQYg]bdz...n
    45f6:	75 8d 80 8c 87 76 99 8b 9b 88 7c 7e 5f 61 61 68     u....v....|~_aah
    4606:	56 62 62 6a 7e 7d 94 9a 8c 9d 8d 82 99 86 a4 a2     Vbbj~}..........
    4616:	a8 ac 98 97 81 7d 6a 87 93 92 a4 95 a7 a2 94 97     .....}j.........
    4626:	79 89 99 84 a1 8a 9d a4 91 ac 7c 84 77 68 70 65     y.........|.whpe
    4636:	81 70 80 7f 7e 7f 6c 7b 62 61 80 69 7b 82 84 a2     .p..~.l{ba.i{...
    4646:	7f 98 80 72 73 63 6e 5c 72 64 62 6b 62 82 75 80     ...rscn\rdbkb.u.
    4656:	7f 64 7c 72 6a 6b 60 8c 6d 8f 9e 70 7d 6a 67 4a     .d|rjk`.m..p}jgJ
    4666:	4e 5a 5f 62 62 74 73 77 90 7c 86 97 85 92 90 a5     NZ_bbtsw.|......
    4676:	9e 92 9e 8e 7d 85 87 6e 7c 88 83 96 86 99 a0 83     ....}..n|.......
    4686:	93 88 76 8b 8b 8d 99 a4 a3 91 92 8e 7f 72 86 7c     ..v..........r.|
    4696:	75 7f 93 a2 96 98 8a 89 85 99 81 75 8e 7d 74 9c     u..........u.}t.
    46a6:	94 8f 97 87 8b 6b 7c 77 61 65 6a 6e 68 6f 7d 73     .....k|waejnho}s
    46b6:	77 71 6f 68 6c 75 5b 78 81 7b 85 82 8a 89 87 7e     wqohlu[x.{.....~
    46c6:	61 5c 4a 5a 65 59 66 58 6f 76 7c 8c 6f 80 7a 7d     a\JZeYfXov|.o.z}
    46d6:	9a 8d a1 86 71 71 63 6e 67 6d 5a 5d 78 7c 84 75     ....qqcngmZ]x|.u
    46e6:	6f 7b 6e 89 95 9d 9c 99 b5 a9 b4 a5 80 75 7a 80     o{n..........uz.
    46f6:	81 84 7e 84 8a 95 9d 8a 84 9d 8a 8a 9e 9c 8c 85     ..~.............
    4706:	9c 8e 85 9a 89 65 72 86 71 7f 7b 74 76 76 9c 9b     .....er.q.{tvv..
    4716:	7b 91 8a 7f 90 8a 74 61 72 81 7e 8d 93 74 70 8a     {.....tar.~..tp.
    4726:	82 7b 82 6d 6c 56 63 7b 6a 6e 6d 5f 5a 70 86 7b     .{.mlVc{jnm_Zp.{
    4736:	7d 90 83 8c 96 89 72 6c 7e 7e 82 82 78 71 4e 5d     }.....rl~~..xqN]
    4746:	5f 52 5a 5e 61 6a 84 86 8b 98 a8 9f 9a 98 7d 86     _RZ^aj........}.
    4756:	82 8b 8a 7d 8f 73 5c 63 74 7e 7a 71 75 81 96 ae     ...}.s\ct~zqu...
    4766:	b0 97 91 9a 8e 96 8d 73 7b 74 86 83 82 7f 68 6c     .......s{t....hl
    4776:	67 81 8d 87 8a 7c 82 80 8f a4 8b 98 8f 74 81 7f     g....|.......t..
    4786:	86 8c 7b 89 8a 84 7d 78 72 74 87 82 73 6e 7d 7d     ..{...}xrt..sn}}
    4796:	80 95 89 7a 90 86 70 77 73 71 70 7c 8f 8c 7f 79     ...z..pwsqp|...y
    47a6:	6d 62 6b 7f 6f 65 70 6c 6e 84 90 8b 7a 7c 6e 75     mbk.oepln...z|nu
    47b6:	8f 86 89 89 80 85 80 76 6e 56 5a 5f 71 69 6f 88     .......vnVZ_qio.
    47c6:	86 8b 75 7b 7c 6e 7b 77 7f 85 86 99 8c 9e 9d 87     ..u{|n{w........
    47d6:	86 71 6f 80 88 86 8b 8e 8c 77 98 a2 97 8d 8e a7     .qo......w......
    47e6:	90 7e 79 91 86 6a 7d 8e 89 88 71 5b 60 77 71 71     .~y..j}...q[`wqq
    47f6:	71 7b 7f 6e 67 6c 6d 69 64 66 82 82 9d a7 a7 a9     q{.nglmidf......
    4806:	88 83 76 61 5f 5b 5f 7e 75 71 82 94 a0 9a 9d a4     ..va_[_~uq......
    4816:	b2 b4 a7 9d 90 86 79 83 73 58 5c 58 68 7d 84 86     ......y.sX\Xh}..
    4826:	8c 7b 6f 6f 66 7f 87 86 8e 81 7d 8a 98 92 90 91     .{oof.....}.....
    4836:	8d 86 80 77 50 36 44 51 62 61 64 7d 7d 80 95 92     ...wP6DQbad}}...
    4846:	9e a7 93 8c 82 7f 8d 8b 92 88 86 85 86 91 8e 9a     ................
    4856:	94 99 96 8a 8d 7f 83 6a 5a 63 5a 6d 6d 6d 78 7e     .......jZcZmmmx~
    4866:	84 81 7f 6f 6e 5e 50 5b 59 68 64 5f 68 69 78 81     ...on^P[Yhd_hix.
    4876:	80 8f 78 74 7d 77 8d 88 85 8e 85 7c 85 8c 86 91     ..xt}w.....|....
    4886:	92 96 a0 8f 86 84 70 6f 70 7f 8b 85 99 a6 b0 be     ......pop.......
    4896:	cb bd b0 a6 89 7a 5c 65 6e 6e 78 70 7f 8e 92 98     .....z\ennxp....
    48a6:	9c 9a 9c 92 9b 9a 88 7c 77 6d 6c 72 60 67 63 5d     .......|wmlr`gc]
    48b6:	65 64 78 82 84 87 83 83 88 89 88 83 7f 7f 8e 9f     edx.............
    48c6:	9e 99 8c 8e 80 6b 67 5f 68 55 54 46 41 52 58 68     .....kg_hUTFARXh
    48d6:	6f 79 80 8f 91 8c 89 7e 7d 79 66 63 56 4a 4e 56     oy.....~}yfcVJNV
    48e6:	62 6d 70 77 7b 7c 7e 7e 89 92 8c 8d 8c 8d 8f 92     bmpw{|~~........
    48f6:	8e 8f 90 91 97 94 90 92 8c 87 86 8b 92 8d 8a 92     ................
    4906:	90 90 8a 8e 8c 81 80 87 8d 97 a2 a0 a0 9e 90 8b     ................
    4916:	8f 84 83 81 83 87 7c 74 6c 67 68 69 6d 6c 76 7c     ......|tlghimlv|
    4926:	7e 89 8d 8e 85 8b 8c 83 84 7e 82 8a 89 8a 86 83     ~........~......
    4936:	8b 8d 8b 89 82 7e 78 6c 61 60 60 64 64 69 74 7a     .....~xla``dditz
    4946:	7e 84 8a 88 89 80 79 6d 59 54 53 55 5b 55 56 5c     ~.....ymYTSU[UV\
    4956:	5c 65 74 8a 9b 96 9c 91 8b 7c 69 6e 70 71 6e 75     \et......|inpqnu
    4966:	7a 7c 81 89 92 a2 a0 a8 a8 94 8a 7a 71 6e 69 66     z|.........zqnif
    4976:	71 7b 83 94 9e ab aa b5 b5 a5 97 81 78 77 71 76     q{..........xwqv
    4986:	7c 7b 76 76 7f 7d 88 83 88 97 90 8e 84 7e 81 77     |{vv.}.......~.w
    4996:	72 6e 6f 6e 65 72 7c 88 93 96 96 98 99 91 94 88     rnoner|.........
    49a6:	7d 7b 6c 6f 72 75 7c 84 92 93 9b 92 7c 75 73 76     }{loru|.....|usv
    49b6:	72 67 6a 67 62 64 6c 76 73 73 6f 6f 73 6c 69 6c     rgjgbdlvssooslil
    49c6:	7d 80 81 82 76 78 69 6c 71 74 7a 76 7d 7a 76 77     }...vxilqtzv}zvw
    49d6:	7d 82 89 96 99 93 89 7f 7d 7c 7e 89 85 85 81 79     }.......}|~....y
    49e6:	84 8d 91 91 99 9e 98 97 90 8e 8f 85 88 8c 84 7f     ................
    49f6:	70 6f 75 72 7f 88 86 90 92 8a 92 8e 8d 82 71 61     pour..........qa
    4a06:	56 54 54 5e 63 77 89 90 93 96 a4 a6 a4 95 94 8a     VTT^cw..........
    4a16:	78 6f 65 68 6e 7b 8c 8b 96 9f 88 89 91 87 8c 81     xoehn{..........
    4a26:	7a 6f 69 62 53 56 59 61 68 68 6c 72 7d 78 81 8c     zoibSVYahhlr}x..
    4a36:	91 98 88 79 69 49 47 5a 57 5e 72 77 7e 8e 93 97     ...yiIGZW^rw~...
    4a46:	9e a1 9c 9b 95 7d 71 6e 60 69 77 7d 90 8e 8c 8b     .....}qn`iw}....
    4a56:	89 8d 8b 91 90 90 8e 87 8b 8e 88 85 84 87 84 81     ................
    4a66:	7b 79 88 90 94 9f 99 98 96 89 7b 76 77 72 6f 6b     {y........{vwrok
    4a76:	69 68 70 6b 69 7f 84 83 89 89 8a 84 7e 80 80 7e     ihpki.......~..~
    4a86:	7c 77 79 82 7b 7b 84 89 90 96 9d 99 97 99 96 8a     |wy.{{..........
    4a96:	89 7e 66 68 62 55 4f 56 64 67 6f 7e 84 8b 99 8e     .~fhbUOVdgo~....
    4aa6:	8a 81 7d 7e 71 65 55 4b 47 4b 51 60 77 77 89 99     ..}~qeUKGKQ`ww..
    4ab6:	97 9d 9a 8e 88 89 8b 7f 7b 7f 6e 65 66 6f 7a 81     ........{.nefoz.
    4ac6:	88 94 99 9c a9 a5 97 96 89 82 7d 75 71 6c 6e 74     ..........}uqlnt
    4ad6:	75 86 8b 93 9e 98 9b 9e 9e 98 8c 82 7d 78 64 6a     u...........}xdj
    4ae6:	64 60 63 63 72 78 82 89 87 8c 99 8f 8a 87 7e 7b     d`ccrx........~{
    4af6:	73 69 6a 6e 6c 6e 75 85 97 9a ab ad ab b2 b1 a8     sijnlnu.........
    4b06:	9e 8f 81 73 64 61 4e 4b 4d 54 5b 6b 76 84 94 8c     ...sdaNKMT[kv...
    4b16:	94 8b 84 7e 65 69 6d 69 68 67 66 6c 74 73 72 7d     ...~eimihgfltsr}
    4b26:	84 81 83 88 8c 8c 85 77 72 7d 7e 77 83 8c 92 94     .......wr}~w....
    4b36:	9b a3 9d 92 92 82 6f 6c 66 6a 6f 73 68 6b 7f 80     ......olfjoshk..
    4b46:	7f 83 91 9b 99 9c 9a 99 9b 91 7d 7e 72 65 6d 74     ..........}~remt
    4b56:	7b 73 73 78 65 74 95 84 84 7b 7a 7e 65 6c 82 91     {ssxet...{z~el..
    4b66:	8d 7d 76 80 8f 8b 90 95 8b 77 90 97 9b a6 a0 9c     .}v......w......
    4b76:	7b 76 77 6b 59 55 5b 65 63 6d 80 91 9a 96 9e 96     {vwkYU[ecm......
    4b86:	89 85 94 8f 7f 6b 65 71 5e 69 6d 67 63 59 83 9a     .....keq^imgcY..
    4b96:	97 92 80 73 65 6b 72 63 68 70 7a 7e 80 8e 99 a1     ...sekrchpz~....
    4ba6:	95 87 70 69 7a 70 89 9d 8f 89 7d 90 a1 96 8c 88     ..pizp....}.....
    4bb6:	82 68 73 7e 7e 8d 8c 8b 80 83 93 a3 97 88 89 70     .hs~~..........p
    4bc6:	74 8c 91 9b 9c 90 83 64 6d 67 57 67 4c 53 56 5c     t......dmgWgLSV\
    4bd6:	72 6b 78 88 7d 7b 7b 74 80 88 8c 81 6f 73 86 87     rkx.}{{t....os..
    4be6:	87 8b 94 99 73 7f a4 99 95 75 63 84 6b 74 8d 8e     ....s....uc.kt..
    4bf6:	a7 a7 98 82 7b 86 87 90 7b 69 5c 7a 8d 90 9c 86     ....{...{i\z....
    4c06:	75 60 63 6e 6e 77 76 76 7a 7e 7d 88 94 99 8e 83     u`cnnwvvz~}.....
    4c16:	73 61 6a 70 6f 65 65 71 90 a1 ae ae 93 83 6c 63     sajpoeeq......lc
    4c26:	6a 72 65 59 67 74 79 90 8a 8e 92 8d 90 70 62 78     jreYgty......pbx
    4c36:	71 8f 8f 83 98 a4 a3 b5 c0 a3 9a 85 93 8d 71 74     q.............qt
    4c46:	68 5e 75 84 80 8e 7e 71 72 62 65 4f 46 50 5e 76     h^u...~qrbeOFP^v
    4c56:	8a 87 89 9d 98 a1 95 78 58 41 46 3d 3b 3f 4e 6a     .......xXAF=;?Nj
    4c66:	76 93 98 93 91 83 7e 84 87 8e 92 8c 93 8f 91 ac     v.....~.........
    4c76:	ae ae be a1 8f 96 7d 7a 6a 6d 66 5e 71 7b 84 7a     ......}zjmf^q{.z
    4c86:	92 95 87 98 94 92 97 90 98 83 72 6b 61 a1 a5 a1     ..........rka...
    4c96:	ae 9c 98 8b 8c 77 67 63 6a 7d 7d 8b 8c 8c 8b 7e     .....wgcj}}....~
    4ca6:	82 73 57 41 46 69 69 6f 77 56 69 76 84 8e 7d 73     .sWAFiiowViv..}s
    4cb6:	6d 78 8c 8c 9a 91 81 80 72 93 87 6e 7f 82 83 85     mx......r..n....
    4cc6:	71 63 67 66 6e 6b 65 4d 4e 68 65 8c 95 75 7e 7a     qcgfnkeMNhe..u~z
    4cd6:	77 87 81 62 59 55 77 86 86 7d 61 6e 69 6c 7c 7a     w..bYUw..}anil|z
    4ce6:	81 86 8d a3 a7 9b ac ac 8f a5 9e 89 8f 98 9d a5     ................
    4cf6:	a5 95 86 78 80 8e 94 8f 8e 83 7f 98 99 9d b2 96     ...x............
    4d06:	90 82 91 7d 72 a1 80 87 84 61 6e 76 7e 84 73 79     ...}r....anv~.sy
    4d16:	6a 61 76 7b 8d 9f 84 98 7d 6b 81 6c 7c 85 75 86     jav{....}k.l|.u.
    4d26:	82 60 57 5b 6c 68 64 65 51 5e 8b 82 96 9a 80 6f     .`W[lhdeQ^.....o
    4d36:	69 76 68 83 8b 78 8e 86 7b 78 6c 71 85 83 7a 8c     ivh..x..{xlq..z.
    4d46:	52 66 76 66 9b 80 74 66 63 7b 75 85 7f 69 57 67     Rfvf..tfc{u..iWg
    4d56:	6c 6d 7a 6c 6e 81 75 6b 70 61 5d 78 83 8c 93 6c     lmzln.ukpa]x...l
    4d66:	68 80 75 a1 b3 7a 88 93 9a b6 aa a5 93 89 9d 98     h.u..z..........
    4d76:	b1 ad a7 ab a0 a7 a4 99 74 7d 7d 7e a5 8e 7b 73     ........t}}~..{s
    4d86:	82 86 84 98 62 5b 6a 72 89 8e a5 8c 83 96 8f 98     ....b[jr........
    4d96:	94 92 8f 80 84 81 84 6f 6f 78 70 92 82 6e 6b 56     .......ooxp..nkV
    4da6:	57 60 71 66 54 5a 67 7a 78 90 8c 69 74 73 7d 89     W`qfTZgzx..its}.
    4db6:	8c 90 84 85 76 8e 93 6a 7f 88 8f a3 94 74 6e 69     ....v..j.....tni
    4dc6:	69 7e 7e 66 56 49 5f 65 65 85 70 53 53 69 69 77     i~~fVI_ee.pSSiiw
    4dd6:	84 78 80 7e 7c 96 84 63 7c 75 7a 90 70 64 62 6c     .x.~|..c|uz.pdbl
    4de6:	7e 86 99 89 66 6a 86 85 95 b4 8d 77 8a 96 a2 b5     ~...fj.....w....
    4df6:	ab 9b a4 95 a1 a8 7d 89 91 90 af ab 80 6c 73 6f     ......}......lso
    4e06:	87 92 8f 8f 65 68 86 7b 8e a0 73 60 83 7a 7d a4     ....eh.{..s`.z}.
    4e16:	7f 81 9b 87 89 7d 6e 61 7e 86 91 9c 6c 60 6f 67     .....}na~...l`og
    4e26:	7e 84 7d 77 47 55 61 6b 8a 95 72 6e 92 7d 8a 96     ~.}wGUak..rn.}..
    4e36:	78 7c 87 87 7c 7c 7b 77 93 90 91 81 59 65 6c 72     x|..||{w....Yelr
    4e46:	96 83 8f 8e 58 61 62 61 7f 86 6a 71 84 66 79 83     ....Xaba..jq.fy.
    4e56:	56 7a 89 73 7b 77 5b 55 76 75 83 86 62 60 66 61     Vz.s{w[Uvu..b`fa
    4e66:	82 83 93 a2 75 75 89 a4 b0 b5 9a 7b 9c 84 9f aa     ....uu.....{....
    4e76:	8a a1 9f a3 9e 9c 82 7f 9b 8d 88 94 72 59 73 79     ............rYsy
    4e86:	85 83 94 8b 4e 53 67 7f a9 b5 89 85 9e 78 8f 93     ....NSg......x..
    4e96:	71 82 86 97 a0 93 72 7b 8d 7c 8c 86 63 5f 5a 56     q.....r{.|..c_ZV
    4ea6:	70 5e 6e 6f 44 55 61 75 94 97 62 7b a1 75 96 96     p^noDUau..b{.u..
    4eb6:	7b 93 92 91 8a 7d 63 7d 9f 91 9a 88 6d 76 7b 75     {....}c}....mv{u
    4ec6:	82 80 80 62 4e 63 5a 7b 9a 7f 52 6b 6f 5a 83 6e     ...bNcZ{..RkoZ.n
    4ed6:	75 83 8b 87 80 76 5b 74 85 7a 80 6e 65 71 66 70     u....v[t.z.neqfp
    4ee6:	6f 75 89 5b 5a 83 7d 97 b6 84 6f b1 95 9f be 85     ou.[Z.}...o.....
    4ef6:	91 a8 9f 9a 9f 8f 7e af a6 98 9f 6c 62 6e 5e 72     ......~....lbn^r
    4f06:	79 8d 88 4e 60 77 7a a3 b1 72 7c 8c 6b 92 8c 63     y..N`wz..r|.k..c
    4f16:	8c 8c 8a 90 88 68 76 9e 90 a3 8d 6a 6e 66 68 74     .....hv....jnfht
    4f26:	72 89 62 3f 71 7a 7f 9f 7b 4c 79 82 77 9d 76 70     r.b?qz..{Ly.w.vp
    4f36:	89 84 85 7f 6b 5e 96 a8 a4 ae 7d 68 7c 89 9c 9c     ....k^....}h|...
    4f46:	98 80 47 58 79 66 86 8a 43 5e 8a 69 8a 8e 65 7a     ..GXyf..C^.i..ez
    4f56:	83 81 88 74 46 60 84 7f 90 78 54 58 68 77 85 91     ...tF`...xTXhw..
    4f66:	7b 52 52 6f 7e 92 ae 74 6f aa 9d af ba 88 97 a8     {RRo~..to.......
    4f76:	96 9b 8b 66 6b 8e 9b a1 97 71 5c 72 83 84 9d 81     ...fk....q\r....
    4f86:	53 5e 7a 7d 95 96 6b 77 92 94 a3 99 74 7b 86 81     S^z}..kw....t{..
    4f96:	8e 76 63 6e 79 90 97 9c 7a 62 8a 7c 82 8d 6c 4c     .vcny...zb.|..lL
    4fa6:	4d 6d 6c 9b 97 5d 7b 79 8a a0 89 7d 7e 81 79 88     Mml..]{y...}~.y.
    4fb6:	78 6f 7f 8b 95 93 9e 77 76 99 76 8d 92 6e 57 64     xo.....wv.v..nWd
    4fc6:	78 89 99 70 67 71 72 94 9a 7b 81 8a 7f 7b 7d 71     x..pgqr..{...{}q
    4fd6:	6f 77 8c 76 82 7a 4a 76 70 6b 82 76 66 5c 7c 7e     ow.v.zJvpk.vf\|~
    4fe6:	9b 7c 5e 80 70 83 92 79 79 88 88 8d 9e 94 a4 93     .|^.p..yy.......
    4ff6:	9e a9 88 85 71 83 80 7c 82 77 70 68 8a 90 8f 8f     ....q..|.wph....
    5006:	6c 79 79 8d 88 66 6d 73 74 83 91 72 94 89 72 a2     lyy..fmst..r..r.
    5016:	8d 77 7c 81 75 82 83 6a 6e 67 75 96 8d 7a 89 84     .w|.u..jngu..z..
    5026:	6c 9a 94 55 73 76 75 95 8d 8a 85 78 65 8c 8d 6e     l..Usvu....xe..n
    5036:	99 7f 66 8a 78 79 8a 7c 72 9d 8f 7c 96 84 7e 8e     ..f.xy.|r..|..~.
    5046:	7d 61 79 7a 85 94 8d 9f 87 75 67 8e 7e 72 a7 63     }ayz.....ug.~r.c
    5056:	5f 6d 60 71 7f 70 65 88 63 77 9e 82 8d 7f 63 67     _m`q.pe.cw....cg
    5066:	77 6a 90 97 85 96 8a 78 6c 7d 7a a2 9f 78 80 72     wj.....xl}z..x.r
    5076:	7c 90 97 84 7c 73 6a 95 a1 86 76 66 5f 6e 7e 8f     |...|sj...vf_n~.
    5086:	a0 9f 95 8e 8a 74 63 74 94 82 85 75 61 64 6e 94     .....tct...uadn.
    5096:	9a 86 58 75 86 90 a7 7a 5c 5b 60 71 7f 8d 89 8e     ..Xu...z\[`q....
    50a6:	87 7b 91 6d 6d ad 8a 89 9a 5d 68 6c 80 9d 9b 67     .{.mm....]hl...g
    50b6:	5f 84 7d a5 9d 6c 71 65 6c 8e 97 a3 a5 8b 76 84     _.}..lqel.....v.
    50c6:	73 69 9b 8b 68 7e 63 54 7d 84 97 a0 79 6e 88 89     si..h~cT}...yn..
    50d6:	8c 8f 61 5c 6a 69 75 7e 7e 93 81 8a 86 70 92 87     ..a\jiu~~....p..
    50e6:	94 a0 68 65 68 5f 80 97 83 71 7b 62 88 9b 83 87     ..heh_...q{b....
    50f6:	7c 6b 84 82 89 92 8c 87 90 8a 6b 94 7b 6b 9c 6f     |k........k.{k.o
    5106:	54 7c 6b 70 a5 8e 8d a5 75 73 89 6c 6f 88 5e 59     T|kp....us.lo.^Y
    5116:	77 6e 8e 9d 8d 99 95 83 9b 97 70 78 7f 5a 71 83     wn........px.Zq.
    5126:	69 79 66 73 94 89 71 72 71 6f 98 89 69 80 80 8d     iyfs..qrqo..i...
    5136:	95 8d 92 7c 97 94 87 81 63 70 75 7b 90 8c 78 6a     ...|....cpu{..xj
    5146:	8c 99 9d 86 54 5d 78 8b 86 7d 6e 73 91 86 97 91     ....T]x..}ns....
    5156:	76 99 90 70 7b 5a 42 75 84 7f 9a 70 62 8d 8f 9c     v..p{ZBu...pb...
    5166:	9e 4e 4a 8c 83 93 a9 77 72 8d 7b 90 85 7b 93 88     .NJ....wr.{..{..
    5176:	82 81 76 58 7c 91 82 9a 6d 5d 7a 74 80 89 64 55     ..vX|...m]zt..dU
    5186:	82 84 94 ac 8c 90 7f 7b 8b 76 8d 97 7d 75 62 5b     .......{.v..}ub[
    5196:	60 72 85 97 7c 6a 79 7f 7f 89 7f 73 6d 73 89 a5     `r..|jy....sms..
    51a6:	a6 93 96 77 75 75 65 86 90 89 7d 65 5d 72 7d 94     ...wuue...}e]r}.
    51b6:	bc 7b 6d 84 65 76 7b 65 6f 8f 6a 7d a6 8c ad a1     .{m.ev{eo.j}....
    51c6:	79 89 6a 65 9b 9b 8b 93 7e 59 6e 83 7e a1 78 69     y.je....~Yn.~.xi
    51d6:	87 6e 73 7b 62 68 9f 77 67 a2 77 87 9a 7a 82 68     .ns{bh.wg.w..z.h
    51e6:	65 8c 8b 8b 91 83 6e 7c 82 93 94 7a 80 7c 79 6e     e.....n|...z.|yn
    51f6:	6d 64 67 86 89 86 7a 8c 97 96 90 7b 68 73 88 88     mdg...z....{hs..
    5206:	8b 79 74 78 72 74 9e 85 5b 90 82 7c 8e 69 52 70     .ytxrt..[..|.iRp
    5216:	7a 80 a0 69 64 93 79 9b 9e 5f 7e 92 81 96 88 65     z..id.y.._~....e
    5226:	6a 7e 7c 91 83 63 7c 85 84 a3 82 4d 70 74 71 ab     j~|..c|....Mptq.
    5236:	9d 5d 7b 8f 80 a6 7f 78 91 79 8a 7e 65 6b 80 8d     .]{....x.y.~ek..
    5246:	97 88 6c 76 87 95 a0 94 66 61 68 6f 88 8f 89 5f     ..lv....faho..._
    5256:	61 85 8c 90 8f 87 88 87 70 6b 6e 75 9a ad 80 6d     a.......pknu...m
    5266:	79 64 87 ad 81 73 77 4c 62 88 79 96 90 54 7a 95     yd...swLb.y..Tz.
    5276:	72 af 9e 72 90 64 61 77 83 90 af 9a 6a 7c 6e 7e     r..r.daw....j|n~
    5286:	9c 8c 70 89 62 4e 7a 75 80 99 81 64 7f 73 96 af     ..p.bNzu...d.s..
    5296:	97 86 6b 56 61 72 87 9e 85 77 74 72 8a 9a 86 84     ..kVar...wtr....
    52a6:	86 72 7b 72 6f 89 80 81 94 6c 54 99 8f a3 a9 68     .r{ro....lT....h
    52b6:	6c 5b 6a 89 9e 82 79 82 60 83 96 7a 70 95 7a 7f     l[j...y.`..zp.z.
    52c6:	99 75 81 8e 7c 86 8f 5b 76 89 90 a5 83 5f 62 64     .u..|..[v...._bd
    52d6:	6c 97 86 79 84 86 85 8c 82 70 74 7f 8d 89 7d 7c     l..y.....pt...}|
    52e6:	6e 6e 8a 81 76 8c 70 84 9a 74 83 68 61 84 82 7d     nn..v.p..t.ha..}
    52f6:	85 7b 77 98 9a 7c 6e 7c 7a 77 9c 8e 85 81 60 78     .{w..|n|zw....`x
    5306:	85 63 8c 97 6a 85 78 76 93 8a 76 90 83 60 7e 7e     .c..j.xv..v..`~~
    5316:	84 96 91 73 6e 74 6e 8a 86 94 98 77 85 7c 6d 79     ...sntn....w.|my
    5326:	94 8a 8d 6a 5f 72 6d 9a 8c 7d 7e 5c 71 94 8f a4     ...j_rm..}~\q...
    5336:	89 6e 7e 5f 72 91 85 94 9b 92 7f 82 5e 83 84 7c     .n~_r.......^..|
    5346:	a6 77 65 5e 6d 82 a0 88 69 6f 59 7e 9a 9a 86 75     .we^m...ioY~...u
    5356:	87 70 80 90 a1 84 91 91 7b 79 6f 7a 76 76 71 95     .p......{yozvvq.
    5366:	65 50 72 6b 9f a5 81 73 72 68 88 89 7a 8f 61 7e     ePrk...srh..z.a~
    5376:	7d 88 94 90 9d 84 98 7e 85 77 69 76 67 82 6f 72     }......~.wivg.or
    5386:	6c 80 82 8b 9c 70 73 87 78 6d 87 7f 82 78 81 97     l....ps.xm...x..
    5396:	77 92 97 75 80 8b 80 7e 8a 73 8a 6e 72 83 80 8c     w..u...~.s.nr...
    53a6:	68 6b 76 85 8e 8f 77 5c 6e 6e 77 94 8f 99 89 92     hkv...w\nnw.....
    53b6:	85 8b 7c 66 8f 7c 85 95 71 66 7b 6d 83 a3 70 64     ..|f.|..qf{m..pd
    53c6:	6f 67 95 a9 7d 6b 72 56 7e 97 96 a6 80 89 7c 6f     og..}krV~.....|o
    53d6:	85 77 80 8b 91 89 87 71 6d 70 61 7b 78 6e 6f 69     .w.....qmpa{xnoi
    53e6:	72 ae a6 88 8b 68 66 6f 90 9d 8f 93 69 79 7a 73     r....hfo....iyzs
    53f6:	a3 83 73 8c 91 7e 91 6e 51 90 64 74 8d 61 74 8a     ..s..~.nQ.dt.at.
    5406:	84 8f 99 82 70 63 66 8c 8a 9e aa 66 86 80 80 94     ....pcf....f....
    5416:	7e 80 82 89 6e 85 65 55 8d 75 7e 87 76 7c 8d 7e     ~...n.eU.u~.v|.~
    5426:	85 9c 7a 6e 5e 6a 77 78 97 89 99 85 7d 8c 86 93     ..zn^jwx....}...
    5436:	7b 77 64 75 85 77 8c 76 8f 6b 79 6f 88 87 79 98     {wdu.w.v.kyo..y.
    5446:	5f 7d 65 70 8a 6f 7f 7f 5f 97 94 97 9c 8a 69 82     _}ep.o.._.....i.
    5456:	98 6c 91 7b 89 a1 8a 82 9c 96 8a b4 b0 8a 67 3e     .l.{..........g>
    5466:	83 7b 5f 98 6b 6e 55 70 81 68 89 6e 83 74 73 55     .{_.knUp.h.n.tsU
    5476:	58 6d 54 73 6c 7b 62 5f 6c 78 94 88 83 68 6b 6b     XmTsl{b_lx...hkk
    5486:	76 c0 c0 a9 b8 94 9e c3 a8 a9 b0 90 9d b3 9d af     v...............
    5496:	a5 96 bb ab 95 8a 60 52 7d 79 82 7a 49 42 32 3b     ......`R}y.zIB2;
    54a6:	51 5e 5a 68 3a 2d 4d 45 69 6a 5c 56 65 5f 75 86     Q^Zh:-MEij\Ve_u.
    54b6:	72 9b 94 95 86 77 91 a9 c3 c9 bd aa a2 96 95 a5     r....w..........
    54c6:	90 91 a4 94 96 94 85 7e 82 7e 80 7c 51 67 68 6e     .......~.~.|Qghn
    54d6:	8c 79 7d 66 4f 55 51 51 55 5b 51 5b 5f 5b 67 55     .y}fOUQQU[Q[_[gU
    54e6:	43 6f 6a 7a 98 6a 79 75 7e 8a 8d 8b 80 8a 79 9b     Cojz.jyu~.....y.
    54f6:	a4 a9 aa 95 9c a8 b5 ad ba a3 a7 b9 c0 ce bf ad     ................
    5506:	a1 a7 a8 bb c4 a9 b4 a7 90 96 7c 8a 87 71 92 88     ..........|..q..
    5516:	88 83 78 6d 6a 74 67 64 4a 47 44 3f 58 58 4a 4d     ..xmjtgdJGD?XXJM
    5526:	38 36 4f 46 58 50 40 40 3c 36 36 58 51 5c 61 5f     86OFXP@@<66XQ\a_
    5536:	65 6a 7b 88 89 75 83 7e 79 8d 83 98 aa a7 ac ae     ej{..u.~y.......
    5546:	93 94 a4 a3 c4 d5 b8 c6 ac 9b b7 a6 c0 b0 aa 9d     ................
    5556:	85 93 84 ab 9b 8a 82 73 67 62 67 62 76 6c 7e 73     .......sgbgbvl~s
    5566:	74 6a 65 74 6b 80 6a 50 43 4a 4f 67 87 7e 73 60     tjetk.jPCJOg.~s`
    5576:	56 65 7b 87 9c 80 69 6c 5e 62 7c 8f 79 8e 80 75     Ve{...il^b|.y..u
    5586:	8f 78 78 8d 8d 98 af 80 89 89 77 96 9d b3 a7 a2     .xx.......w.....
    5596:	90 94 af b1 be ae 9b 85 8c 83 97 9f 93 98 87 8f     ................
    55a6:	85 9b 85 7a 90 80 91 84 7d 67 65 6e 63 81 70 4e     ...z....}genc.pN
    55b6:	5f 59 61 8c 78 6d 5c 33 2d 51 46 43 62 41 5b 6a     _Ya.xm\3-QFCbA[j
    55c6:	5d 78 6f 53 54 53 47 73 5c 59 67 5e 72 80 87 6a     ]xoSTSGs\Yg^r..j
    55d6:	77 76 77 8f 83 9a 90 82 8d a1 9e 9c a6 8f a5 a3     wvw.............
    55e6:	b6 b7 a7 9c 88 81 7f a4 8d 98 9c 72 90 8c 96 aa     ...........r....
    55f6:	9b a5 b3 a2 a5 a1 7d 7d 87 86 90 9a 8a 9d 9c 94     ......}}........
    5606:	ae 9a 8e 82 64 63 79 7f 8b 90 72 6a 6a 60 5c 6a     ....dcy...rjj`\j
    5616:	55 5c 68 4d 6b 6c 66 6a 62 60 5f 5b 4a 6a 61 7e     U\hMklfjb`_[Jja~
    5626:	93 7d 87 75 62 5a 75 66 8f 9f 7a 94 80 7c 80 80     .}.ubZuf..z..|..
    5636:	78 7b 87 7a 8f 88 8e a0 a1 93 97 8b 7e 9d 93 9f     x{.z........~...
    5646:	a5 a2 a4 98 8b 7c 83 76 90 98 82 90 79 75 74 71     .....|.v....yutq
    5656:	86 8f 7e 7f 73 6b 79 75 79 6e 66 62 61 64 7a 8d     ..~.skyuynfbadz.
    5666:	8b 82 6e 68 57 57 55 5d 7c 7d 8d 81 70 55 4d 46     ..nhWWU]|}..pUMF
    5676:	54 7c 66 71 63 4d 65 73 72 6c 50 3b 53 52 77 8e     T|fqcMesrlP;SRw.
    5686:	88 95 93 a0 8b 94 73 72 98 8e c9 b4 a3 a1 89 9a     ......sr........
    5696:	a7 c5 a7 a4 9d 89 a6 bb c9 c3 a7 8a 92 8a 94 a5     ................
    56a6:	9c 98 99 90 8b 98 7a 85 92 7f a4 99 7f 7c 5f 62     ......z......|_b
    56b6:	8c 8c 8d 7e 59 5f 6b 78 88 84 6f 6c 65 74 86 79     ...~Y_kx..olet.y
    56c6:	7d 68 6d 66 69 75 5d 6c 61 70 88 85 85 6d 67 60     }hmfiu]lap...mg`
    56d6:	78 62 65 70 50 64 5d 66 75 76 6e 6c 54 4e 72 69     xbepPd]fuvnlTNri
    56e6:	79 82 78 6e 74 6d 72 87 66 79 82 80 a3 92 7d 80     y.xntmr.fy....}.
    56f6:	81 73 7d 7b 69 67 6b 8a 96 9d a2 92 89 88 8d 99     .s}{igk.........
    5706:	87 83 84 7b 99 9a b0 a7 88 99 73 77 87 80 7c 89     ...{......sw..|.
    5716:	7d 6a 8d 78 91 9b 89 9f 93 8d a4 a5 9a bd a5 90     }j.x............
    5726:	9f 90 8e 9d a8 9a b2 aa 96 a8 8a 84 7f 6d 76 76     .............mvv
    5736:	5c 5b 67 5a 5f 74 74 67 75 6b 5b 76 77 74 7b 6d     \[gZ_ttguk[vwt{m
    5746:	5c 71 60 69 71 55 7b 68 6c 7a 5f 63 48 53 74 8a     \q`iqU{hlz_cHSt.
    5756:	7c 69 58 3e 57 4d 70 86 70 74 7e 77 83 a3 9a 97     |iX>WMp.pt~w....
    5766:	80 72 70 72 74 77 92 87 97 9a 8d 90 7d 6f 83 9c     .rprtw......}o..
    5776:	89 8f 74 65 6d 7b 93 8b 8f 6e 7f 8c 96 b6 b6 b8     ..tem{...n......
    5786:	aa 94 7f 8b 75 7c a2 88 bf af 9a b1 89 80 86 7d     ....u|.........}
    5796:	74 89 73 68 7d 6c 87 95 82 7d 73 5e 7b 8b 7c 94     t.sh}l...}s^{.|.
    57a6:	91 76 6e 8b 75 81 8d 7b a0 96 8f 99 7c 69 8b 7a     .vn.u..{....|i.z
    57b6:	6f 8d 6c 6b 70 70 7e 8d 7a 71 7b 66 84 8c 79 7b     o.lkpp~.zq{f..y{
    57c6:	82 6e 68 71 51 72 6a 75 98 7b 8d 81 72 75 7f 6c     .nhqQrju.{..ru.l
    57d6:	5e 64 47 6d 63 62 78 66 64 6e 70 6e 83 84 8f 93     ^dGmcbxfdnpn....
    57e6:	90 88 89 6b 55 75 5a 76 9f 8f ac a2 95 ab 98 7b     ...kUuZv.......{
    57f6:	73 54 4b 72 83 8e 9f 89 79 83 7a 97 9f 8b 8c 8a     sTKr....y.z.....
    5806:	8e 91 9f 83 7c 82 6d 92 8c 84 9c 8a 83 9d 9c 80     ....|.m.........
    5816:	8e 69 63 7e 83 96 8f 7e 6d 8a 77 91 ac 7a 78 6f     .ic~...~m.w..zxo
    5826:	66 75 99 87 8e 80 65 9d 81 82 89 5e 69 7c 71 7b     fu....e....^i|q{
    5836:	80 5b 60 6b 71 95 98 7b 75 65 67 86 86 80 80 84     .[`kq..{ueg.....
    5846:	81 87 93 85 9a 89 7d 91 82 8c 8d 7f 80 96 84 81     ......}.........
    5856:	7b 54 62 50 5e 7e 8b 82 82 73 5d 8b 7f 8e 8d 6c     {TbP^~...s]....l
    5866:	70 79 79 7d 9f 7a 87 85 64 84 71 69 83 99 92 99     pyy}.z..d.qi....
    5876:	90 6b 67 51 5a 69 6d 7e 81 85 80 96 9c 99 9d 90     .kgQZim~........
    5886:	6e 6d 71 68 95 97 a2 a6 7c 87 83 78 8f 8d 7b 85     nmqh....|..x..{.
    5896:	70 6d 79 63 74 79 73 7f 85 70 79 86 7c 98 8c 8c     pmyctys..py.|...
    58a6:	8a 6f 7e 7a 90 96 9d 98 82 8d 83 74 77 87 6f 71     .o~z.......tw.oq
    58b6:	75 5c 7d 71 78 7a 6c 7b 86 84 73 85 67 73 82 6f     u\}qxzl{..s.gs.o
    58c6:	84 6c 6f 71 80 92 a6 a4 88 87 77 7e 7c 81 89 7a     .loq......w~|..z
    58d6:	83 86 7f 78 83 7c 72 7d 78 92 8d 90 99 80 88 81     ...x.|r}x.......
    58e6:	72 71 68 63 6d 74 94 a0 a2 a6 86 7f 7a 7a 7c 77     rqhcmt......zz|w
    58f6:	61 71 77 6a 83 70 68 72 64 7a 87 7d 86 85 7f 95     aqwj.phrdz.}....
    5906:	8e 7f 76 58 62 6b 7e 93 97 a1 8a 8e 80 7f 90 81     ..vXbk~.........
    5916:	76 6d 6f 75 87 89 7f 88 6a 6f 81 79 88 91 80 81     vmou....jo.y....
    5926:	8e 7b 8f 84 6a 79 74 7d 85 92 85 86 8b 77 93 8e     .{..jyt}.....w..
    5936:	7c 87 83 7f 86 8a 74 73 72 60 7b 7c 73 8a 81 74     |.....tsr`{|s..t
    5946:	87 85 7b 8a 75 67 74 7c 89 9d 9f 81 79 67 5e 80     ..{.ugt|....yg^.
    5956:	71 6c 77 71 86 88 90 80 7b 74 5a 83 76 7d 97 80     qlwq....{tZ.v}..
    5966:	82 8d 7c 7d 8e 6c 7f 90 8c 9f a4 a2 90 88 65 65     ..|}.l........ee
    5976:	73 4f 69 6f 74 87 93 9c 92 99 77 74 84 6b 72 80     sOiot.....wt.kr.
    5986:	5e 6c 8a 72 8c 89 5a 7c 7e 7f a7 a3 96 98 88 6e     ^l.r..Z|~......n
    5996:	7c 7e 5c 6c 72 65 7e 8d 89 87 80 69 7a 88 74 84     |~\lre~....iz.t.
    59a6:	81 6b 79 85 78 8c 84 6e 8f 8c 99 af 95 8c 87 7b     .ky.x..n.......{
    59b6:	7d 8c 7e 6f 74 6d 75 71 77 72 5f 5e 68 8c 89 8b     }.~otmuqwr_^h...
    59c6:	95 8a 82 8d 8f 82 85 76 78 88 7f 92 9e 8b 7f 86     .......vx.......
    59d6:	6f 78 75 66 77 73 82 8c 84 80 75 67 57 60 6c 66     oxufws....ugW`lf
    59e6:	6c 78 6f 81 98 8e 8d 83 6e 7d 86 86 a9 9f 90 9c     lxo.....n}......
    59f6:	8d 84 8e 76 6e 7f 73 85 90 80 8e 8c 7d 63 61 6f     ...vn.s.....}cao
    5a06:	5c 60 69 5e 63 7a 84 92 9f 9a a2 9b 97 a0 9a 8a     \`i^cz..........
    5a16:	8a 87 7d 86 77 6e 71 73 85 7b 85 85 6f 7d 73 71     ..}.wnqs.{..o}sq
    5a26:	83 6d 59 5e 53 63 7e 87 88 8f 87 8a 9d 95 a1 99     .mY^Sc~.........
    5a36:	85 7c 7c 81 85 8e 8c 8a 89 9b 91 83 7a 6c 63 62     .||.........zlcb
    5a46:	6a 74 6e 6a 6f 70 68 73 80 5e 63 78 6b 82 9c 9b     jtnjophs.^cxk...
    5a56:	a5 b1 a8 aa ac 9d 9b 96 84 88 87 7b 7e 78 74 61     ...........{~xta
    5a66:	66 57 58 64 55 58 62 65 68 79 6f 60 6a 71 83 98     fWXdUXbehyo`jq..
    5a76:	9f 9d 9b 99 a3 a7 a1 92 86 87 85 96 9a 8f 83 81     ................
    5a86:	72 78 7b 61 5a 4d 4c 5f 62 6d 78 77 73 7f 84 7d     rx{aZML_bmxws..}
    5a96:	8d 85 6f 7e 87 8c 9e a4 a4 ab b9 b7 ae a2 8e 81     ..o~............
    5aa6:	85 7e 76 71 59 4f 55 58 5e 5f 5e 5f 5e 69 7e 80     .~vqYOUX^_^_^i~.
    5ab6:	7c 83 7d 76 84 8e 97 9e a2 a0 9d a5 a5 a2 a1 96     |.}v............
    5ac6:	8e 8f 81 76 74 6c 6d 71 6f 76 70 60 57 4f 50 63     ...vtlmqovp`WOPc
    5ad6:	6d 6e 75 78 85 8b 90 8e 7c 81 85 78 97 9f 97 a9     mnux....|..x....
    5ae6:	a9 a9 ad aa 9c 98 8f 82 81 6c 67 60 5b 61 51 56     .........lg`[aQV
    5af6:	58 4e 53 57 5d 69 79 81 7b 7b 7d 7a 80 92 97 9a     XNSW]iy.{{}z....
    5b06:	a3 a3 9e ad ae a0 9d 8d 89 8c 85 81 81 7c 78 7b     .............|x{
    5b16:	6b 60 62 54 4f 5a 56 5d 66 67 76 85 8f 8e 88 8a     k`bTOZV]fgv.....
    5b26:	81 87 97 90 8b 93 9a 98 a8 ad a8 b2 a1 91 8c 7b     ...............{
    5b36:	70 6e 65 60 60 64 63 64 5e 60 64 65 6c 68 70 7b     pne``dcd^`delhp{
    5b46:	85 85 8c 8c 7f 8c 8f 94 a5 aa 9e 9f 9a 8e 9c 89     ................
    5b56:	81 86 7a 7d 7f 7c 7f 7a 77 6b 6a 62 58 53 48 5d     ..z}.|.zwkjbXSH]
    5b66:	6d 7a 88 8a 8d 8b 88 83 7e 7f 79 78 82 82 8f 9d     mz......~.yx....
    5b76:	9f a0 a4 a3 a0 9b 8b 83 7e 75 71 6f 63 61 62 5c     ........~uqocab\
    5b86:	6a 6f 6a 67 69 64 6d 84 89 84 86 81 79 8c 8c 92     jojgidm.....y...
    5b96:	97 98 96 91 99 91 88 85 83 88 88 8a 78 74 6e 72     ............xtnr
    5ba6:	78 6d 65 5e 56 5c 63 6e 76 83 8e 8d 9b 9c 9b 91     xme^V\cnv.......
    5bb6:	89 82 77 81 82 7c 87 91 97 9b a1 8f 90 83 6e 66     ..w..|........nf
    5bc6:	6a 6f 63 6a 63 6f 77 7d 7c 78 76 6c 79 6f 7d 87     jocjcow}|xvlyo}.
    5bd6:	8c 89 8c 91 88 94 81 88 93 9f 99 8d 92 79 81 88     .............y..
    5be6:	7a 7a 7d 7c 7a 73 78 69 75 6d 63 5b 69 6f 65 83     zz}|zsxiumc[ioe.
    5bf6:	7b 92 99 a0 91 8d 8d 78 82 70 6d 70 7e 7d 8c a5     {......x.pmp~}..
    5c06:	a8 aa 9f 9a 96 9b 7d 61 61 5c 4f 56 5a 4b 67 76     ......}aa\OVZKgv
    5c16:	89 8e 84 82 84 81 74 85 82 8d 89 85 81 80 8d 84     ......t.........
    5c26:	89 80 8d 94 9e 8c 8b 9d 87 8d 73 6f 79 71 71 5d     ..........soyqq]
    5c36:	6c 60 58 6d 55 59 7f 8e 75 95 9e 91 a1 87 82 7c     l`XmUY..u......|
    5c46:	83 76 5e 5f 7d 8b 92 a9 99 92 ab 9b 8a 8a 90 82     .v^_}...........
    5c56:	6e 6f 63 6c 6d 5d 56 70 80 86 86 6f 89 95 79 73     noclm]Vp...o..ys
    5c66:	78 82 73 76 6b 75 86 9a 8e 74 89 89 a1 a5 99 8d     x.svku...t......
    5c76:	96 89 7b 87 89 8d 7c 72 5f 65 6a 54 6a 76 83 6b     ..{...|r_ejTjv.k
    5c86:	86 ab 94 99 9f 8e 74 70 5a 53 42 53 55 60 9c b8     ......tpZSBSU`..
    5c96:	9d 92 8f 9d bb a5 84 5f 71 6a 75 83 71 6c 7f 84     ......._qju.ql..
    5ca6:	6d 7c 90 9a 94 7f a0 93 79 77 5e 75 6a 6c 63 67     m|......yw^ujlcg
    5cb6:	7c 75 65 66 94 ad a5 8f 6f 5b 6a 80 77 84 7e 70     |uef....o[j.w.~p
    5cc6:	7f 76 76 68 67 6e 76 6b 81 98 a4 c7 ad a2 92 8d     .vvhgnvk........
    5cd6:	84 71 67 4b 5b 78 96 a5 a4 b9 c9 bf bb a6 8f 8e     .qgK[x..........
    5ce6:	84 7d 7c 81 88 74 6c 65 71 69 74 87 75 7a 68 84     .}|..tleqit.uzh.
    5cf6:	8b 71 69 52 4f 30 54 63 49 58 4a 4d 65 79 7f 7e     .qiRO0TcIXJMey.~
    5d06:	76 74 79 92 94 90 8d 6f 79 72 6d 6e 62 5b 4b 67     vty....oyrmnb[Kg
    5d16:	8d 8b 8d ab 9f 7d 72 66 5e 54 51 4b 5d 83 93 a6     .....}rf^TQK]...
    5d26:	9c 95 a2 b9 bd ac aa 99 a0 a9 ae b0 a5 a5 8f 9b     ................
    5d36:	aa 91 8a 9f b1 93 8c a2 9c 8d 75 6f 72 70 7b 75     ..........uorp{u
    5d46:	66 60 63 7a 84 88 86 92 8a 70 80 74 74 7c 6b 65     f`cz.....p.tt|ke
    5d56:	57 67 65 67 72 4f 51 7b 97 8f 8f a6 9a 85 78 7e     WgegrOQ{......x~
    5d66:	6f 65 67 59 65 6e 7c 8a 97 8e 93 ad b2 a1 94 7f     oegYen|.........
    5d76:	73 75 75 73 4f 5e 64 72 7a 53 73 9f 8a 76 7a 85     suusO^drzSs..vz.
    5d86:	73 68 67 56 5c 66 5c 65 5d 6b 69 56 7a 72 79 87     shgV\f\e]kiVzry.
    5d96:	82 8e 93 a8 a2 87 87 73 61 65 7c 98 78 66 94 95     .......sae|.xf..
    5da6:	88 a6 af ac 84 7c 7d 6d 71 71 71 67 7c ae 84 7c     .....|}mqqqg|..|
    5db6:	98 8d 9a a4 ad ab aa ac 93 9c 9d 96 99 7e a4 9f     .............~..
    5dc6:	7d ae c7 a7 9d a1 9e 86 71 81 7d 7f 87 86 86 6d     }.......q.}....m
    5dd6:	7f 83 49 3b 65 72 69 7d 84 87 89 7c 62 65 55 4b     ..I;eri}...|beUK
    5de6:	45 4d 72 5d 5d 84 78 77 85 9d 96 77 7d 7e 85 8e     EMr]].xw...w}~..
    5df6:	86 84 6e 61 70 69 4c 48 84 88 7c 9c 9d a0 98 74     ..napiLH..|....t
    5e06:	68 6a 5c 5b 53 63 78 6f 8f a3 86 82 8c 93 7d 6c     hj\[Scxo......}l
    5e16:	73 76 7b 7c 7a 6f 5f 63 69 60 41 40 7d 7e 78 87     sv{|zo_ci`A@}~x.
    5e26:	9c b4 a0 88 8a 85 7e 6e 6b 7f 8b 81 95 a2 85 8a     ......~nk.......
    5e36:	9a 9f 97 8f 88 7e 7c 80 8c 7a 67 7f 80 76 64 59     .....~|..zg..vdY
    5e46:	95 aa 90 94 a1 b7 a3 8c 8d 94 96 92 88 90 b1 9d     ................
    5e56:	9c ba ab a3 9c 98 8f 7e 88 82 84 94 94 87 65 68     .......~......eh
    5e66:	78 6e 46 36 6a 7b 78 8c 95 a0 91 7a 6c 5a 5e 56     xnF6j{x....zlZ^V
    5e76:	4f 4e 71 81 5f 7d 82 6b 6e 73 8e 81 7e 83 74 7c     ONq._}.kns..~.t|
    5e86:	8b 90 72 59 6b 74 5b 4d 7b 94 87 99 a3 9c 9c 81     ..rYkt[M{.......
    5e96:	6d 5d 62 69 68 63 66 8a 73 73 9a 91 7d 63 76 7d     m]bihcf.ss..}cv}
    5ea6:	71 81 7b 7a 71 6d 67 4f 57 6e 6c 48 52 8a 85 8f     q.{zqmgOWnlHR...
    5eb6:	a6 ae b6 9e 96 89 6c 71 79 77 74 8b 9e 7b 75 94     ......lqywt..{u.
    5ec6:	9a 83 7f 99 8e 7e 7e 81 7b 78 87 82 73 7c 92 84     .....~~.{x..s|..
    5ed6:	64 7c 9e 96 99 aa b1 a3 98 95 8a 87 94 a2 85 7d     d|.............}
    5ee6:	a1 b1 a0 82 a8 ab 84 7f 8a 9b 94 99 91 6c 5f 76     .............l_v
    5ef6:	72 55 51 63 74 4f 4d 82 92 98 95 90 86 85 6e 51     rUQctOM.......nQ
    5f06:	4f 56 6b 62 58 7a 87 82 5f 6c 99 88 7a 7b 81 8a     OVkbXz.._l..z{..
    5f16:	8a 82 64 61 7f 83 74 60 7d 97 81 66 68 9f a9 87     ..da..t`}..fh...
    5f26:	7f 70 87 88 63 64 64 6e 6e 64 6f 88 a6 8a 63 7a     .p..cddnndo...cz
    5f36:	90 85 6d 70 7a 72 66 57 50 60 6f 7b 67 59 89 97     ..mpzrfWP`o{gY..
    5f46:	91 73 71 b6 b5 96 86 85 96 84 74 6b 72 8b 87 84     .sq.......tkr...
    5f56:	77 91 b0 86 6b 79 96 82 67 80 82 8b 9b 89 7d 87     w...ky..g.....}.
    5f66:	9a 9f 7e 6b 8b a6 9f 7b 74 9f b6 a1 80 92 ae a2     ..~k...{t.......
    5f76:	84 6b 80 9a 9a 9b 82 96 b2 9a 7c 7f 97 7f 5a 6c     .k........|...Zl
    5f86:	70 74 76 57 4e 5d 89 8d 6a 61 79 96 86 72 6e 6e     ptvWN]..jay..rnn
    5f96:	94 90 59 5d 85 8a 6c 59 60 72 7b 6a 6b 7d 99 87     ..Y]..lY`r{jk}..
    5fa6:	5c 68 82 77 60 75 89 83 8c 7f 76 81 95 ab 88 72     \h.w`u....v....r
    5fb6:	82 8b 76 60 79 75 6b 83 78 70 7c 89 8c 71 70 7c     ..v`yuk.xp|..qp|
    5fc6:	78 6f 71 97 88 63 54 6a 8d 62 5a 72 70 76 76 85     xoq..cTj.bZrpvv.
    5fd6:	7f 91 ac 9e 91 8d 97 88 64 68 7b 8e 86 6e 88 a1     ........dh{..n..
    5fe6:	9d 86 7b 82 7d 70 63 58 6e 8d a1 6c 5a a4 aa 90     ..{.}pcXn..lZ...
    5ff6:	7b 86 a6 8d 89 84 8c 9e ac a7 8d 9b a5 8a 6b 61     {.............ka
    6006:	7d 90 90 88 68 8f c2 a5 80 7d a7 a1 6c 5c 67 82     }...h....}..l\g.
    6016:	80 64 62 7b 83 75 84 84 7a 83 7c 74 72 82 96 82     .db{.u..z.|tr...
    6026:	71 82 78 6a 60 53 61 6c 73 77 75 7f 86 92 88 70     q.xj`Salswu....p
    6036:	6c 7a 83 69 66 79 75 77 9d 99 80 8b a6 a4 89 76     lz.ifyuw.......v
    6046:	7b 7b 7a 7c 7b 69 6f 77 64 65 65 72 73 73 81 82     {{z|{iowdeerss..
    6056:	8c 9c 8b 74 83 8b 6b 60 71 7a 75 5d 54 82 95 86     ...t..k`qzu]T...
    6066:	8d 92 96 95 87 7c 62 6b 82 88 6c 6d 90 85 7a 77     .....|bk..lm..zw
    6076:	77 7f 94 87 69 7f 93 9a 80 71 71 70 8a 7e 76 80     w...i....qqp.~v.
    6086:	8b 9b 92 91 7f 86 aa 9f 98 7f 82 89 7f 8b 7d 75     ..............}u
    6096:	7a 7d 70 72 7e 92 95 a6 a4 98 9f 85 98 8d 6e 83     z}pr~.........n.
    60a6:	68 66 7f 88 7c 5f 6f 8d 91 5e 52 87 83 89 79 60     hf..|_o..^R...y`
    60b6:	69 74 7d 76 6b 62 77 83 70 61 75 8e a5 91 83 8e     it}vkbw.pau.....
    60c6:	96 a0 7b 7f 7c 69 74 6e 85 80 74 86 9b 89 72 8b     ..{.|itn..t...r.
    60d6:	81 72 7e 76 6d 67 72 89 73 74 74 6e 76 7a 7b 73     .r~vmgr.sttnvz{s
    60e6:	8f b5 b1 92 8c 95 90 78 67 5e 68 65 73 8a 6b 5f     .......xg^hes.k_
    60f6:	8a 99 69 61 79 86 70 51 61 6f 73 82 88 86 82 8f     ..iay.pQaos.....
    6106:	8f 78 78 92 86 8c 9e 9f ad 92 95 89 6e 78 5f 5d     .xx.........nx_]
    6116:	6e 7f 82 67 7b 90 8c 85 84 85 84 85 6d 55 62 8d     n..g{.......mUb.
    6126:	93 86 90 88 97 90 81 89 91 a6 99 98 9b a0 b0 85     ................
    6136:	7b 79 59 66 5b 73 70 52 85 9b 6f 65 85 7a 66 61     {yYf[spR..oe.zfa
    6146:	55 5b 56 76 94 85 89 94 92 80 6e 7f 8d 93 a8 9e     U[Vv......n.....
    6156:	98 a2 b1 9e 76 76 65 61 6d 6e 74 56 6b a3 8c 6b     ....vveamntVk..k
    6166:	7d 8f 8a 6d 5a 57 5e 76 89 8e 8a 8e a6 8c 72 7f     }..mZW^v......r.
    6176:	87 8f 98 99 92 9a a0 95 88 70 65 5c 69 6f 5b 67     .........pe\io[g
    6186:	71 7a 86 7f 71 7c 7e 6c 65 51 64 78 7e 9c 8a 91     qz..q|~leQdx~...
    6196:	a7 95 86 7b 85 8c 8f 99 9e a7 8e 8c 88 6f 68 63     ...{.........ohc
    61a6:	68 51 47 8b 81 5d 92 97 84 84 7b 75 6b 71 80 76     hQG..]....{ukq.v
    61b6:	79 8a 9a 8f 86 94 9a 95 8f 91 82 90 9e 90 82 87     y...............
    61c6:	8c 7d 7b 70 53 59 72 83 66 63 86 8b 72 6d 6c 60     .}{pSYr.fc..rml`
    61d6:	7a 80 71 7a 67 7c 9c 82 7a 86 9a 98 8f 92 93 a8     z.qzg|..z.......
    61e6:	9f 8a 8c 8e 87 89 81 51 4b 80 6c 60 77 67 8e 98     .......QK.l`wg..
    61f6:	67 69 6b 80 8f 71 79 73 7c 90 8a 83 84 9b 9d 91     gik..qys|.......
    6206:	8e 8b 9a 96 7e 85 87 89 96 7a 5a 5c 7c 6f 5a 79     ....~....zZ\|oZy
    6216:	6f 5e 7d 72 4f 6f 90 81 91 88 67 81 7b 7b 86 80     o^}rOo....g.{{..
    6226:	9a 96 93 97 8c 93 94 8d 8c 82 8a 99 7d 5a 73 7a     ............}Zsz
    6236:	58 6a 71 6b 79 60 72 78 68 96 89 86 9a 7a 82 7b     Xjqky`rxh....z.{
    6246:	6c 82 8f 94 90 97 a1 9f 9c 7e 7a 86 76 81 89 77     l........~z.v..w
    6256:	72 8f 8c 63 79 78 67 87 67 3a 60 7f 6f 7d 91 85     r..cyxg.g:`.o}..
    6266:	8f 87 70 76 6c 80 96 7c 82 8e 95 9e 8d 8d 92 8a     ..pvl..|........
    6276:	8e 92 70 69 9b 83 70 8c 6e 70 7b 68 5e 3e 6c 92     ..pi..p.np{h^>l.
    6286:	72 8e 89 7f a2 86 70 6b 7e 90 94 91 7e 98 9d 89     r.....pk~...~...
    6296:	94 87 79 87 89 66 5b 8d 89 76 98 76 73 89 64 5d     ..y..f[..v.vs.d]
    62a6:	64 63 60 6d 7f 7a 8f 8b 7e 89 82 82 80 7d 83 8a     dc`m.z..~....}..
    62b6:	9b 8c 83 98 7f 81 95 86 7b 6c 80 7e 6a 88 89 79     ........{l.~j..y
    62c6:	76 79 60 64 75 68 82 82 6c 88 8e 80 87 82 89 8a     vy`duh..l.......
    62d6:	82 87 81 99 96 8d 97 89 85 82 76 71 56 5e 8f 73     ..........vqV^.s
    62e6:	6a 9b 96 8b 95 74 6f 88 6b 71 84 66 78 96 73 66     j....to.kq.fx.sf
    62f6:	84 84 84 85 71 6f 8d 96 8a 93 8c 7f 89 81 75 7e     ....qo........u~
    6306:	6d 6f 9a 7a 6c 96 8e 84 94 82 6c 80 71 70 8c 76     mo.zl.....l.qp.v
    6316:	74 8c 80 73 82 76 75 89 7f 77 90 96 88 98 94 89     t..s.vu..w......
    6326:	8a 7e 73 65 5d 6f 7a 74 7a 86 91 8c 81 83 83 79     .~se]oztz......y
    6336:	76 7d 82 78 78 7e 77 7e 7a 71 7f 72 6b 88 7e 7f     v}.xx~w~zq.rk.~.
    6346:	9e 8d 8e 97 79 83 86 6a 77 77 6b 7d 7c 6a 7e 8b     ....y..jwwk}|j~.
    6356:	78 87 86 76 84 8a 87 7c 7e 7f 77 8f 7c 68 85 7c     x..v...|~.w.|h.|
    6366:	6e 8b 8b 89 8e 8d 8c 91 86 74 78 6e 6a 6e 68 6c     n........txnjnhl
    6376:	70 7e 88 89 88 8b 90 93 8c 83 8c 87 7a 76 79 78     p~..........zvyx
    6386:	73 76 78 70 7b 7a 75 84 8d 83 86 91 82 83 85 7e     svxp{zu........~
    6396:	7e 7d 82 85 78 6c 7b 84 7f 89 86 89 89 82 8c 81     ~}..xl{.........
    63a6:	79 7e 75 7d 76 76 7f 80 82 79 85 94 89 85 8b 89     y~u}vv...y......
    63b6:	84 88 83 79 79 74 72 78 70 6d 70 73 7e 84 8b 85     ...yytrxpmps~...
    63c6:	7c 8d 8b 7d 7e 78 7d 78 6d 74 80 85 80 7a 7f 81     |..}~x}xmt...z..
    63d6:	8a 88 82 88 8e 94 94 8e 7f 74 7e 73 74 75 6f 78     .........t~stuox
    63e6:	78 77 7e 82 87 80 7d 7e 78 72 7b 75 6f 7b 7b 7f     xw~...}~xr{uo{{.
    63f6:	77 7b 87 85 8c 82 84 90 8b 8b 86 87 82 76 6e 6e     w{...........vnn
    6406:	73 78 7d 89 8b 92 92 8e 8a 7d 79 7c 84 83 73 74     sx}......}y|..st
    6416:	83 76 77 74 6d 7d 71 74 7a 6f 78 8f 89 87 8f 90     .vwtm}qtzox.....
    6426:	91 7f 6f 74 7f 81 78 7d 82 8c 95 86 83 8c 7e 74     ..ot..x}......~t
    6436:	7c 79 76 83 88 87 82 7e 84 77 71 7e 7c 7f 87 86     |yv....~.wq~|...
    6446:	87 86 87 83 80 78 6d 73 76 7c 76 7c 8e 90 8c 88     .....xmsv|v|....
    6456:	7e 6f 6d 68 74 7f 7a 7f 89 82 74 88 88 7f 7f 7b     ~omht.z...t....{
    6466:	76 77 7e 8f 99 8f 8d 96 8f 83 7b 76 7b 82 71 74     vw~.......{v{.qt
    6476:	7e 72 75 79 74 79 7c 78 7b 83 81 88 91 8a 81 7b     ~ruyty|x{......{
    6486:	84 80 7c 76 77 74 6e 73 85 7d 68 74 7b 72 75 7d     ..|vwtns.}ht{ru}
    6496:	8c 90 8c 99 a6 99 92 8a 74 69 69 63 6c 80 86 78     ........tiicl..x
    64a6:	83 8f 84 81 7b 75 85 73 73 75 7a 71 8c 92 75 91     ....{u.ssuzq..u.
    64b6:	84 81 6f 81 6d 9d 82 7e 99 8b b3 8e ab 7d 9a 7b     ..o.m..~.....}.{
    64c6:	60 8e 79 73 5c 55 4d 3d 46 54 39 6a 70 66 98 9e     `.ys\UM=FT9jpf..
    64d6:	a3 c1 a5 b7 ce c7 ca bd c3 a5 b0 a5 7c 6c 65 5d     ............|le]
    64e6:	4f 40 4f 53 3c 4f 62 54 53 44 58 72 57 7c 5b 52     O@OS<ObTSDXrW|[R

000064f6 <astley5_data>:
    64f6:	ae ad a8 91 6c 91 85 83 7d 48 6b 78 5e 77 59 2a     ....l...}Hkx^wY*
    6506:	4f 68 4f 55 40 7f 7a 52 80 7c 9a 75 93 9a 7a 9b     OhOU@.zR.|.u..z.
    6516:	9a 90 88 99 a5 aa a2 a3 be bd b4 aa 8f 97 8d 6c     ...............l
    6526:	68 70 6e 6d 6b 6e 62 62 64 64 57 4c 52 61 74 7c     hpnmknbbddWLRat|
    6536:	77 58 72 79 7c 8a 80 7f ac b2 9d 8a 8e b1 bc bc     wXry|...........
    6546:	a2 84 93 b1 80 6c 6b 53 7c 78 66 7d 80 5d 65 71     .....lkS|xf}.]eq
    6556:	61 56 50 52 55 6e 6c 6d 5c 5b 77 8b a1 88 89 95     aVPRUnlm\[w.....
    6566:	8a 8d 96 97 91 82 83 9a 9e 8c 8b 88 85 a1 88 7c     ...............|
    6576:	9e 9b 8c 99 8f 8a 8c 87 77 6c 79 6b 73 6a 63 65     ........wlyksjce
    6586:	6e 6d 82 7c 74 74 69 70 7e 76 6b 68 53 59 54 56     nm.|ttip~vkhSYTV
    6596:	56 64 5f 64 70 70 7b 78 80 8a 89 98 8f 8a 94 88     Vd_dpp{x........
    65a6:	93 9b a1 8d 8f 93 9f b5 ad a4 9a b3 ca ba c2 b2     ................
    65b6:	a2 9d 92 7f 82 97 91 91 8b 83 8a 80 89 87 78 71     ..............xq
    65c6:	61 68 62 61 58 59 54 55 48 42 5d 5f 4f 4c 53 64     ahbaXYTUHB]_OLSd
    65d6:	66 5e 61 5c 66 5b 64 54 5b 65 5c 62 84 75 74 93     f^a\f[dT[e\b.ut.
    65e6:	85 83 7e 89 6c 8b 89 80 92 81 8f 8d 91 94 a0 8f     ..~.l...........
    65f6:	9c 96 a5 a7 91 ad 92 a3 97 96 95 86 a6 a2 93 b6     ................
    6606:	b4 a0 bc ae 9c a0 a2 9a a8 a5 8d 7b 93 7e 83 92     ...........{.~..
    6616:	6b 73 76 85 5a 6b 7a 80 7b 62 6d 63 5a 49 54 47     ksv.Zkz.{bmcZITG
    6626:	45 51 37 6f 61 62 6d 64 7a 70 5b 48 58 62 6c 55     EQ7oabmdzp[HXblU
    6636:	61 69 72 7a 4c 68 74 8d 89 78 80 8c ad 9e 92 8b     airzLht..x......
    6646:	ac a8 9c 9e 8f 9a 8a 98 99 98 a7 b0 9f 97 ab 93     ................
    6656:	99 a4 94 88 8a 89 70 6a 68 68 83 83 58 6f 75 70     ......pjhh..Xoup
    6666:	70 7e 76 5d 71 65 71 6b 82 6f 78 8f 6c 6c 79 7d     p~v]qeqk.ox.lly}
    6676:	6b 6e 62 72 7b 6d 76 69 7a 78 72 61 55 5a 65 85     knbr{mvizxraUZe.
    6686:	64 7c 86 8b 93 88 8b 7f 8e 84 80 8f 96 89 96 b6     d|..............
    6696:	a7 a4 a8 ad ae a6 a3 90 b7 a4 a0 99 95 98 79 8f     ..............y.
    66a6:	5c 89 83 87 85 83 9f 97 90 6d 72 64 7f 6c 64 6c     \........mrd.ldl
    66b6:	73 76 67 81 68 55 6a 6d 65 67 7a 67 7d 92 78 68     svg.hUjmegzg}.xh
    66c6:	70 6a 58 65 58 4c 59 71 60 6c 79 6a 7d 69 61 54     pjXeXLYq`lyj}iaT
    66d6:	67 70 6c 81 80 99 91 a5 92 7c 7e 7e 85 6f 75 7a     gpl......|~~.ouz
    66e6:	74 8b 92 7d 95 a3 8e 7c 7e 6e 6d 87 7d 85 97 9e     t..}...|~nm.}...
    66f6:	8c 81 86 7b 7f 82 7f 8a 8c 92 a8 b6 a9 a6 a0 ab     ...{............
    6706:	ab 96 9f ae a1 97 bb 9f 9a 9d 9b 75 68 70 62 7a     ...........uhpbz
    6716:	6f 73 7e 85 86 7b 6e 5e 5d 68 5f 66 72 6e 79 71     os~..{n^]h_frnyq
    6726:	61 66 5e 6a 74 7c 76 7a 94 81 8d 82 74 79 79 5c     af^jt|vz....tyy\
    6736:	45 5d 4f 64 6d 6d 7c 71 7f 75 6d 66 58 6c 7e 7c     E]Odmm|q.umfXl~|
    6746:	72 7a 83 9b 98 7c 81 89 86 7f 7d 88 8c 8a 97 9a     rz...|....}.....
    6756:	91 9d 9e 87 85 83 82 7f 82 7a 8b 90 94 8b 7c 77     .........z....|w
    6766:	6b 79 77 77 75 74 8b 97 ae a2 99 92 8c 8e 75 7b     kywwut........u{
    6776:	7c 80 79 87 78 7c 9c 86 73 63 65 6a 7a 8b 7b 78     |.y.x|..scejz.{x
    6786:	7f 81 79 7b 7b 7d 87 8c 87 85 8b 8f 94 8f 7d 72     ..y{{}........}r
    6796:	7f 7c 83 80 8c 8c 89 98 8a 72 7b 72 66 6a 5b 5d     .|.......r{rfj[]
    67a6:	65 6f 64 6b 68 79 79 71 64 66 6d 76 79 7b 73 75     eodkhyyqdfmvy{su
    67b6:	8a 84 8e 7b 74 79 7d 7e 81 8c 81 91 a1 9e a0 a3     ...{ty}~........
    67c6:	9e 89 88 7a 70 7c 85 8a 7e 88 87 91 94 82 6f 74     ...zp|..~.....ot
    67d6:	7a 78 83 81 8c 9f 9d 9e 92 8f 88 7d 8d 79 81 7d     zx.........}.y.}
    67e6:	7f 80 7e 7c 7d 8c 7f 8f 82 7a 71 84 82 74 6e 5d     ..~|}....zq..tn]
    67f6:	63 5d 68 5b 59 6b 6b 7c 64 76 77 6f 7a 74 7f 76     c]h[Ykk|dvwozt.v
    6806:	90 8a 92 90 93 8f 8e a0 8d 83 7e 88 81 80 77 6d     ..........~...wm
    6816:	81 7f 75 77 78 7f 65 6a 67 6d 7c 7c 75 68 7b 76     ..uwx.ejgm||uh{v
    6826:	78 73 6d 5b 65 7b 7a 97 90 98 a4 ac b6 9f 87 7a     xsm[e{z........z
    6836:	86 87 8f 85 7e 85 80 82 89 8d 86 80 75 61 70 82     ....~.......uap.
    6846:	86 87 96 92 8c 9b 89 8f 8b 84 7a 76 81 76 77 86     ..........zv.vw.
    6856:	96 9d 8c 81 85 90 a4 93 90 89 7d 80 8b 76 66 77     ..........}..vfw
    6866:	6e 6e 73 60 53 58 7c 7a 70 78 71 70 7d 8b 72 83     nns`SX|zpxqp}.r.
    6876:	87 7a 70 65 6b 68 7c 81 8b 8a 8b 82 87 8d 7c 74     .zpekh|.......|t
    6886:	6b 72 6e 6d 7b 80 7c 8a 90 84 8d 91 7e 6c 6e 69     krnm{.|.....~lni
    6896:	64 77 69 65 7e 86 86 98 95 a6 b1 8b 83 80 7f 7e     dwie~..........~
    68a6:	87 83 6c 7a 7d 77 8b 92 75 79 7f 72 86 91 7d 82     ..lz}w..uy.r..}.
    68b6:	8b 79 7f 81 7b 77 77 74 81 86 8c 91 86 a3 9c 9c     .y..{wwt........
    68c6:	a7 94 89 73 70 79 8d 96 9a 94 8c 8f 84 92 7b 73     ...spy........{s
    68d6:	69 55 65 56 5d 63 77 88 93 96 92 97 88 7e 92 99     iUeV]cw......~..
    68e6:	98 82 6c 70 6e 68 7b 8c 8d 97 95 86 67 5d 67 60     ..lpnh{.....g]g`
    68f6:	56 62 56 51 58 5c 72 7f 89 8e 80 7c 83 5d 7b 8c     VbVQX\r....|.]{.
    6906:	76 7d 69 6e 82 82 7e 89 9c 98 93 95 89 87 8c 78     v}in..~........x
    6916:	8b 84 85 77 67 69 6b 8e 80 96 b7 c6 ba b0 9f a8     ...wgik.........
    6926:	99 79 76 51 62 5f 6f 98 a7 a0 7f 89 82 76 70 71     .yvQb_o......vpq
    6936:	61 47 57 5e 75 6b 65 56 60 81 8b 7a 7d 93 78 77     aGW^ukeV`..z}.xw
    6946:	64 5b 7a 62 60 70 69 90 9f 97 a7 ae ab 97 9c 93     d[zb`pi.........
    6956:	91 95 7e 7c 80 7a 7b 87 9a a2 83 81 8e 96 99 a0     ..~|.z{.........
    6966:	ad 98 84 79 75 70 6e 7c 71 75 8a 88 84 7f 82 7f     ...yupn|qu......
    6976:	85 80 68 72 66 4d 65 7a 7d 8b 88 81 8d 8c 71 74     ..hrfMez}.....qt
    6986:	79 70 77 78 64 6f 88 89 9a 9f 87 7f 9a a5 96 8f     ypwxdo..........
    6996:	86 59 68 68 5d 6c 6f 73 6f 78 6f 75 80 78 75 79     .Yhh]losoxou.xuy
    69a6:	66 6c 77 69 70 71 86 90 92 7e 71 50 52 73 64 81     flwipq...~qPRsd.
    69b6:	75 54 44 2f 48 55 6b 6c 75 78 7d 8b 88 97 9b a9     uTD/HUklux}.....
    69c6:	a8 9d 9a 88 86 9b aa ad b4 ab 96 a0 ac 9f ae b3     ................
    69d6:	97 94 8a 70 6d 78 73 78 7d 89 8f 91 87 7e 83 7c     ...pmxsx}....~.|
    69e6:	87 90 7f 6f 84 a4 b0 ac 9a 84 86 86 97 8b 6e 78     ...o..........nx
    69f6:	60 6a 7b 7c 89 71 6f 71 75 76 6f 61 63 6b 6d 84     `j{|.qoquvoackm.
    6a06:	7f 8b 85 6f 8d 90 8d 89 76 5d 6f 72 70 87 6e 60     ...o....v]orp.n`
    6a16:	65 79 77 85 85 5a 51 5d 63 70 74 59 53 5a 63 61     eyw..ZQ]cptYSZca
    6a26:	64 5f 4c 6d 72 6f 7b 6e 6d 70 86 82 71 72 6d 60     d_Lmro{nmp..qrm`
    6a36:	70 80 84 92 a4 a1 91 b3 b5 b4 b3 a7 9a 8c 93 7c     p..............|
    6a46:	78 7d 85 97 a9 a6 8f 8f 86 94 97 85 92 71 7c 73     x}...........q|s
    6a56:	70 8e 95 9b 9f a6 95 8e 86 71 65 79 90 88 86 7b     p........qey...{
    6a66:	69 82 90 9e 96 88 82 78 88 82 6c 68 71 6b 5f 69     i......x..lhqk_i
    6a76:	60 5c 8c 94 8c a4 aa 8d 80 7f 86 86 88 84 53 57     `\............SW
    6a86:	5f 65 7a 7a 7c 65 6a 74 7b 88 71 68 68 74 55 52     _ezz|ejt{.qhhtUR
    6a96:	60 4e 64 7b 89 87 8f 77 5c 58 6b 77 62 74 5c 54     `Nd{...w\Xkwbt\T
    6aa6:	67 79 96 9a a9 a1 a0 99 93 90 89 88 82 88 7b 6d     gy............{m
    6ab6:	78 75 79 95 ac af b3 ae 9c 81 87 8c 84 89 84 7a     xuy............z
    6ac6:	6e 7d 81 8f 84 89 99 8a 99 92 9c 90 83 89 72 6d     n}............rm
    6ad6:	5f 75 6d 6a 85 89 87 92 9f 82 77 72 79 72 6f 6f     _umj......wryroo
    6ae6:	51 69 72 8a 98 96 b7 a8 9e 96 94 96 79 77 62 5d     Qir.........ywb]
    6af6:	54 54 6b 58 6b 8e 8b 8a 96 89 6e 63 6d 71 63 69     TTkXk.....ncmqci
    6b06:	63 5a 56 63 7d 71 79 85 6f 67 78 82 77 6a 63 6f     cZVc}qy.ogx.wjco
    6b16:	71 6c 72 73 65 82 94 90 9c a7 a2 92 92 9d 9f 8c     qlrse...........
    6b26:	84 86 6f 73 84 8e 8d 9b af a6 9b 9f ab 8f 83 85     ..os............
    6b36:	70 6a 6f 76 65 5d 70 84 8e 8b 94 93 87 8a 8f 86     pjove]p.........
    6b46:	84 89 89 86 86 8c 8c 84 83 79 7a 62 6b 7b 69 73     .........yzbk{is
    6b56:	76 81 8f 90 9a 93 84 9b 97 7f 88 80 7b 69 66 74     v...........{ift
    6b66:	6f 77 6a 6f 75 76 8f 83 7b 8a 81 8c 84 7b 7d 6d     owjouv..{....{}m
    6b76:	6e 60 5f 67 58 68 69 62 7a 75 7c 89 79 7d 75 6e     n`_gXhibzu|.y}un
    6b86:	75 63 6e 67 62 71 7a 8b 84 83 7e 79 84 7c 81 8b     ucngbqz...~y.|..
    6b96:	7f 8f a0 9b a6 ae 9d 9d a1 9e a4 9b 8f 87 7f 70     ...............p
    6ba6:	74 74 6e 7b 7a 6f 85 8e 98 9d 82 85 8a 89 85 7b     ttn{zo.........{
    6bb6:	71 6e 72 70 74 70 70 79 7a 85 8e 91 92 96 92 8d     qnrptppyz.......
    6bc6:	8e 84 7b 75 68 66 6d 70 78 7e 7e 87 96 93 90 8f     ..{uhfmpx~~.....
    6bd6:	8b 91 8d 81 84 81 74 76 70 6b 78 7e 77 7e 73 6e     ......tvpkx~w~sn
    6be6:	7b 72 77 79 75 7d 7c 76 7c 76 66 5f 57 57 66 63     {rwyu}|v|vf_WWfc
    6bf6:	67 70 6f 73 81 88 85 85 7c 74 76 7d 86 8a 88 86     gpos....|tv}....
    6c06:	8d 93 96 a7 9a 93 9c 9c a3 9d 97 96 8d 84 85 79     ...............y
    6c16:	76 78 71 76 7d 83 7e 79 76 71 7e 76 74 86 75 70     vxqv}.~yvq~vt.up
    6c26:	7c 72 82 89 77 7f 83 95 9d 99 9e 9e 9b 8f 83 80     |r..w...........
    6c36:	7b 72 6d 68 70 74 78 84 78 83 8f 7e 87 8d 85 77     {rmhptx.x..~...w
    6c46:	6b 70 78 76 75 72 79 81 86 8c 7d 90 95 88 90 87     kpxvury...}.....
    6c56:	7e 85 79 78 83 75 75 6f 5e 6d 75 77 7f 7d 7e 79     ~.yx.uuo^muw.}~y
    6c66:	74 68 65 67 5c 56 59 50 67 78 75 88 85 8c 9c 9d     theg\VYPgxu.....
    6c76:	96 90 92 99 98 91 8c 8b 93 81 87 7f 8c 94 8a 93     ................
    6c86:	8a 85 97 95 8f 94 80 75 67 68 72 69 67 66 72 78     .......ughrigfrx
    6c96:	72 81 82 85 99 87 91 95 8e 95 8f 86 8b 8c 88 76     r..............v
    6ca6:	70 75 71 75 6a 6c 6e 66 6e 70 76 8b 80 8a 9c 8b     puqujlnfnpv.....
    6cb6:	8e 80 77 80 7d 77 6e 7a 8b 87 8f 94 91 a6 a1 8b     ..w.}wnz........
    6cc6:	8a 8d 90 87 70 87 7b 67 6f 6b 6c 62 6a 69 6a 58     ....p.{goklbjijX
    6cd6:	60 55 55 5c 59 74 65 63 6a 83 96 95 9b 95 78 90     `UU\Ytecj.....x.
    6ce6:	94 8b 95 84 89 84 88 90 99 90 91 9b 9c 96 8c 91     ................
    6cf6:	7b 92 99 83 78 6c 7c 7c 7b 7e 74 52 4f 72 70 88     {...xl||{~tROrp.
    6d06:	88 95 90 92 ac 94 85 6d 76 6d 67 6a 77 73 7f 91     .......mvmgjws..
    6d16:	83 96 80 8c 79 6a 7c 70 4d 6a 82 72 89 8a 96 80     ....yj|pMj.r....
    6d26:	9f a0 97 89 74 77 5e 7d 7e 73 5b 76 82 98 a5 8c     ....tw^}~s[v....
    6d36:	97 90 9c 80 59 71 7c 76 76 77 7d 7a 92 90 89 8a     ....Yq|vvw}z....
    6d46:	7a 71 66 70 5b 5d 58 5a 6c 7e 90 6c 74 7c 78 66     zqfp[]XZl~.lt|xf
    6d56:	5d 81 84 6e 94 9b 97 a9 b3 c3 a7 92 9a 89 7b 92     ]..n..........{.
    6d66:	7f 8d 6d 6a 7d 79 94 77 77 68 5b 5f 57 6d 8a 75     ..mj}y.wwh[_Wm.u
    6d76:	6b 88 96 a1 a5 a2 a4 76 88 94 85 76 62 7f 65 72     k......v...vb.er
    6d86:	78 8c 8d 8b 8f 6f 72 68 4e 5d 73 6e 57 5b 81 80     x....orhN]snW[..
    6d96:	9d 9d 9d 86 82 93 7c 7e 70 89 85 8d 98 9e a1 a8     ......|~p.......
    6da6:	a8 8a 8f 74 57 6d 7b 6d 5e 7a 93 7b 9c 93 8f 84     ...tWm{m^z.{....
    6db6:	69 70 51 60 5f 66 63 6d 75 78 81 82 8f 7f 85 6f     ipQ`_fcmux.....o
    6dc6:	51 61 92 7f 7e 9c 91 91 aa b1 98 90 84 7a 77 79     Qa..~........zwy
    6dd6:	71 73 7f 7b 7e 80 86 9c 91 87 7e 6c 59 5b 8a 61     qs.{~.....~lY[.a
    6de6:	80 9e 85 8c 92 9f 84 90 7b 68 67 64 65 72 7f 7e     ........{hgder.~
    6df6:	7f 7d 8f 98 96 91 78 60 3a 47 78 51 87 8f 72 95     .}....x`:GxQ..r.
    6e06:	97 98 8c 9c 78 74 78 6d 7c 8e 94 87 88 8a 97 a8     ....xtxm|.......
    6e16:	9f 88 77 68 4a 65 80 5b a0 96 8b a5 9c 9c 91 9d     ..whJe.[........
    6e26:	66 5d 69 5a 67 7c 75 72 71 7a 81 9b 93 83 7d 58     f]iZg|urqz....}X
    6e36:	54 69 70 6c aa 8e 92 a0 8a 93 8e 9b 75 75 74 5d     Tipl........uut]
    6e46:	7e 86 86 8f 80 81 8e 9b 96 89 70 58 57 5b 6e 7e     ~.........pXW[n~
    6e56:	97 83 8e 92 84 8f 8c 85 71 68 63 68 7c 90 97 94     ........qhch|...
    6e66:	7f 83 92 9e 9e 84 57 44 46 34 61 7a 82 8a 92 8a     ......WDF4az....
    6e76:	7f 90 84 8e 85 6d 6c 6f 76 9f 9a 85 96 87 8f a8     .....mlov.......
    6e86:	97 80 6c 60 5f 57 7a 91 92 a2 a0 a1 91 8e 8f 7c     ..l`_Wz........|
    6e96:	75 5c 4e 5e 60 8f 8b 76 8f 76 83 9c 99 83 6b 61     u\N^`..v.v....ka
    6ea6:	5b 50 6f 87 90 a2 8f 99 85 7c 9b 8a 8e 7f 5b 69     [Po......|....[i
    6eb6:	6f 86 95 89 99 86 89 95 8c 79 63 60 58 4b 67 84     o........yc`XKg.
    6ec6:	8e a1 8b 9a 85 7b 98 7c 81 79 62 69 73 8b 93 92     .....{.|.ybis...
    6ed6:	9e 91 8b 90 8b 89 64 52 4e 39 4f 6b 7f 89 9d 9d     ......dRN9Ok....
    6ee6:	92 97 8b 8f 87 78 64 67 5a 74 89 8b 99 8f 97 8f     .....xdgZt......
    6ef6:	96 77 7e 7a 62 69 63 6f 7b 88 85 a2 94 95 9b 78     .w~zbico{......x
    6f06:	94 8b 6a 71 7a 70 85 83 91 a2 8c 9a 94 86 6c 76     ..jqzp........lv
    6f16:	74 58 65 68 57 6f 83 83 8b 7e 87 8a 86 8a 7f 78     tXehWo...~.....x
    6f26:	76 88 8f 7e 8c 90 95 93 90 89 6f 78 71 6a 7c 6f     v..~......oxqj|o
    6f36:	75 7a 64 79 89 85 8b 8d 7c 71 7d 7a 7b 88 7a 8d     uzdy....|q}z{.z.
    6f46:	97 70 8e 88 83 9a 86 65 65 61 55 6a 7c 81 7b 79     .p.....eeaUj|.{y
    6f56:	71 83 8d 8d 8d 86 78 6c 74 68 75 93 8a 87 96 92     q.....xlthu.....
    6f66:	9d 8d 82 9d 8d 8b 74 55 6c 5a 70 8f 79 7e 83 77     ......tUlZp.y~.w
    6f76:	83 98 93 7b 80 81 6a 8d 7f 7e 8d 85 92 8e 85 7a     ...{..j..~.....z
    6f86:	84 8f 82 7d 72 6d 68 71 81 78 84 7d 77 89 76 7e     ...}rmhq.x.}w.v~
    6f96:	97 72 80 91 65 79 97 92 9c 92 7d 7e 7b 72 72 83     .r..ey....}~{rr.
    6fa6:	74 6b 69 6a 74 82 a3 90 8c 9f 74 71 7f 71 79 77     tkijt.....tq.qyw
    6fb6:	77 77 6f 74 78 9a 95 87 95 76 76 87 73 80 7c 75     wwotx....vv.s.|u
    6fc6:	7b 7c 86 8b 80 80 7c 7b 83 76 6d 7a 71 69 88 79     {|....|{.vmzqi.y
    6fd6:	79 96 80 94 9c 8b 84 7c 82 73 7c 75 70 78 70 86     y......|.s|upxp.
    6fe6:	97 83 8f 85 7a 88 7c 93 90 80 86 6e 83 92 6d 70     ....z.|....n..mp
    6ff6:	5f 71 84 8a 87 73 83 73 78 94 90 83 79 67 6e 7b     _q...s.sx...ygn{
    7006:	87 8d 95 70 7f 9b 7d 94 9b 81 78 7c 6d 67 70 6e     ...p..}...x|mgpn
    7016:	6b 86 87 8b a4 91 a2 9d 7b 91 7f 4d 68 62 4d 79     k.......{..MhbMy
    7026:	7a 71 7e 74 7f a6 91 a0 a5 73 92 80 53 73 6b 5c     zq~t.....s..Ssk\
    7036:	72 7a 84 87 8c 93 9a 8d 77 95 82 69 6f 71 62 81     rz......w..ioqb.
    7046:	97 76 8f 8a 70 8a 8e 80 a1 80 7e 81 52 65 6c 75     .v..p.....~.Relu
    7056:	84 83 8c 7b 80 9d 96 a1 8e 7d 7f 6d 5b 64 74 69     ...{.....}.m[dti
    7066:	89 97 6e 97 8f 6a a2 84 78 a8 7f 83 6d 5c 72 67     ..n..j..x...m\rg
    7076:	8c 8a 87 86 6e 86 8d 8f 9b 7a 6f 73 65 53 6c 89     ....n....zoseSl.
    7086:	78 a2 9d 7f 99 7c 7c a5 74 80 95 5b 5c 67 66 67     x....||.t..[\gfg
    7096:	8a 80 7b 92 78 8e aa 8f a7 a3 66 75 76 55 50 75     ..{.x.....fuvUPu
    70a6:	6f 76 a4 7f 84 9b 7d 96 9c 6f 89 86 65 58 6f 60     ov....}..o..eXo`
    70b6:	61 96 82 85 8e 6f 91 a3 8d ad 8a 5c 5f 67 54 63     a....o.....\_gTc
    70c6:	a0 7d 8e a5 7d 9e 9d 8b 9a 7b 67 7e 73 55 67 6c     .}..}....{g~sUgl
    70d6:	54 82 91 87 98 7f 7f 97 8d a5 a8 73 6a 6a 61 58     T..........sjjaX
    70e6:	74 8b 70 90 8e 76 96 8f 87 93 80 77 8f 7a 6b 8a     t.p..v.....w.zk.
    70f6:	76 76 a0 88 81 8b 6b 73 84 78 90 8b 67 67 77 6b     vv....ks.x..ggwk
    7106:	5f 9a 8d 88 a7 88 8b 8e 88 7c 6f 5b 65 75 4e 60     _........|o[euN`
    7116:	7d 5b 7e a6 89 95 8c 6f 7e 7a 87 97 80 6b 76 77     }[~....o~z...kvw
    7126:	5d 7e 9f 87 97 94 85 91 88 90 84 70 73 79 73 71     ]~.........psysq
    7136:	87 7e 6c 96 95 80 93 7a 6a 78 7d 89 95 6f 60 6a     .~l....zjx}..o`j
    7146:	68 5f 8d 9f 8a a3 98 a0 9d 8b 92 75 6d 69 64 51     h_.........umidQ
    7156:	55 83 6f 6b 98 8c 83 a8 89 74 85 86 8c 87 62 56     U.ok.....t....bV
    7166:	6e 59 5d 82 80 8c a1 8b 88 90 95 92 81 65 62 7e     nY]..........eb~
    7176:	78 68 88 6e 7b bc a3 a2 a1 79 80 7d 7a a0 aa 84     xh.n{....y.}z...
    7186:	84 87 60 5f 70 76 80 8c 8a 67 5f 67 71 7c 70 5e     ..`_pv...g_gq|p^
    7196:	63 5f 53 6b 65 79 91 72 87 93 6c 7c 81 72 7d 78     c_Skey.r..l|.r}x
    71a6:	62 61 63 5a 7a 8a ab 9e 85 a0 86 91 8b 81 9d a2     bacZz...........
    71b6:	8e 8b 90 90 a4 a3 a5 a3 9b 94 93 8b 8f 8b 79 7a     ..............yz
    71c6:	7f 7f 7f 7e 84 93 82 a0 aa 8f 9c 75 6a 77 6e 78     ...~.......ujwnx
    71d6:	6b 6b 72 80 7a 76 92 89 83 8c 7c 72 71 5d 4f 48     kkr.zv....|rq]OH
    71e6:	4b 57 58 49 43 5b 66 66 87 99 81 7a 69 54 62 72     KWXIC[ff...ziTbr
    71f6:	71 6b 5a 54 80 80 8c bd 9b 8e a2 86 95 9e 90 93     qkZT............
    7206:	8b 80 8a 86 6d 71 73 81 8d 9b ae 82 76 8c 73 73     ....mqs.....v.ss
    7216:	7c 72 76 59 4a 74 68 75 99 84 86 99 9c a6 a1 8b     |rvYJthu........
    7226:	82 71 71 85 80 79 89 8c 8a 93 a2 ab 91 88 8e 8b     .qq..y..........
    7236:	98 94 94 83 73 74 87 97 90 a9 a3 95 ac a9 9e 90     ....st..........
    7246:	79 73 71 6f 7f 7c 6d 77 80 7c 83 8d 88 6d 69 71     ysqo.|mw.|...miq
    7256:	66 69 7f 79 63 5e 62 7b 85 72 80 7b 6a 80 89 7c     fi.yc^b{.r.{j..|
    7266:	71 66 5b 4e 53 58 57 59 5c 6b 70 74 85 7e 70 71     qf[NSXWY\kpt.~pq
    7276:	74 76 69 70 77 5f 61 7a 8d 80 7e 8b 99 9d a4 c0     tvipw_az..~.....
    7286:	ac 9b 86 7b 75 68 6d 73 72 7d 87 83 95 98 8a 87     ...{uhmsr}......
    7296:	75 70 78 70 6c 66 65 61 82 93 7e 8a 9b aa a7 af     upxplfea..~.....
    72a6:	af a3 87 71 7e 81 72 88 91 7e 83 8b 97 a2 a3 9e     ...q~.r..~......
    72b6:	95 96 96 91 89 7b 79 78 70 83 8d 81 82 9b 9b a0     .....{yxp.......
    72c6:	a6 a6 9d 85 79 72 71 69 76 7b 7a 72 76 88 82 86     ....yrqiv{zrv...
    72d6:	82 87 85 78 6f 68 5e 5b 66 54 5f 6f 4b 54 73 83     ...xoh^[fT_oKTs.
    72e6:	87 83 7e 79 60 57 5e 54 6b 65 62 65 5f 74 7e 81     ..~y`W^Tkebe_t~.
    72f6:	86 89 82 82 6e 67 64 71 86 74 74 74 76 74 8f ab     ....ngdq.tttvt..
    7306:	b7 c5 a9 b0 ae 7e 70 73 78 74 69 5d 6b 65 6a 72     .....~psxti]kejr
    7316:	70 86 87 7e 6f 6f 67 74 86 89 81 77 92 89 89 a1     p..~oogt...w....
    7326:	a5 ad ac a0 9b 95 88 8f 84 86 8a 79 81 7e 7e 80     ...........y.~~.
    7336:	88 91 97 94 82 71 78 8d 88 90 9b 89 89 8f 8d 85     .....qx.........
    7346:	86 8c 97 96 8d 94 8a 80 88 7b 7a 7e 6a 70 6b 5f     .........{z~jpk_
    7356:	69 6d 74 78 82 7d 78 7b 74 75 77 74 6f 6a 66 69     imtx.}x{tuwtojfi
    7366:	62 6c 78 84 86 7e 80 72 7a 6a 56 56 5e 6a 5d 5b     blx..~.rzjVV^j][
    7376:	62 64 67 70 73 80 7d 72 80 7c 7a 83 89 96 99 a0     bdgps.}r.|z.....
    7386:	9a 9b 9e aa b3 a0 99 8f 8b 7a 66 68 6c 71 7a 62     .........zfhlqzb
    7396:	5a 63 5c 5e 62 6a 6d 5f 6e 74 7f 95 8d 92 99 95     Zc\^bjm_nt......
    73a6:	97 97 8c 8b 97 a3 ab ab ac a5 8d 86 88 91 94 8d     ................
    73b6:	75 64 6a 6f 6c 72 8f 7f 7d 8a 89 89 93 99 94 94     udjolr..}.......
    73c6:	8d 87 7f 88 8b 93 b0 ad a2 98 92 75 6b 79 74 6b     ...........ukytk
    73d6:	64 68 5b 65 72 6f 6b 79 7c 6b 71 74 6c 6d 6f 6c     dh[eroky|kqtlmol
    73e6:	5d 75 7b 6c 6b 73 81 81 8f 89 6e 6e 78 6a 78 8c     ]u{lks....nnxjx.
    73f6:	7b 76 6d 66 6a 67 6b 68 6d 77 71 68 71 8a 93 95     {vmfjgkhmwqhq...
    7406:	a3 9f 96 91 91 7c 8d 97 90 99 99 8d 83 83 7f 8a     .....|..........
    7416:	80 79 74 68 60 5b 5b 59 5e 6e 78 7b 7c 76 7a 7f     .yth`[[Y^nx{|vz.
    7426:	79 86 86 88 87 8c 94 95 ae ad b0 b2 9c 90 99 8d     y...............
    7436:	7e 80 81 79 70 74 74 77 7b 6d 7d 73 7f 82 69 81     ~..ypttw{m}s..i.
    7446:	7f 88 90 93 99 8f 92 9a 88 9c 9f 88 87 83 82 78     ...............x
    7456:	7c 8c 8c 94 8f 76 7b 74 65 5f 5a 67 5a 61 5f 5a     |....v{te_ZgZa_Z
    7466:	6a 66 79 71 6f 88 7d 70 7a 75 7a 8b 8d 8e 92 96     jfyqo.}pzuz.....
    7476:	86 80 89 73 75 79 77 78 6d 6c 72 79 75 7b 75 73     ...suywxmlryu{us
    7486:	7a 7d 75 80 80 77 7e 7f 8f 8a 9b a3 93 90 8e 89     z}u..w~.........
    7496:	86 86 83 84 79 77 7e 7c 7b 74 6c 67 70 60 63 67     ....yw~|{tlgp`cg
    74a6:	5d 5c 60 75 7d 86 94 98 97 98 a0 9d a5 9e 8f 88     ]\`u}...........
    74b6:	94 92 8b a6 92 87 8d 89 84 77 82 7b 6c 5f 6b 68     .........w.{l_kh
    74c6:	74 80 84 81 7b 8b 79 7e 8a 82 87 91 95 85 98 97     t...{.y~........
    74d6:	91 95 88 88 7d 88 80 73 69 5e 65 6a 6e 78 7c 7b     ....}..si^ejnx|{
    74e6:	7a 67 6c 78 6b 79 72 72 71 83 8b 82 88 84 89 81     zglxkyrrq.......
    74f6:	8a 8a 80 74 71 6e 70 84 88 8e 8d 90 8a 83 8f 89     ...tqnp.........
    7506:	7e 7d 73 77 78 77 78 78 83 7f 76 6f 75 76 62 68     ~}swxwxx..vouvbh
    7516:	6d 6a 6a 6e 77 86 a1 a1 98 97 92 93 99 8c 80 7e     mjjnw..........~
    7526:	84 80 70 6a 79 80 80 7d 79 6a 6c 77 6a 74 81 89     ..pjy..}yjlwjt..
    7536:	89 7e 87 8e aa b4 99 8a 87 9a a3 96 80 81 80 83     .~..............
    7546:	7f 5f 78 75 73 6e 5a 5a 63 65 61 71 79 92 94 81     ._xusnZZceaqy...
    7556:	88 a0 b6 a3 8a 7f 97 9a 8f 98 7f a3 94 7e 6d 69     .............~mi
    7566:	6d 5c 53 67 65 5f 4a 4d 6e 67 72 94 99 a7 aa 8d     m\Sge_JMngr.....
    7576:	c1 99 97 a8 a8 88 62 55 67 6b 74 7b 5b 52 46 6b     ......bUgkt{[RFk
    7586:	46 63 74 5e 81 80 80 88 7b 83 92 99 83 8c 90 82     Fct^....{.......
    7596:	8f 77 89 61 67 86 82 8f 6d 88 70 74 82 63 70 7d     .w.ag...m.pt.cp}
    75a6:	9c a5 a9 ad ae a3 a6 bd d1 b4 9d b6 a8 95 80 7d     ...............}
    75b6:	78 6d 71 66 4b 51 68 63 53 52 4c 52 72 6d 89 85     xmqfKQhcSRLRrm..
    75c6:	56 6e 77 94 99 68 6e 6c 64 67 70 81 79 8a 94 77     Vnw..hnldgp.y..w
    75d6:	73 7c 95 a6 92 98 92 97 a6 ab bb ad a1 af a8 be     s|..............
    75e6:	c4 a0 9b 7e 7b 77 68 79 6d 67 66 5b 59 63 75 70     ...~{whymgf[Ycup
    75f6:	58 5c 42 3b 4c 3c 4a 40 34 4e 55 6a 64 5a 6b 64     X\B;L<J@4NUjdZkd
    7606:	6f 6a 73 7b 73 7e 7e 73 8d a3 97 89 8f 90 9c b6     ojs{s~~s........
    7616:	b9 b2 af ae ae be cb cf c1 b6 a9 a7 ad aa a0 a2     ................
    7626:	a8 92 8a 95 9d 97 8b 86 76 6f 76 7b 6c 61 4c 43     ........vov{laLC
    7636:	5a 56 6b 4f 41 2f 33 26 1d 2c 30 46 41 3f 50 64     ZVkOA/3&.,0FA?Pd
    7646:	57 63 56 5a 64 7c 82 80 97 83 85 9b a1 b0 b2 a6     WcVZd|..........
    7656:	a4 b1 b3 a7 c4 ba cb c4 c5 da cf b8 b2 91 a3 a7     ................
    7666:	a6 ad 9b b6 9b 9f ae b0 b4 ae 87 71 7b 6f 67 76     ...........q{ogv
    7676:	70 7c 63 58 71 54 57 51 36 4c 3f 50 4e 49 5f 57     p|cXqTWQ6L?PNI_W
    7686:	54 59 62 63 5a 2f 32 2d 31 35 4d 58 68 54 6a 6f     TYbcZ/2-15MXhTjo
    7696:	64 7f 62 6d 6d 74 81 8b 8d a4 a1 b4 a5 a2 b5 a0     d.bmmt..........
    76a6:	90 87 93 8c 8e 9b a8 a5 9f af b4 ba ad a0 a5 96     ................
    76b6:	a6 b4 a9 ab a2 a6 a8 92 9b 93 8c 78 66 7b 68 74     ...........xf{ht
    76c6:	8c 73 72 7f 6a 6d 70 62 5f 63 4c 5c 63 5f 6c 75     .sr.jmpb_cL\c_lu
    76d6:	77 7c 72 75 76 6c 65 4e 78 62 7b 8f 6f 8b 7c 72     w|ruvleNxb{.o.|r
    76e6:	8e 73 73 88 7a 6c 7d 92 92 b2 b8 b1 aa 8e 7c 94     .ss.zl}.......|.
    76f6:	90 7f 8f 8f 80 98 91 8a a7 85 86 97 78 85 89 71     ............x..q
    7706:	6f 7f 71 86 ad 98 87 88 6a 5b 7f 67 6b 68 51 5c     o.q.....j[.gkhQ\
    7716:	6d 61 81 89 65 7a 74 64 76 75 64 6e 71 66 89 a7     ma..eztdvudnqf..
    7726:	83 7b 6d 4f 5b 7b 6b 64 74 63 7a 7f 7f 8d 7a 70     .{mO[{kdtcz...zp
    7736:	78 6c 70 7f 61 5c 60 69 80 a4 bc 8e 89 70 63 85     xlp.a\`i.....pc.
    7746:	93 95 82 75 7e 83 91 93 91 9a 77 85 96 97 9b 8b     ...u~.....w.....
    7756:	73 7b 8c ab d1 cd 9c 89 7d 70 93 a8 93 77 79 6c     s{......}p...wyl
    7766:	70 8d 80 7a 88 50 66 72 5d 7a 66 58 87 92 a6 ca     p..z.Pfr]zfX....
    7776:	ad 90 69 6c 74 79 90 7a 71 79 63 79 83 74 8a 77     ..ilty.zqycy.t.w
    7786:	62 8b 79 64 74 4b 57 75 74 8d a8 8c 6b 69 69 73     b.ydtKWut...kiis
    7796:	86 8d 78 7b 7a 73 94 89 a0 91 7f 8d 8c 8c 7c 87     ..x{zs........|.
    77a6:	73 89 9a a6 b2 bc ab 80 7c 74 8f 8c 91 9f 81 75     s.......|t.....u
    77b6:	82 8a 84 92 7c 82 97 62 6e 66 60 60 6d 80 7c 89     ....|..bnf``m.|.
    77c6:	94 88 78 77 5a 74 63 62 7b 49 52 5f 58 6e 6b 66     ..xwZtcb{IR_Xnkf
    77d6:	7d 7b 61 60 62 71 74 83 86 83 80 7e 97 90 74 77     }{a`bqt....~..tw
    77e6:	7f 74 8d 86 7a 7e 75 72 85 7a 7b 9d 84 81 76 71     .t..z~ur.z{...vq
    77f6:	77 7d 9d 96 7c 7e 7d 8a 93 6c 77 70 60 88 6d 72     w}..|~}..lwp`.mr
    7806:	84 6a 80 81 69 7e 81 7a 8c 72 68 7a 81 8b aa 8b     .j..i~.z.rhz....
    7816:	7a 94 93 99 ad a7 97 aa 94 8b 96 8a 8a a5 9a 7e     z..............~
    7826:	81 8d 94 97 8a 82 81 71 84 91 81 84 68 74 78 83     .......q....htx.
    7836:	b3 89 9e 9a 7f 96 83 88 9e 81 70 7b 62 86 81 79     ..........p{b..y
    7846:	83 88 84 78 9e 7f 7d 81 46 5e 6d 58 82 85 5f 6a     ...x..}.F^mX.._j
    7856:	5f 66 63 6b 79 64 64 67 6b 71 69 6a 7f 7c 80 8d     _fckyddgkqij.|..
    7866:	83 86 8a 8d 77 76 97 84 9d a5 75 87 78 78 7e 77     ....wv....u.xx~w
    7876:	78 6a 6f 7e 7f 86 83 78 94 81 8b 8c 65 7d 65 58     xjo~...x....e}eX
    7886:	74 57 7a 97 84 a8 93 85 93 6a 88 79 5c 72 6d 79     tWz......j.y\rmy
    7896:	79 80 7c 71 9a 8e ad cf 92 9e 8f 6b 8d 80 70 a4     y.|q.......k..p.
    78a6:	87 8f ab 8b 97 94 87 7c 7c 7e 6b 87 74 6f 81 53     .......||~k.to.S
    78b6:	62 76 8d af 8e 6c 76 66 6e 87 53 61 6b 42 77 7a     bv...lvfn.SakBwz
    78c6:	5b 6a 64 6b 75 69 65 73 69 66 59 44 5a 5e 7b a6     [jdkuiesifYDZ^{.
    78d6:	81 66 65 60 62 7c 74 73 9d 91 a3 aa 89 92 92 99     .fe`b|ts........
    78e6:	a7 89 83 82 8e 93 86 78 81 8b aa c6 a4 a5 80 7a     .......x.......z
    78f6:	73 6a 7d 76 77 92 90 a0 b6 92 c1 bc 9d 8a 6e 7c     sj}vw.........n|
    7906:	83 8d 7d 66 7e 99 a0 cf c4 b1 91 63 7b 74 6e 77     ..}f~......c{tnw
    7916:	50 6c 7a 5c 8f 85 8b af 74 83 75 68 7d 6b 64 48     Plz\....t.uh}kdH
    7926:	59 74 7b b0 a3 88 91 69 6c 77 6a 7e 6d 52 8a 66     Yt{....ilwj~mR.f
    7936:	7c 97 72 95 72 66 64 62 70 74 69 57 71 6e 75 97     |.r.rfdbptiWqnu.
    7946:	85 7b 7f 53 56 68 4c 69 6a 3f 79 70 70 9f 7a 93     .{.SVhLij?ypp.z.
    7956:	8e 61 78 6b 68 7b 79 6c 7a 88 95 c2 b2 b6 a5 83     .axkh{ylz.......
    7966:	7f 77 73 83 8b 73 7a 92 8b 9e ab a6 b4 86 82 86     .ws..sz.........
    7976:	69 85 7b 57 78 68 74 a8 8f a4 ac 7e 81 7b 73 73     i.{Wxht....~.{ss
    7986:	67 61 57 74 73 75 a9 93 9a 95 5e 7e 70 79 8a 60     gaWtsu....^~py.`
    7996:	72 64 6b a3 80 88 97 6c 73 6b 6d 78 6b 77 70 6c     rdk....lskmxkwpl
    79a6:	7e 78 a8 a9 9e 9a 73 85 77 86 91 65 77 79 7f b7     ~x....s.w..ewy..
    79b6:	8e 9a a3 7a 7f 69 6e 63 67 74 61 7e 8a 7b b7 b7     ...z.incgta~.{..
    79c6:	96 9b 7b 77 78 7c 83 60 6a 79 8d a3 8c a7 98 8f     ..{wx|.`jy......
    79d6:	97 73 78 67 62 6b 53 64 65 73 ad a0 8d 8d 72 6b     .sxgbkSdes....rk
    79e6:	7c 76 73 6a 75 7b a5 9d 90 a2 8a 9d 82 65 79 65     |vsju{.......eye
    79f6:	58 62 64 57 6b 9a 9f 95 86 7d 65 75 77 75 60 61     XbdWk....}euwu`a
    7a06:	71 7d 9e 82 88 84 85 81 72 77 6c 66 55 5e 68 5f     q}......rwlfU^h_
    7a16:	90 a6 ad 9b 79 78 6a 7c 6b 5d 63 67 7a a9 8f 90     ....yxj|k]cgz...
    7a26:	a2 88 a0 85 92 8c 6f 77 70 7a 6c 8c b5 a6 a6 8a     ......owpzl.....
    7a36:	74 80 7e 83 79 62 73 6f 95 9a 76 a1 75 81 8c 60     t.~.ybso..v.u..`
    7a46:	76 62 50 52 55 51 60 98 9a 98 98 73 73 85 71 82     vbPRUQ`....ss.q.
    7a56:	78 6c 7d 8c ab 7b a2 94 6d 8b 66 7b 7d 67 61 6e     xl}..{..m.f{}gan
    7a66:	63 6e 9e a0 9e 9e 7d 6e 8b 77 7b 78 63 77 81 98     cn....}n.w{xcw..
    7a76:	8a aa a8 84 9b 77 89 97 76 69 79 69 74 af a7 a8     .....w..viyit...
    7a86:	9a 72 6a 88 72 74 80 5a 74 8c 91 89 a2 96 7a 7f     .rj.rt.Zt.....z.
    7a96:	73 82 81 7c 64 6b 5e 6b a3 a5 96 96 73 69 94 82     s..|dk^k....si..
    7aa6:	7e 7d 5d 6c 7f 8e a1 98 90 7c 6a 71 72 6f 70 56     ~}]l.....|jqropV
    7ab6:	5c 68 72 9a a7 8d 86 65 6e 92 7c 8c 77 51 70 79     \hr....en.|.wQpy
    7ac6:	7d ad 95 89 7a 5a 74 72 73 72 65 4c 5e 76 85 a1     }...zZtrsreL^v..
    7ad6:	82 88 6a 6b 88 88 86 6a 5f 72 79 8c bf a0 a2 84     ..jk...j_ry.....
    7ae6:	6d 84 7a 90 8a 79 5e 7f 7e 8a b1 8f 83 7d 77 81     m.z..y^.~....}w.
    7af6:	91 81 74 73 6b 7b 94 a8 9e 9e 7a 71 75 72 7b 80     ..tsk{....zqur{.
    7b06:	77 5e 81 76 7c 98 7e 73 72 68 85 90 63 6f 6d 59     w^.v|.~srh..comY
    7b16:	80 9c a1 aa 92 78 7f 6b 6f 7b 84 70 70 8c 66 85     .....x.ko{.pp.f.
    7b26:	9c 81 80 81 72 96 8c 5d 7c 6e 63 a7 a7 99 a3 78     ....r..]|nc....x
    7b36:	70 77 6f 76 83 8f 7e 77 7f 65 84 93 81 a0 80 85     pwov..~w.e......
    7b46:	a6 82 69 82 64 72 ac 93 9e 8c 75 82 6c 65 6f 7c     ..i.dr....u.leo|
    7b56:	83 85 83 89 72 86 7f 76 86 63 7d 83 66 6a 70 5e     ....r..v.c}.fjp^
    7b66:	84 aa 9b 9f 8f 8c 7e 73 79 81 8b 93 98 77 75 65     ......~sy....wue
    7b76:	73 74 89 84 66 8e 6c 64 5f 58 6f 8b 97 a2 92 7e     st..f.ld_Xo....~
    7b86:	8a 69 6d 6b 7f 83 97 93 75 73 5d 7b 7c 8a 7a 6c     .imk....us]{|.zl
    7b96:	87 71 80 76 6b 84 90 a3 9e 7f 8b 81 66 6e 68 77     .q.vk.......fnhw
    7ba6:	8b aa 92 7b 85 70 8f 94 96 93 7b 7b 79 7e 62 77     ...{.p....{{y~bw
    7bb6:	7c 7d 9c 91 81 8d 7f 65 73 7d 85 a1 ab 7e 7d 74     |}.....es}...~}t
    7bc6:	5e 87 8a 86 90 62 64 6f 5f 5e 77 7d 84 96 82 88     ^....bdo_^w}....
    7bd6:	8f 7b 5d 72 88 87 ac 9d 76 6f 61 63 7c 7a 85 8b     .{]r....voac|z..
    7be6:	6b 7d 82 6f 71 8f 96 86 9f 87 8a 97 72 63 6d 79     k}.oq.......rcmy
    7bf6:	84 a3 86 7e 72 5a 7a 8c 87 8f 8f 74 79 7d 6d 72     ...~rZz....ty}mr
    7c06:	95 8f 98 a3 73 8b 81 6c 6c 71 7a 92 ac 8d 80 6b     ....s..llqz....k
    7c16:	5b 75 8b 8f a1 94 75 77 6e 62 61 83 81 86 96 62     [u....uwnba....b
    7c26:	82 83 65 74 77 7c ae b2 93 96 72 68 67 84 7e 84     ..etw|....rhg.~.
    7c36:	84 5c 80 79 67 71 85 80 8b 96 71 8e 7e 66 5f 6b     .\.ygq....q.~f_k
    7c46:	77 8d 9c 85 84 74 63 6a 8a 85 9a 93 67 81 78 62     w....tcj....g.xb
    7c56:	75 8f 89 88 a3 7f 85 76 68 61 63 83 87 98 8d 86     u......vhac.....
    7c66:	70 5f 6e 86 8a aa b1 7c 8a 7d 76 80 7e 9c 7b 94     p_n....|.}v.~.{.
    7c76:	91 71 82 7e 66 5a 76 7d 8f 8b 89 79 65 67 6f 82     .q.~fZv}...yego.
    7c86:	a1 a5 83 77 6e 6d 6f 70 8e 80 88 a1 77 8c 80 6e     ...wnmop....w..n
    7c96:	68 5b 88 78 8c a1 81 7b 66 63 85 93 98 9a 61 65     h[.x...{fc....ae
    7ca6:	69 6c 72 7a 8d 75 b1 a0 8c 9b 7b 80 68 65 7a 6e     ilrz.u....{.hezn
    7cb6:	89 86 70 80 66 7f 9c 91 af 84 64 6d 6b 79 6f 79     ..p.f.....dmkyoy
    7cc6:	84 8a af 8f 8e 96 5c 7b 66 63 91 6a 8f 8a 6a 82     ......\{fc.j..j.
    7cd6:	6b 80 a3 a2 a1 87 68 6a 6b 6b 61 7a 82 90 b6 92     k.....hjkkaz....
    7ce6:	8d 7a 50 6f 60 59 89 7b 91 97 81 96 89 89 a1 99     .zPo`Y.{........
    7cf6:	7d 7e 5d 55 79 5d 5c 80 71 8c b7 98 97 7d 4b 6f     }~]Uy]\.q....}Ko
    7d06:	70 58 95 7a 6d a3 81 8c 98 80 95 92 78 75 65 5d     pX.zm.......xue]
    7d16:	76 6d 75 91 83 9a c2 a2 82 75 4e 5d 7e 5b 80 80     vmu......uN]~[..
    7d26:	5f 92 8d 87 a9 83 90 ae 79 7c 79 58 78 7f 74 88     _.......y|yXx.t.
    7d36:	6f 8b ae 95 87 6f 51 58 75 67 79 87 70 8e 9a 87     o....oQXugy.p...
    7d46:	94 8d 8e 9c 87 77 71 61 6a 8d 6d 77 7d 77 a5 9c     .....wqaj.mw}w..
    7d56:	88 7c 61 65 76 7b 81 81 7b 89 93 8b 86 83 7b 85     .|aev{..{.....{.
    7d66:	89 78 64 6c 6d 77 77 73 84 82 97 ab 9d 93 79 6b     .xdlmwws......yk
    7d76:	77 6b 75 7d 79 82 8b 8a 8b 79 88 95 8f 94 6c 77     wku}y....y....lw
    7d86:	76 5e 75 6d 6e 7a 7e 94 97 88 8b 68 6e 69 69 79     v^umnz~....hniiy
    7d96:	68 7d 86 93 8e 86 84 95 89 93 89 6d 6d 48 5a 68     h}.........mmHZh
    7da6:	5a 77 89 84 a6 96 94 8d 71 91 6c 87 90 83 8e 94     Zw......q.l.....
    7db6:	9c 83 84 8e 96 9e 98 54 58 55 4a 7f 71 76 8d 7c     .......TXUJ.qv.|
    7dc6:	93 b8 aa ab 7b 7f 6c 59 8d 96 9d 8e 87 8c 7a 70     ....{.lY......zp
    7dd6:	9d 97 99 83 4d 64 53 5b 84 62 7d 90 76 99 7a 71     ....MdS[.b}.v.zq
    7de6:	7b 5e 71 55 61 61 55 7b 81 84 83 6b 93 9a 7f 90     {^qUaaU{...k....
    7df6:	54 4f 55 43 70 76 67 9e 8f 7f a8 92 a9 91 91 89     TOUCpvg.........
    7e06:	6d 7d 77 91 8b 9f 97 7e 7e 8d 94 ac 98 76 95 6f     m}w....~~....v.o
    7e16:	7e 93 71 94 9a 7d a2 aa 96 aa 83 74 6a 67 6c 6b     ~.q..}.....tjglk
    7e26:	7b 7e 9e 87 70 8d 89 7e 9d 7c 77 74 4f 78 7b 71     {~..p..~.|wtOx{q
    7e36:	9b 8f 97 c0 a2 b4 86 83 7c 58 7a 54 6d 7f 7d 86     ........|XzTm.}.
    7e46:	69 6a 8c 84 96 8f 63 78 4c 54 60 47 71 89 78 a2     ij....cxLT`Gq.x.
    7e56:	8f 82 79 50 7c 56 67 65 55 76 6d 7c 78 5e 8c 79     ..yP|VgeUvm|x^.y
    7e66:	6f 87 4a 51 52 3a 63 60 87 9d 7f a6 8b 89 88 63     o.JQR:c`.......c
    7e76:	76 55 55 73 56 83 98 8b a2 86 8a 96 91 a4 7b 6f     vUUsV.........{o
    7e86:	7f 58 8e 9a aa b7 b5 cf c7 cf d3 9d a5 8b 6b 90     .X............k.
    7e96:	6e 8e aa a0 ae a1 87 b1 96 9a 7d 68 68 57 82 80     n.........}hhW..
    7ea6:	8f 87 8b 90 a2 91 8a 67 63 59 3b 5d 57 6d 9a 8d     .......gcY;]Wm..
    7eb6:	98 82 6c 87 76 7d 6b 56 5a 60 6e 83 7f 7f 98 9d     ..l.v}kVZ`n.....
    7ec6:	a6 a2 77 6d 65 55 4f 65 5a 7b 8a 89 99 71 77 88     ..wmeUOeZ{...qw.
    7ed6:	81 81 6f 4d 60 5e 61 85 76 78 9e 8d 90 87 5e 63     ..oM`^a.vx....^c
    7ee6:	4f 48 48 64 5d 8a 8a 84 a2 69 7d 85 7d 87 79 6c     OHHd]....i}.}.yl
    7ef6:	83 71 80 ac 7c a5 b4 ab c2 9d a0 83 6f 5f 72 6b     .q..|.......o_rk
    7f06:	81 9e 87 a0 a2 78 8e 99 73 94 68 56 74 50 7c 8a     .....x..s.hVtP|.
    7f16:	79 a3 a0 95 91 81 81 78 68 76 7b 7a 87 7f 7a 86     y......xhv{z..z.
    7f26:	77 6d 81 74 7c 81 67 71 62 63 74 6f 78 8d 8f 74     wm.t|.gqbctox..t
    7f36:	8c 83 6c 75 66 6b 7c 77 8c 90 91 95 79 8c 88 8c     ..lufk|w....y...
    7f46:	a6 82 97 8e 7a 8f 94 a4 b1 c1 a8 a0 b7 90 8f 9b     ....z...........
    7f56:	7f 99 94 7c a1 86 7f 84 6d 84 86 8d 86 75 69 5a     ...|....m....uiZ
    7f66:	5a 66 87 84 9b 89 6d 86 75 5e 77 61 57 6f 54 6f     Zf....m.u^waWoTo
    7f76:	78 6b 6b 61 61 69 89 76 7e 80 60 69 70 77 8a 96     xkkaai.v~.`ipw..
    7f86:	88 75 74 82 65 7a 7f 5d 8a 6c 76 88 76 7f 63 6e     .ut.ez.].lv.v.cn
    7f96:	7a 8d 94 88 82 6a 50 58 71 77 a6 8c 6d 7c 6d 65     z....jPXqw..m|me
    7fa6:	6c 7a 75 86 82 84 91 81 80 67 5d 69 89 87 7a 8e     lzu......g]i..z.
    7fb6:	7a 6c 82 9d a4 d2 ae 8c 9c 92 8c 98 a6 88 99 87     zl..............
    7fc6:	7f 9b 81 7f 74 66 78 93 99 83 82 71 53 63 89 83     ....tfx....qSc..
    7fd6:	c0 a1 70 99 72 78 85 80 7a 82 7e 94 a5 8d 85 67     ..p.rx..z.~....g
    7fe6:	5e 5e 81 8f 88 8c 6e 54 63 7e 82 a3 84 56 66 4c     ^^....nTc~...VfL
    7ff6:	5e 7b 85 79 88 86 8e a8 91 88 6d 62 6f 8d 99 8b     ^{.y......mbo...
    8006:	81 72 58 6f 96 af cd ae 93 8b 75 8c 9e 93 8d 8e     .rXo......u.....
    8016:	87 99 ac a3 91 6f 57 6c 82 85 82 7a 6a 59 6c 77     .....oWl...zjYlw
    8026:	a0 ac 81 78 64 5a 77 85 77 75 65 5e 6e 7f 8d 75     ...xdZw.wue^n..u
    8036:	51 45 5f 74 80 79 78 66 51 67 83 9d a3 94 75 62     QE_t.yxfQg....ub
    8046:	5e 70 87 87 80 76 78 7a 9a 96 7b 58 52 6d 72 7e     ^p...vxz..{XRmr~
    8056:	7c 75 5e 64 77 98 a4 a0 9d 6e 66 62 67 85 90 7a     |u^dw....nfbg..z
    8066:	73 74 7b 96 98 84 64 6b 76 89 84 69 6a 57 5e 86     st{...dkv..ijW^.
    8076:	a4 9c a8 a1 82 86 8e 92 9c a8 88 93 86 91 a9 9d     ................
    8086:	86 6c 73 79 9b 8f 78 61 66 6b 99 a5 90 9d 81 6f     .lsy..xafk.....o
    8096:	6d 89 81 93 86 80 93 7b 9b 9f 87 69 61 5b 6c 91     m......{...ia[l.
    80a6:	83 62 53 5a 64 aa a2 a7 a3 7e 79 64 7c 79 7f 62     .bSZd....~yd|y.b
    80b6:	69 77 6d 8a 9d 8a 6c 73 6d 83 8e 83 6c 5c 5e 79     iwm...lsm...l\^y
    80c6:	a2 a0 af 9f 89 7d 80 87 94 96 7c 87 81 7d a0 9f     .....}....|..}..
    80d6:	8b 82 7f 80 92 90 87 70 62 5c 79 90 87 99 7f 77     .......pb\y....w
    80e6:	6b 70 75 83 83 6f 7c 74 82 8e 8c 76 67 5e 62 72     kpu..o|t...vg^br
    80f6:	64 6d 52 3e 4d 71 8e 97 9d 90 84 6e 7f 7f 8d 88     dmR>Mq.....n....
    8106:	6f 82 70 8a 98 87 7f 72 64 6c 7b 6c 73 56 41 5c     o.p....rdl{lsVA\
    8116:	7c 9c a9 a7 91 7a 6c 7f 7e 94 85 67 75 65 80 8f     |....zl.~..gue..
    8126:	84 81 7c 6c 8c 96 84 8e 67 50 66 71 98 ab 95 92     ..|l....gPfq....
    8136:	6c 5f 7c 84 99 8a 7e 8a 84 9f af 9c 91 7c 76 8b     l_|...~......|v.
    8146:	92 85 85 6b 4b 6b 79 a0 b8 98 93 74 60 7d 89 8c     ...kKky....t`}..
    8156:	8b 74 7f 80 91 a6 8f 84 78 6a 82 80 6c 6f 4e 33     .t......xj..loN3
    8166:	5e 6f a3 c0 92 9b 82 66 7b 8f 88 85 70 71 7b 81     ^o.....f{...pq{.
    8176:	90 81 72 68 66 7c 83 81 7c 6b 4f 6b 7f 99 bf 9b     ..rhf|..|kOk....
    8186:	92 8f 69 7b 94 85 84 78 76 8c 94 9e a0 8a 80 75     ..i{...xv......u
    8196:	88 89 7c 7a 6e 59 6a 7f 95 bb a6 85 7e 61 61 88     ..|znYj.....~aa.
    81a6:	78 7a 7a 6a 80 90 8d 94 78 65 71 6e 76 6b 64 5a     xzzj....xeqnvkdZ
    81b6:	46 4c 65 82 a2 aa 92 80 7f 6a 85 8b 72 7a 76 7a     FLe......j..rzvz
    81c6:	9b 9f 9a 93 72 76 7d 85 81 72 6f 56 5e 6b 75 96     ....rv}..roV^ku.
    81d6:	9a 92 8b 7a 74 70 73 73 64 72 73 8a 9c 90 90 7a     ...ztpssdrs....z
    81e6:	68 75 76 72 6d 64 5e 5f 7b 82 9b a5 95 a1 7a 71     huvrmd^_{.....zq
    81f6:	8e 7a 98 89 7c 8d 7d a3 a7 8e 89 95 90 99 94 7f     .z..|.}.........
    8206:	7a 6b 59 6b 7d 8b b2 a1 b2 a7 68 82 78 65 84 69     zkYk}.....h.xe.i
    8216:	87 94 7f 8d 8b 79 7f 87 6c 8c 72 67 73 54 5a 6e     .....y..l.rgsTZn
    8226:	68 86 92 91 b0 9e 85 9a 7a 72 7e 68 89 85 8f 96     h.......zr~h....
    8236:	7a 62 6e 70 76 93 5c 69 6a 47 6f 66 63 86 7e 8f     zbnpv.\ijGofc.~.
    8246:	b0 92 8b 99 6e 72 76 69 7d 83 6e 7a 67 56 79 6b     ....nrvi}.nzgVyk
    8256:	87 93 70 83 62 55 86 82 92 99 74 9c 97 73 7b 72     ..p.bU....t..s{r
    8266:	52 63 6c 67 8d 81 84 96 73 79 87 7c a2 a1 85 96     Rclg....sy.|....
    8276:	68 6a 82 61 8d 90 99 c1 c2 b2 b7 9f 87 93 94 91     hj.a............
    8286:	9a 99 95 97 85 82 86 8d a4 9c 7e 8e 57 70 75 68     ..........~.Wpuh
    8296:	8b 79 8c 9b 93 80 7f 6f 6d 6b 6e 6b 73 65 5c 5b     .y.....omknkse\[
    82a6:	50 52 63 6c 88 76 69 72 50 77 72 71 76 75 77 8f     PRcl.virPwrqvuw.
    82b6:	86 8c 83 76 7b 69 76 7e 7c 8b 8d 7c 85 76 82 95     ...v{iv~|..|.v..
    82c6:	8a 7c 6b 55 56 5a 65 64 77 67 84 8e 8e 8d 7e 80     .|kUVZedwg....~.
    82d6:	75 72 72 7e 65 88 6e 73 87 71 86 a2 85 96 76 6c     urr~e.ns.q....vl
    82e6:	7f 70 81 87 90 99 b6 c0 bb b5 a2 94 8e 75 94 79     .p...........u.y
    82f6:	70 85 75 7f 9a 79 9c 9c 8f b3 7f 8d 77 64 68 77     p.u..y......wdhw
    8306:	7d 8d b6 b2 a9 a6 8a 7c 89 6d 81 66 5f 78 5b 84     }......|.m.f_x[.
    8316:	82 6e 83 7f 8a 98 6e 79 61 52 67 5b 70 7d 8e 7e     .n....nyaRg[p}.~
    8326:	7c 7e 5d 72 71 5d 76 55 5b 6b 6b 8e 71 6e 7c 82     |~]rq]vU[kk.qn|.
    8336:	a1 90 86 7f 59 71 71 7f aa a4 b1 b1 9e 9a 86 8f     ....Yqq.........
    8346:	90 6d 85 6d 72 89 8b 95 84 82 76 98 93 88 7d 5d     .m.mr.....v...}]
    8356:	55 59 61 72 91 7f 95 82 7f 8b 79 8a 74 66 61 4f     UYar......y.tfaO
    8366:	52 65 62 5f 67 52 6b 90 82 8c 7f 65 64 5d 6c 96     Reb_gRk....ed]l.
    8376:	8c 9a a0 8b 98 92 8c 8b 73 7f 7c 7a 98 8f 89 84     ........s.|z....
    8386:	78 6e 88 8a 8d 94 7b 73 6a 6a 88 8f 78 83 76 69     xn....{sjj..x.vi
    8396:	8c 7f 83 81 65 82 77 7d 9c 83 8a 8f 6a 8b 95 85     ....e.w}....j...
    83a6:	97 81 77 76 73 91 b5 a3 b4 a6 9a aa a5 a2 96 7c     ..wvs..........|
    83b6:	83 7c 81 9e 81 7d 78 59 66 76 84 92 88 87 73 74     .|...}xYfv....st
    83c6:	7c a2 9f 8d a2 84 8a 99 80 8d 6b 55 70 4f 7b 82     |.........kUpO{.
    83d6:	5f 87 60 5d 80 73 96 7c 77 70 5a 71 85 7b 70 69     _.`].s.|wpZq.{pi
    83e6:	4f 49 5e 5b 69 6c 54 7d 62 84 a4 75 96 76 53 75     OI^[ilT}b..u.vSu
    83f6:	6f 83 84 75 7e 69 7c 9d 9c 9d a1 9d 86 9e 9c 8a     o..u~i|.........
    8406:	99 6e 89 82 79 ae 85 88 92 52 6d 7c 68 79 70 70     .n..y....Rm|hypp
    8416:	62 7a 9f 99 9c 9a 89 80 77 7b 7d 6a 64 77 62 6a     bz......w{}jdwbj
    8426:	87 5b 5e 6e 4d 5d 84 73 72 8a 71 71 93 98 a2 89     .[^nM].sr.qq....
    8436:	85 8c 79 7b 87 86 73 6b 84 7f 97 bf a0 9a 9e 89     ..y{..sk........
    8446:	76 93 70 57 76 49 6a 92 84 a7 8a 7f 94 79 7e 82     v.pWvIj......y~.
    8456:	7d 60 5b 80 6c 8c a3 85 7c 80 6f 73 94 72 6c 75     }`[.l...|.os.rlu
    8466:	58 79 95 87 aa ad a1 bc ba aa b5 a0 6d 82 7e 69     Xy..........m.~i
    8476:	8f 8a 82 8d 87 86 91 82 72 6e 63 66 83 88 85 98     ........rncf....
    8486:	8f 85 98 8d 88 9b 86 74 89 75 65 88 6e 6b 7b 71     .......t.ue.nk{q
    8496:	7c 75 64 66 68 5c 66 70 5c 6f 7a 6b 8b 90 81 8a     |udfh\fp\ozk....
    84a6:	86 77 68 64 52 59 63 5f 6e 68 73 75 68 70 6d 6e     .whdRYc_nhsuhpmn
    84b6:	75 7c 72 75 8a 8f 8f a2 a0 95 a2 ab a2 9f 90 8d     u|ru............
    84c6:	82 79 84 75 74 7a 78 7d 89 8a 82 84 76 71 70 74     .y.utzx}....vqpt
    84d6:	82 7d 7e 85 86 8e 94 8e 87 8b 7f 75 7f 70 70 69     .}~........u.ppi
    84e6:	5d 61 5a 5e 62 5f 62 68 79 7b 83 8b 84 92 9c a4     ]aZ^b_bhy{......
    84f6:	a6 99 93 93 8c 90 91 7b 6f 6b 5e 67 6c 6a 76 75     .......{ok^gljvu
    8506:	74 85 82 8b a5 8b 87 9b 96 a0 af 9d 8c 75 6c 77     t............ulw
    8516:	80 7a 70 65 5e 61 6f 74 79 73 75 78 7d 85 8f 9c     .zpe^aotysux}...
    8526:	8a 90 95 90 9c 9f a6 91 88 95 94 a3 9f 9a 8c 7e     ...............~
    8536:	7b 7f 7d 65 77 66 69 7f 76 7e 7b 86 8e 90 9b a4     {.}ewfi.v~{.....
    8546:	a9 a2 a0 8f 88 7e 78 7c 67 67 66 5c 5c 4e 4d 4b     .....~x|ggf\\NMK
    8556:	4b 58 6f 78 7f 8d 98 a0 a6 aa a5 99 94 8a 7b 6e     KXox..........{n
    8566:	61 63 62 4c 5a 5a 47 57 5d 51 66 6d 6c 81 83 95     acbLZZGW]Qfml...
    8576:	92 9f 97 a3 a4 93 a6 8c 90 84 69 74 73 6e 7c 77     ..........itsn|w
    8586:	77 79 77 7c 6b 7d 7a 6d 7c 82 96 90 a3 9d 98 ad     wyw|k}zm|.......
    8596:	9b 9c 8f 90 82 6a 64 60 62 52 66 5a 53 61 5d 6e     .....jd`bRfZSa]n
    85a6:	6a 75 82 87 94 a5 9f a2 a3 96 a0 8c 7c 83 74 77     ju..........|.tw
    85b6:	69 57 6e 6b 6b 88 77 7b 93 8b 88 90 88 85 91 8a     iWnkk.w{........
    85c6:	87 90 8a 88 8a 7e 7c 85 75 76 73 5e 6d 71 76 7e     .....~|.uvs^mqv~
    85d6:	7c 7c 80 84 77 98 5e 7a 76 6a 6a 72 87 91 a6 77     ||..w.^zvjjr...w
    85e6:	c0 92 bb bc a1 94 a3 b5 71 8e 64 6f 6a 4b 74 5f     ........q.dojKt_
    85f6:	5d 5e 63 67 67 77 75 99 8e 8e 90 9b a7 92 9d a0     ]^cggwu.........
    8606:	95 aa a8 a9 92 a4 b3 8b a0 70 5c 7f 57 2e 4f 33     .........p\.W.O3

00008616 <astley4_data>:
    8616:	81 8e 8e 93 82 6c 88 8d 6f 7d 5d 57 6b 68 79 6a     .....l..o}]Wkhyj
    8626:	84 b0 96 6e 72 89 8a 6d 7c 72 82 ad 7b 8e 84 61     ...nr..m|r..{..a
    8636:	9b 80 66 82 50 80 73 62 78 60 96 7b 95 a1 8f b2     ..f.P.sbx`.{....
    8646:	a9 af b8 b2 a3 9a 91 8d 8c 86 6f 70 76 50 6a 80     ..........opvPj.
    8656:	75 74 5e 87 74 6f 8d 82 95 99 88 94 86 a1 af 95     ut^.to..........
    8666:	8b 6d 93 98 8b 6a 5a 79 8f 98 8e 70 7e 76 87 73     .m...jZy...p~v.s
    8676:	3b 44 3f 62 4d 52 67 53 57 47 4b 6a 4c 60 51 63     ;D?bMRgSWGKjL`Qc
    8686:	7b 6e 89 83 76 88 84 97 aa 98 a5 b0 c4 bb d0 cb     {n..v...........
    8696:	cd ce cf cc c4 c2 a4 9a 9c 9a 8e 80 7f 72 65 6f     .............reo
    86a6:	66 56 58 64 61 54 5f 55 4c 46 37 35 39 3b 2d 36     fVXdaT_ULF759;-6
    86b6:	56 5b 5f 70 6b 81 70 75 92 67 82 92 75 88 85 9e     V[_pk.pu.g..u...
    86c6:	92 98 87 72 7c 87 8f 70 8c 8e 87 a3 a7 aa b6 a2     ...r|..p........
    86d6:	b5 87 8c ab 87 86 94 a2 9a 8f 92 89 8e 9c 91 9e     ................
    86e6:	8e a3 a2 94 95 91 9d 8b 8b 88 84 85 82 77 68 7d     .............wh}
    86f6:	70 59 64 45 49 51 48 59 57 59 50 57 63 67 5b 50     pYdEIQHYWYPWcg[P
    8706:	3e 4c 55 52 51 45 66 80 73 5d 76 6e 7b 77 7c 7d     >LURQEf.s]vn{w|}
    8716:	81 9e 8f a1 a6 b2 c8 ac 99 b2 ab b0 b5 a3 a8 b1     ................
    8726:	b0 b9 a6 a8 af af ad a5 a5 a4 8d 8e b0 97 a2 7f     ................
    8736:	70 7f 6c 75 65 65 61 5a 62 4c 4d 45 34 55 62 5e     p.lueeaZbLME4Ub^
    8746:	5d 53 56 5a 70 60 5d 5c 65 66 57 5c 66 70 7a 98     ]SVZp`]\efW\fpz.
    8756:	89 72 79 79 63 76 8a 8c 8b 80 70 7f 8c ad 94 93     .ryycv....p.....
    8766:	9f 8d 8f 88 8c 83 8d ac ad 8b 88 88 94 94 94 a2     ................
    8776:	9d 8f 87 98 c3 ab 7e ad a7 a2 9f 85 9e 7c 7a 8b     ......~......|z.
    8786:	5c 78 72 69 7f 7d 77 72 70 61 71 7b 7f 65 4c 5c     \xri.}wrpaq{.eL\
    8796:	4d 5a 4e 54 61 56 70 4e 43 61 59 6c 70 63 61 6a     MZNTaVpNCaYlpcaj
    87a6:	54 67 79 8a 92 6d 8f 82 85 8d 7e 93 7c 91 a8 81     Tgy..m....~.|...
    87b6:	94 87 8a ae a8 9a aa 8e 94 98 a2 c6 95 ab 9f 9b     ................
    87c6:	c3 8b 8a 80 6d 9f 74 75 66 6f 94 9b 94 89 8b 83     ....m.tufo......
    87d6:	8d 8b b0 7f 6c 7a 57 72 70 5f 76 64 82 7d 61 73     ....lzWrp_vd.}as
    87e6:	64 74 8c 91 7d 7b 61 64 74 6a 74 48 58 51 4a 5c     dt..}{adtjtHXQJ\
    87f6:	54 6b 4d 64 83 72 78 7e 66 90 96 84 9f 80 7c 77     TkMd.rx~f.....|w
    8806:	72 96 79 7f 86 79 a1 8b aa a6 8c ab a0 8e 90 80     r.y..y..........
    8816:	87 b0 a1 a7 a7 a8 a7 8a b9 96 70 7c 5b 80 71 71     ..........p|[.qq
    8826:	8b 7a 88 85 78 75 77 8c 8d 8d 90 8e 85 8e 84 80     .z..xuw.........
    8836:	98 67 67 68 5b 6f 63 74 73 72 86 75 82 7d 76 8c     .ggh[octsr.u.}v.
    8846:	81 82 83 76 7a 64 51 66 5d 57 55 51 63 54 6c 7a     ...vzdQf]WUQcTlz
    8856:	71 91 7f 70 72 52 52 5e 5e 83 75 73 91 85 a0 87     q..prRR^^.us....
    8866:	92 80 5e 79 6c 6d 86 8c 89 9b 93 a1 92 84 b4 93     ..^ylm..........
    8876:	90 b2 92 9d 98 b4 b2 94 b4 86 7d 7f 68 78 7c 79     ..........}.hx|y
    8886:	8e 8d 7b 8d 81 88 a0 81 9e a9 98 a4 90 a1 7f 79     ..{............y
    8896:	89 56 6c 69 6c 91 92 9e 9e 88 8c 78 73 7f 65 5f     .Vlil......xs.e_
    88a6:	6d 6d 70 91 9b 98 74 85 82 5a 60 43 37 48 55 67     mmp...t..Z`C7HUg
    88b6:	69 73 77 6a 79 79 6c 62 60 81 69 80 92 69 6e 81     iswjyylb`.i..in.
    88c6:	7c 75 79 61 5b 74 85 80 84 74 75 7a 97 98 8d 84     |uya[t...tuz....
    88d6:	7f 9a 74 9e 93 5a 68 5d 5c 6b 6a 6c 70 9d b9 b5     ..t..Zh]\kjlp...
    88e6:	ce bf a5 9a 9e 93 7f 77 74 7b 8f b1 b7 90 99 91     .......wt{......
    88f6:	7f 8d 80 70 62 81 95 91 ac a6 9e ae aa 9f 7a 80     ...pb.........z.
    8906:	74 5c 6c 74 86 65 69 6d 68 89 7c 65 63 80 84 7e     t\lt.eimh.|ec..~
    8916:	8a 85 78 6d 82 81 6f 80 82 5f 65 76 73 54 4c 5e     ..xm..o.._evsTL^
    8926:	46 59 6f 62 76 94 9a a5 b0 b0 8c 6f 76 5e 5c 52     FYobv......ov^\R
    8936:	57 5c 55 8d 8a 80 8e 85 83 6a 86 80 62 8a 79 7b     W\U......j..b.y{
    8946:	95 97 a2 8c 98 8c 7c 81 60 6a 59 7a 93 76 95 8a     ......|.`jYz.v..
    8956:	9a 8c 83 a1 79 8b 8d 70 88 8d 8f 77 82 9a 8d ac     ....y..p...w....
    8966:	99 8e 8b 73 8f 75 7b 81 6a 71 68 89 93 83 a2 95     ...s.u{.jqh.....
    8976:	9f a9 94 8f 7c 8d 7a 6f 7d 67 87 8d 7e 9d 83 8a     ....|.zo}g..~...
    8986:	73 56 5b 45 79 5c 4d 71 73 92 9d 98 97 88 95 7b     sV[Ey\Mqs......{
    8996:	78 72 68 74 58 60 82 8b 85 79 68 5a 69 7e 50 5d     xrhtX`...yhZi~P]
    89a6:	7b 72 87 8c 98 a2 9b b1 92 95 8d 69 6e 3e 5f 6e     {r.........in>_n
    89b6:	4c 6e 59 63 7d 7c ab 87 8e 9a 79 9d 93 82 7d 6d     LnYc}|....y...}m
    89c6:	80 74 7c 7f 61 74 75 78 87 7f 80 72 7f 7e 84 af     .t|.atux...r.~..
    89d6:	8f 8c a5 97 bb a0 92 82 6f 89 78 87 6f 65 8f 6f     ........o.x.oe.o
    89e6:	92 a8 86 95 70 78 7a 75 9c 64 6c 8b 84 af 94 90     ....pxzu.dl.....
    89f6:	91 7e 95 6e 6e 61 44 5f 45 83 92 77 90 70 93 99     .~.nnaD_E..w.p..
    8a06:	81 96 6a 70 82 75 93 77 7c 89 77 98 8d 9c 87 59     ..jp.u.w|.w....Y
    8a16:	7f 5b 6c 78 64 78 59 8b 86 68 96 76 69 73 70 8f     .[lxdxY..h.visp.
    8a26:	73 70 76 78 9a 94 98 80 69 87 62 73 77 5b 70 54     spvx....i.bsw[pT
    8a36:	55 72 79 98 83 76 91 a8 c9 a3 88 8b 7c 88 7e 68     Ury..v......|.~h
    8a46:	66 6c 7c 74 8d 8c 9c a9 6f 73 98 94 8b 7c 70 7e     fl|t....os...|p~
    8a56:	8a a0 a1 a8 bd a8 90 8b 73 64 5a 68 63 75 88 83     ........sdZhcu..
    8a66:	87 78 8b 8f 78 6f 60 51 63 6c 66 6c 64 76 6f 6d     .x..xo`Qclfldvom
    8a76:	7e 77 71 5a 5e 63 79 85 6a 64 6a 84 93 9b 9b 98     ~wqZ^cy.jdj.....
    8a86:	90 a1 ac a6 a1 89 90 83 74 8f 8a 77 77 84 88 93     ........t..ww...
    8a96:	a6 a5 93 7a 77 90 8c 6f 7f 80 96 af a0 a7 95 93     ...zw..o........
    8aa6:	7c 61 7c 71 69 5c 62 67 67 75 76 79 5a 5b 6f 67     |a|qi\bgguvyZ[og
    8ab6:	65 75 63 71 93 8e 9c 81 8b 93 84 84 73 78 57 5f     eucq........sxW_
    8ac6:	6a 59 78 79 88 7f 82 a7 94 92 7f 69 88 92 99 95     jYxy.......i....
    8ad6:	67 73 71 79 84 6f 7e 62 6d 6c 54 7a 61 61 54 42     gsqy.o~bmlTzaaTB
    8ae6:	79 77 80 7c 75 af 9f a2 a7 7b 89 6f 77 81 67 87     yw.|u....{.ow.g.
    8af6:	73 86 8e 7b a4 84 88 8a 72 9d a3 aa a6 95 b5 b4     s..{....r.......
    8b06:	be b3 9b ad 93 93 82 6d 82 6b 7f 8a 89 ab 90 93     .......m.k......
    8b16:	89 7b 87 7a 84 7b 81 7d 7e 8c 62 65 6b 68 82 6f     .{.z.{.}~.bekh.o
    8b26:	69 66 61 7a 71 71 73 6a 71 61 65 79 6d 76 6c 67     ifazqqsjqaeymvlg
    8b36:	78 71 66 55 57 5b 6a 82 84 8d 92 83 81 75 72 75     xqfUW[j......uru
    8b46:	6b 7d 7a 7d 86 83 89 7e 89 85 68 62 56 49 48 54     k}z}...~..hbVIHT
    8b56:	6a 68 6b 88 82 90 a2 93 7f 7b 8e 83 76 7e 73 7d     jhk......{..v~s}
    8b66:	86 96 9e 7c a2 a4 95 ac a3 b6 9a 97 ae 8d ae a2     ...|............
    8b76:	7d 7f 7b 94 87 8f 98 83 9e 96 9e 8b 7d a3 a3 aa     }.{.........}...
    8b86:	ae a3 9e 8d 88 75 69 6a 56 53 5c 60 66 6d 70 73     .....uijVS\`fmps
    8b96:	83 8e 91 7b 6e 75 76 8b 87 83 79 7b 8a 74 76 73     ...{nuv...y{.tvs
    8ba6:	50 4c 55 57 54 57 69 5c 6f 85 93 94 88 a0 96 8f     PLUWTWi\o.......
    8bb6:	a4 87 7a 79 83 8e 6c 7f 6b 48 63 62 5c 59 61 6e     ..zy..l.kHcb\Yan
    8bc6:	60 76 7e 72 67 79 89 7a 81 8e 6f 63 71 73 71 77     `v~rgy.z..ocqsqw
    8bd6:	81 74 7a 9b a1 91 9f a3 a3 a5 ab a7 78 82 9e 86     .tz.........x...
    8be6:	8b 90 8f 89 85 a0 8f 8c 9a 83 7b 7b 8e 83 73 8d     ..........{{..s.
    8bf6:	89 8e 9b 9b 91 7d a2 9f 83 85 7b 84 7b 7d 87 64     .....}....{.{}.d
    8c06:	7c 7b 5b 67 63 69 62 68 7a 72 83 8d 89 7f 82 a4     |{[gcibhzr......
    8c16:	94 80 87 73 6b 62 60 55 55 79 64 5c 7a 77 7a 82     ...skb`UUyd\zwz.
    8c26:	85 87 77 84 96 7d 82 9e a0 8f 98 9b 85 87 8c 75     ..w..}.........u
    8c36:	65 66 5f 4a 49 4f 4d 4d 5b 68 68 6f 8c 8f 77 94     ef_JIOMM[hho..w.
    8c46:	a3 8f 96 98 94 8c 8e 8e 82 8a 8c 84 7b 75 83 7e     ............{u.~
    8c56:	7a 92 8e 8b 9c ae a1 9a b7 a6 92 9b 7b 7d 6f 6c     z...........{}ol
    8c66:	74 70 7e 81 88 8e 95 a3 8b 92 91 78 7d 8b 7d 6d     tp~........x}.}m
    8c76:	7f 87 7b 79 76 6f 79 6d 68 62 60 64 67 67 69 70     ..{yvoymhb`dggip
    8c86:	70 71 7f 7e 7c 90 95 81 8c 99 90 8a 84 85 8b 88     pq.~|...........
    8c96:	80 7e 78 76 7a 67 63 6d 6e 79 70 72 7e 7d 8d 87     .~xvzgcmnypr~}..
    8ca6:	7e 8a 8b 7a 66 5a 5f 63 5d 64 68 6f 7a 83 7c 7e     ~..zfZ_c]dhoz.|~
    8cb6:	85 85 75 74 76 79 7f 81 8b 93 98 95 a3 9e 96 9e     ..utvy..........
    8cc6:	98 8f 8e 89 86 90 90 82 83 89 8b 82 75 72 80 88     ............ur..
    8cd6:	82 86 87 84 89 8b 8a 85 83 8d 87 7f 75 7b 84 7e     ............u{.~
    8ce6:	81 82 85 8e 8e 90 8d 91 97 8d 7c 72 71 68 60 64     ..........|rqh`d
    8cf6:	56 5d 6c 70 6c 6d 79 75 75 6e 70 75 72 7a 81 82     V]lplmyuunpurz..
    8d06:	91 9e 9a 9d a0 9a 8f 83 75 76 76 75 70 6b 71 7a     ........uvvupkqz
    8d16:	71 6e 6e 65 6a 64 63 6c 71 72 72 7b 7e 7f 86 81     qnnejdclqrr{~...
    8d26:	76 78 84 80 77 73 7e 87 85 95 95 8e 97 a0 9c 96     vx..ws~.........
    8d36:	9c 97 88 8b 76 70 69 68 6b 66 7b 8c 8a 8a 91 99     ....vpihkf{.....
    8d46:	94 8b 98 82 7d 88 88 8e 98 8f 8f 91 93 89 80 78     ....}..........x
    8d56:	6f 71 71 72 7a 84 7f 92 84 84 7d 7d 65 67 5e 62     oqqrz.....}}eg^b
    8d66:	73 6e 72 78 8a 83 99 84 88 89 97 8a 81 90 85 8f     snrx............
    8d76:	8e 87 91 8c 7f 7e 77 7c 75 6f 64 5b 5f 55 4d 64     .....~w|uod[_UMd
    8d86:	56 5c 76 6b 82 84 83 90 8f 86 7d 78 7e 7a 83 91     V\vk......}x~z..
    8d96:	87 92 8c 8a 88 80 77 7f 80 6a 74 6e 89 98 86 86     ......w..jtn....
    8da6:	8e 8a 7f 76 84 6e 76 96 74 7e 96 8a a2 9a 7e 93     ...v.nv.t~....~.
    8db6:	8a 75 74 80 67 6d 84 53 5a 90 67 66 8f 7d 8a a0     .ut.gm.SZ.gf.}..
    8dc6:	94 92 88 ad 9e 6e 78 71 8b 7a 57 89 79 76 9e 7a     .....nxq.zW.yv.z
    8dd6:	79 87 76 63 88 91 79 96 93 7f a7 9f 85 85 6d 88     y.vc..y.......m.
    8de6:	7c 62 66 7e 92 6a 86 94 7c 94 7e 65 7d 77 4e 6d     |bf~.j..|.~e}wNm
    8df6:	84 6a 81 8e 7a 8b 96 7d 7e 79 83 8c 72 6c 7d 8d     .j..z..}~y..rl}.
    8e06:	71 68 7a 71 80 86 6f 7d 91 77 6d 80 82 7c 7a 74     qhzq..o}.wm..|zt
    8e16:	76 8e 91 81 7f 80 96 92 64 71 8f 88 82 79 89 98     v.......dq...y..
    8e26:	a6 96 7d 87 7f 63 61 6b 6b 77 71 74 8a a1 9e 8b     ..}..cakkwqt....
    8e36:	75 6c 99 73 58 73 70 85 80 83 92 94 a5 7d 71 89     ul.sXsp......}q.
    8e46:	7b 68 6c 66 82 83 7e 91 7d 96 76 6c 55 6f 8a 55     {hlf..~.}.vlUo.U
    8e56:	76 70 97 b1 92 94 88 a7 a5 7f 73 80 72 81 84 85     vp........s.r...
    8e66:	92 88 90 85 95 80 74 67 73 80 5e 75 64 6f 81 64     ......tgs.^udo.d
    8e76:	82 7c 77 81 6c 70 69 6b 66 64 70 7b 80 82 77 8a     .|w.lpikfdp{..w.
    8e86:	74 50 63 6f 82 6b 8e ad a1 b7 8b 92 a5 96 96 7d     tPco.k.........}
    8e96:	78 90 8c 88 90 87 8c 88 8c 88 97 82 64 78 8e 93     x...........dx..
    8ea6:	74 91 a0 9d af 83 81 92 76 77 6e 7b 95 89 6a 7c     t.......vwn{..j|
    8eb6:	72 6b 64 58 67 55 53 41 51 7e 6b 71 99 8c 98 8b     rkdXgUSAQ~kq....
    8ec6:	6e 80 8d 7e 5b 55 51 79 7e 67 74 62 57 58 56 60     n..~[UQy~gtbWXV`
    8ed6:	3f 46 5e 74 8f 67 8f b4 9b b2 94 8a 8d a3 a6 91     ?F^t.g..........
    8ee6:	a2 a1 cb b3 ab aa 8e 95 8f 92 90 69 74 6d 7f 96     ...........itm..
    8ef6:	68 9a 98 96 a9 76 73 7d 95 84 67 6e 7c b1 93 8c     h....vs}..gn|...
    8f06:	94 7e 89 80 93 75 5f 6e 62 7e 6e 54 8c 7b 89 83     .~...u_nb~nT.{..
    8f16:	58 6a 74 8e 6e 69 73 91 b9 93 9c 9f 99 8e 7c 8f     Xjt.nis.......|.
    8f26:	6f 57 6e 7a 94 72 6f 90 6b 86 74 5c 57 58 6e 60     oWnz.ro.k.t\WXn`
    8f36:	6c 7a 9c aa 84 82 70 6c 5c 42 5f 41 3a 61 64 88     lz....pl\B_A:ad.
    8f46:	7a 82 8f 7b 78 4f 47 4c 67 8d 75 71 80 9d 9d 6e     z..{xOGLg.uq...n
    8f56:	7e 7d 7a 70 66 84 75 5c 7f 91 92 8a 76 80 83 8b     ~}zpf.u\....v...
    8f66:	8b 8e 9f a2 b2 b5 a1 b1 d0 c5 b3 a7 a0 93 75 72     ..............ur
    8f76:	7b 73 68 8a 97 80 9c 9d 86 99 8a 73 66 6b 7b 8f     {sh........sfk{.
    8f86:	a0 86 a0 bf 9e 9a 98 82 91 68 47 6b 5d 4a 66 97     .........hGk]Jf.
    8f96:	85 90 b6 8a 8b 74 5f 63 59 77 7d 89 80 87 a7 84     .....t_cYw}.....
    8fa6:	8a 93 86 88 6a 67 78 5e 5c 84 9e 9b 89 7e 64 60     ....jgx^\....~d`
    8fb6:	4a 4b 60 4c 5b 6d 6e 5a 6c 7a 66 75 6d 75 7d 5c     JK`L[mnZlzfumu}\
    8fc6:	58 7c 71 63 83 94 79 7a 70 5e 70 60 50 57 52 58     X|qc..yzp^p`PWRX
    8fd6:	6a 6f 6d 8e 8a 84 92 8a 92 a1 8d 79 84 72 70 9d     jom........y.rp.
    8fe6:	b3 af b9 a1 a2 97 74 78 86 94 8e a4 96 9a af 8e     ......tx........
    8ff6:	8b 90 83 97 a5 7b 77 79 6e 87 aa 9a a5 a7 73 7b     .....{wyn.....s{
    9006:	79 73 73 71 8b 85 77 72 83 ad 87 88 96 7f a8 88     yssq..wr........
    9016:	6e 6e 5c 57 78 aa 90 88 9b 78 82 76 52 5a 56 61     nn\Wx....x.vRZVa
    9026:	70 76 73 99 c1 a1 90 89 76 98 87 73 81 61 51 6c     pvs.....v..s.aQl
    9036:	90 79 87 8c 5f 57 4c 2c 42 58 66 81 6f 5b 79 9b     .y.._WL,BXf.o[y.
    9046:	83 84 88 7a 97 8c 5b 71 5b 3a 6b 88 97 93 6f 68     ...z..[q[:k...oh
    9056:	5a 62 59 4f 5e 60 7b 85 70 a4 c7 ae a2 9a 8b 97     ZbYO^`{.p.......
    9066:	9d 88 a0 86 6d 8b 95 a1 b2 94 85 88 96 84 72 8e     ....m.........r.
    9076:	77 8a 90 66 7a 9d a0 9b 98 96 9b 8e 75 92 7e 44     w..fz.......u.~D
    9086:	56 7d 80 9a ab 9d 90 82 7b 6c 75 63 7b 8a 72 89     V}......{luc{.r.
    9096:	8b 8c 91 85 85 93 a4 74 7d 7d 4f 51 68 8c 9a 8d     .......t}}OQh...
    90a6:	78 74 7f 7e 88 92 69 70 73 64 6d 8b 9d 89 97 94     xt.~..ipsdm.....
    90b6:	79 7a 67 74 7f 5d 49 55 65 79 8f 7b 71 7a 66 55     yzgt.]IUey.{qzfU
    90c6:	6f 60 58 74 83 7a 6f 7f 79 81 82 67 8c 86 6e 91     o`Xt.zo.y..g..n.
    90d6:	77 52 53 60 71 88 93 87 86 88 81 85 84 6f 7e 85     wRS`q........o~.
    90e6:	7c 8b 94 9b a0 b6 a2 b1 b2 8c 97 98 74 5f 7f 8c     |...........t_..
    90f6:	9c 9a 90 8e 8f 72 7b 95 65 54 6c 6e 77 7e 85 92     .....r{.eTlnw~..
    9106:	98 a2 85 a6 9a 84 a0 77 6b 66 59 7a 9c 94 8a 93     .......wkfYz....
    9116:	8a 6e 82 7d 6c 6d 69 79 76 80 7f 80 97 83 94 ab     .n.}lmiyv.......
    9126:	7c 9d 94 73 6c 54 6b 8a 95 8e 7d 7e 6c 6c 83 64     |..slTk...}~ll.d
    9136:	56 69 75 82 7a 6f 6d 89 87 7f 97 7d 7f 81 6e 5e     Viu.zom....}..n^
    9146:	56 54 73 8d 90 6d 67 6f 78 81 73 5f 4a 5a 64 7c     VTs..mgox.s_JZd|
    9156:	7a 7f 93 97 88 85 7d 80 84 9e 84 65 5c 5e 9f b7     z.....}....e\^..
    9166:	bb 96 8d 83 85 8a 7b 81 95 9c a8 95 7a 7f 8f ac     ......{.....z...
    9176:	99 8a 8e 80 7b 8f 71 5e 58 72 9e 9c 85 88 81 87     ....{.q^Xr......
    9186:	9c 81 66 59 63 84 89 7c 84 86 92 98 83 8c 8a 88     ..fYc..|........
    9196:	94 94 6a 4b 4e 75 b3 a3 93 7d 6d 83 7e 6b 79 6b     ..jKNu...}m.~kyk
    91a6:	7d 90 76 60 61 83 a8 a2 8c 96 88 76 85 7c 64 51     }.v`a......v.|dQ
    91b6:	59 96 a9 95 8c 7d 77 86 6d 64 4b 49 86 80 63 53     Y....}w.mdKI..cS
    91c6:	6a 86 99 8b 77 85 86 76 7c 7b 5a 4c 65 93 96 8b     j...w..v|{ZLe...
    91d6:	7a 64 8b 8e 69 75 63 67 8a 75 64 75 94 9a a3 8e     zd..iucg.udu....
    91e6:	7f 93 97 98 8c 81 66 5c 96 ae 99 b3 7f 71 8f 7a     ......f\.....q.z
    91f6:	73 81 77 83 97 72 6a 77 92 9f ab 90 8b 8c 82 7a     s.w..rjw.......z
    9206:	73 6e 4a 50 84 90 9e 9d 83 92 88 62 69 76 5f 86     snJP.......biv_.
    9216:	8f 6f 76 8e 92 a5 a8 87 83 86 7e 7a 71 63 5e 79     .ov.......~zqc^y
    9226:	91 98 99 82 71 78 84 73 77 7d 6f 7d 7d 6d 7c 88     ....qx.sw}o}}m|.
    9236:	9d a7 91 86 83 7b 76 7f 64 51 6b 67 7a 95 89 85     .....{v.dQkgz...
    9246:	64 66 7b 62 62 64 67 85 7f 75 7d 90 8d 90 93 83     df{bbdg..u}.....
    9256:	8b 81 81 7d 5c 6a 65 74 a0 85 86 91 68 74 83 74     ...}\jet....ht.t
    9266:	7d 73 75 93 7a 74 93 97 9f a9 96 89 82 6b 73 66     }su.zt.......ksf
    9276:	69 84 7f 94 96 90 93 7f 72 89 81 71 7c 70 74 86     i.......r..q|pt.
    9286:	71 81 96 8c 8a 85 68 88 85 73 77 78 7e 72 72 8c     q.....h..swx~rr.
    9296:	99 97 96 72 72 6e 6d 7a 7e 73 94 7f 6a 85 76 86     ...rrnmz~s..j.v.
    92a6:	97 87 7f 9b 80 5f 71 91 98 89 76 8d 92 97 7c 7f     ....._q...v...|.
    92b6:	7c 6f 78 83 74 79 80 6b 74 66 66 91 93 81 8b 7b     |ox.ty.ktff....{
    92c6:	5a 4a 78 87 93 74 61 80 95 83 83 77 78 81 7a 8a     ZJx..ta....wx.z.
    92d6:	77 87 89 93 87 80 79 81 81 79 8a 6c 4c 78 81 a1     w.....y..y.lLx..
    92e6:	9a 58 74 9c 8b 7e 72 81 95 84 8f 8b 73 84 96 90     .Xt..~r.....s...
    92f6:	94 7e 79 7d 83 85 7f 59 6e 81 90 8e 62 64 7b 82     .~y}...Yn...bd{.
    9306:	94 89 65 76 88 85 87 77 79 9b 88 90 8c 78 70 6e     ..ev...wy....xpn
    9316:	71 86 77 6c 8d 9a 92 75 5b 77 9c 90 95 6a 69 7b     q.wl...u[w...ji{
    9326:	61 7b 86 6b 97 83 7b 99 81 80 9a 84 72 7f 6c 83     a{.k..{.....r.l.
    9336:	90 92 88 61 6e 9b 93 a6 84 6e 7a 57 6d 92 5f 75     ...an....nzWm._u
    9346:	8d 52 78 80 6b 98 82 6c 68 67 85 9c 9b 90 72 6b     .Rx.k..lhg....rk
    9356:	7f 78 96 86 7f 88 7a 6f 88 7e 76 a1 88 83 9c 6f     .x....zo.~v....o
    9366:	77 91 64 5b 79 95 97 8b 87 74 68 6c 82 a5 82 7d     w.d[y....thl...}
    9376:	7c 61 72 6e 72 7a 84 a9 78 8d 93 7d a9 7a 62 78     |arnrz..x..}.zbx
    9386:	79 8d 89 7c 79 68 70 79 a9 8f 75 89 66 75 78 6c     y..|yhpy..u.fuxl
    9396:	8b 6e 7c 7f 7d 8f 65 a0 95 55 67 88 97 ac 86 86     .n|.}.e..Ug.....
    93a6:	78 5a 59 87 9b 85 9f 74 66 7d 61 80 96 76 a0 8d     xZY....tf}a..v..
    93b6:	84 87 78 89 62 64 89 88 ac 83 72 7e 5e 6c 82 a2     ..x.bd....r~^l..
    93c6:	a0 88 69 46 75 64 76 a4 70 93 8c 72 89 85 95 7d     ..iFudv.p..r...}
    93d6:	6b 98 86 87 77 68 7a 5f 5c 83 87 93 94 81 71 7b     k...whz_\.....q{
    93e6:	88 85 a1 74 73 9b 7c 93 8a 78 7e 64 7f 91 98 8e     ...ts.|..x~d....
    93f6:	6d 81 6d 3d 68 76 8c a7 7c 74 75 73 7e 91 8b 85     m.m=hv..|tus~...
    9406:	a6 7b 7c 7d 54 6d 62 87 9f 97 8f 6e 71 80 5d 84     .{|}Tmb....nq.].
    9416:	92 9a b4 6c 5f 67 67 8b 99 82 7f 98 68 71 84 66     ...l_gg.....hq.f
    9426:	7a 6a 7f 9f 82 7e 75 74 8a 5b 7c 9f 95 b3 7f 7a     zj...~ut.[|....z
    9436:	88 69 8d 99 79 67 86 75 72 97 67 70 7a 79 92 96     .i..yg.ur.gpzy..
    9446:	9c 90 77 86 4e 52 7a 7c ab 82 6b 7f 64 81 99 91     ..w.NRz|..k.d...
    9456:	80 a2 85 64 89 55 68 7e 82 ae a7 90 8f 6e 7f 66     ...d.Uh~.....n.f
    9466:	60 8c 90 a7 70 41 6a 5a 7b 9a 9a 98 95 8d 69 9a     `...pAjZ{.....i.
    9476:	7a 68 7b 78 96 7a 7b 84 7b 8c 62 57 7e 77 93 86     zh{x.z{.{.bW~w..
    9486:	6a 8d 79 88 94 73 77 86 8d 6f 91 79 69 7d 69 98     j.y..sw..o.yi}i.
    9496:	a7 8f 93 72 7a 5e 50 75 82 ac 8d 62 7f 65 68 8e     ...rz^Pu...b.eh.
    94a6:	8e 9d a7 9e 5f 66 69 55 77 6d 9c b9 97 8e 75 82     ...._fiUwm....u.
    94b6:	73 59 80 85 95 8c 5a 81 8c 6c 90 9b 95 8d 8d 64     sY....Z..l.....d
    94c6:	7d 8b 64 77 6c 69 94 89 8e 71 72 84 5f 83 7d 7c     }.dwli...qr._.}|
    94d6:	99 6a 6c 80 6e 7c 92 a5 98 9c 76 62 8b 69 65 77     .jl.n|....vb.iew
    94e6:	85 ad 9f 93 73 63 72 4f 66 8b 7c 99 90 7c 8a 7b     ....scrOf.|..|.{
    94f6:	7b 92 a7 88 93 76 52 7f 63 5c 68 6b 99 96 91 91     {....vR.c\hk....
    9506:	66 89 6e 68 93 71 81 86 76 80 7b 8d 98 a6 8c 80     f.nh.q..v.{.....
    9516:	90 55 7a 76 66 79 6f 93 9d 8f 94 68 7d 81 50 8c     .Uzvfyo....h}.P.
    9526:	7f 76 94 7c 75 75 7a 7d 9d 8c 7e 9c 66 7b 7f 69     .v.|uuz}..~.f{.i
    9536:	7f 61 8e a0 89 ac 7e 72 8b 41 69 8b 72 94 92 7d     .a....~r.Ai.r..}
    9546:	7f 7b 7d 93 9f 6c 84 81 62 7b 61 8d 77 80 a2 77     .{}..l..b{a.w..w
    9556:	a1 94 56 80 55 4b 80 61 76 9b 92 82 88 8c 90 a4     ..V.UK.av.......
    9566:	82 83 a2 64 7f 67 70 7c 5b 8e 86 9b a5 6a 73 74     ...d.gp|[....jst
    9576:	56 76 7d 7c 98 a0 77 6d 7e 78 97 98 7b a0 7c 6e     Vv}|..wm~x..{.|n
    9586:	7a 61 86 64 78 97 7c 8d 7b 68 70 5f 66 74 85 95     za.dx.|.{hp_ft..
    9596:	b6 af 7a 84 83 7d 91 71 8c 99 6e 81 5d 79 74 60     ..z..}.q..n.]yt`
    95a6:	94 87 8e 91 7c 71 65 59 66 84 8a 92 b9 84 6f 8f     ....|qeYf.....o.
    95b6:	7f 93 8e 75 8f 78 59 63 6a 85 77 82 92 89 8d 88     ...u.xYcj.w.....
    95c6:	82 7a 72 69 77 87 90 95 9b 6e 75 78 6d 97 86 84     .zriw....nuxm...
    95d6:	96 6f 63 71 64 78 7d 6d 7e 83 79 93 7d 7a 7b 77     .ocqdx}m~.y.}z{w
    95e6:	78 8d 99 93 a7 73 6d 6d 71 86 82 7b 96 83 81 86     x....smmq..{....
    95f6:	74 a1 83 6b 83 7c 79 7a 70 7d 7c 61 6c 89 86 91     t..k.|yzp}|al...
    9606:	9d 77 70 7a 76 95 87 6b 93 7a 71 6e 65 9d 87 7d     .wpzv..k.zqne..}
    9616:	89 84 79 88 7c 83 83 60 74 7d 85 91 a6 7d 78 82     ..y.|..`t}...}x.
    9626:	7f 95 8e 83 ae 8b 67 67 52 7b 76 63 7c 76 83 95     ......ggR{vc|v..
    9636:	79 8e 7c 77 77 82 80 88 9d 83 70 75 76 87 99 77     y.|ww.....puv..w
    9646:	ad 8a 6f 73 5e 86 8a 64 72 80 7a 86 76 92 90 86     ..os^..dr.z.v...
    9656:	83 6e 74 7c 91 8a 65 78 7f 80 8f 6c 85 8c 71 7c     .nt|..ex...l..q|
    9666:	68 70 8f 7f 80 96 8d 93 78 6c 79 7f 7a 6f 85 80     hp......xly.zo..
    9676:	9c 9d 79 87 92 7b 98 5e 5e 9a 67 70 6f 66 77 74     ..y..{.^^.gpofwt
    9686:	66 88 90 a7 9f 7f 78 79 7b 51 78 75 85 98 6e 78     f.....xy{Qxu..nx
    9696:	83 7b 91 8e 74 9c 75 6f 72 56 6b 97 9a 8d b7 a1     .{..t.uorVk.....
    96a6:	9a 5f 6f 7b 7f 6b 5d 8b 79 89 7d 44 6e 99 77 a4     ._o{.k].y.}Dn.w.
    96b6:	7c 8e ab 91 86 73 89 7a 73 75 8d a0 92 76 68 79     |....s.zsu...vhy
    96c6:	73 5a 5f 7f a7 95 9f 8e 53 82 7e 96 78 52 a1 7a     sZ_.....S.~.xR.z
    96d6:	49 6e 75 7c 9b 75 57 75 76 80 89 74 86 84 56 57     Inu|.uWuv..t..VW
    96e6:	8d 8e b4 a2 7c 9e 89 7a 94 81 83 a6 90 87 99 9d     ....|..z........
    96f6:	b1 b0 84 97 a5 9d 8a 81 8a 72 56 38 56 69 5f 64     .........rV8Vi_d
    9706:	53 4e 55 53 64 6d 49 56 54 40 52 61 73 7f 67 64     SNUSdmIVT@Ras.gd
    9716:	78 7b 87 8c 95 98 86 76 7e a3 ad c0 ce ad ab af     x{.....v~.......
    9726:	ad b2 b8 bf cf bc a7 a0 92 95 9c 90 96 9e 8f 8e     ................
    9736:	81 84 74 61 53 5a 7e 6d 62 57 40 49 4c 3f 35 3d     ..taSZ~mbW@IL?5=
    9746:	4c 46 4d 51 4e 5c 66 60 48 4c 4f 6a 74 6f 81 56     LFMQN\f`HLOjto.V
    9756:	53 6e 86 a6 9a a4 9e 8f 8b 9b b0 ad c1 c8 ae b9     Sn..............
    9766:	a8 a6 ca c8 c5 b6 a0 ae b9 9f a8 94 86 9f 8d 9f     ................
    9776:	ab 91 9d 80 65 6e 84 78 69 79 5b 52 65 52 5a 65     ....en.xiy[ReRZe
    9786:	43 45 3b 2a 52 61 4e 61 3e 32 41 4b 6e 71 65 65     CE;*RaNa>2AKnqee
    9796:	57 55 69 82 72 7f 86 72 8a 81 6f 7c 8b 97 97 79     WUi.r..r..o|...y
    97a6:	8b b2 9c b2 a6 85 a5 a2 b5 be a7 9e ab 9b 9e c0     ................
    97b6:	bd b0 bb ad ab b7 8e 93 a1 93 8f 8b 71 8a a6 88     ............q...
    97c6:	92 74 6c 7c 6c 7d 7b 62 60 5d 46 5a 6f 52 56 62     .tl|l}{b`]FZoRVb
    97d6:	4a 53 55 3f 5c 4a 4d 59 47 50 62 6b 6a 6b 3e 5c     JSU?\JMYGPbkjk>\
    97e6:	66 60 8a 75 6f 87 82 6f 8e 8d 7d 98 8a 81 a9 97     f`.uo..o..}.....
    97f6:	93 98 95 aa 9d 93 a0 c4 ae a0 98 75 95 8d 9a b3     ...........u....
    9806:	96 9b ad 8d 92 ba 9f a5 a7 7f 8b 8b 76 89 80 84     ............v...
    9816:	8b 6e 75 84 81 71 7e 5d 57 67 59 6a 6a 65 78 78     .nu..q~]WgYjjexx
    9826:	53 63 72 5d 6d 63 53 61 58 55 58 50 65 57 68 7c     Scr]mcSaXUXPeWh|
    9836:	7a 8a 7e 80 65 6e 6e 6d 89 8c 8d 8f 75 68 98 95     z.~.ennm....uh..
    9846:	91 a4 94 8c 99 90 9f 96 97 a3 89 98 99 ab a5 96     ................
    9856:	9d 86 83 85 90 9a a9 94 83 83 8c a7 97 8b 8f 84     ................
    9866:	90 7f 8b 8c 76 93 6a 5c 7a 70 80 6b 50 61 56 48     ....v.j\zp.kPaVH
    9876:	61 7b 86 8e 73 5e 6b 6d 75 5b 5b 51 5a 5c 5a 75     a{..s^kmu[[QZ\Zu
    9886:	5c 74 72 51 7e 8c 80 9b 71 61 7b 55 5e 82 80 8e     \trQ~...qa{U^...
    9896:	a9 7a 75 8a 93 9b 8b 7b 77 9d 7c 8b 91 7c b3 89     .zu....{w.|..|..
    98a6:	82 9e 98 9d 97 88 8b 9c 6d 65 84 82 a5 ae 82 a0     ........me......
    98b6:	ae a0 a3 8d 86 9d a3 8b 9b 82 8e 94 63 84 7c 84     ............c.|.
    98c6:	8e 78 6a 72 8b 5d 71 92 82 a3 84 49 72 75 5f 81     .xjr.]q....Iru_.
    98d6:	63 5e 7f 61 69 6c 56 75 5b 56 74 69 7e 6c 62 61     c^.ailVu[Vti~lba
    98e6:	65 75 4d 69 7c 87 9f 79 69 78 79 7d 81 4f 6e 81     euMi|..yixy}.On.
    98f6:	74 83 70 8a 97 69 78 91 8d 9e 75 73 75 71 73 5b     t.p..ix...usuqs[
    9906:	6b 8b a2 ac 9c a0 ba ad ae a2 7f 90 79 7b 89 88     k...........y{..
    9916:	a3 80 79 8d 9e a0 a4 7c 80 9d 98 91 64 75 9c a5     ..y....|....du..
    9926:	8e 85 8b a1 9f 97 92 84 78 66 7c 64 67 75 57 75     ........xf|dguWu
    9936:	9c 8f 82 81 64 84 91 6a 74 57 60 8d 84 6b 81 84     ....d..jtW`..k..
    9946:	80 81 66 58 68 6d 5f 6f 52 6b 69 52 67 75 7c 6b     ..fXhm_oRkiRgu|k
    9956:	5f 5a 6f 69 56 78 5f 6d 88 7c 9c a5 8b 7f 71 60     _ZoiVx_m.|....q`
    9966:	79 73 6b 72 83 6c 97 89 66 a0 a2 a1 96 7b 72 a1     yskr.l..f....{r.
    9976:	8b 88 a3 71 72 a7 a8 ab b3 96 8d 91 72 7a 8e 7b     ...qr.......rz.{
    9986:	86 7e 7d 96 86 86 bd bf ac 8e 7a 7c 89 81 7c 8d     .~}.......z|..|.
    9996:	77 71 87 83 87 9e a5 9f 89 75 81 84 5c 6c 62 68     wq.......u..\lbh
    99a6:	7d 59 67 8e 97 98 7d 62 73 76 79 72 77 6e 64 70     }Yg...}bsvyrwndp
    99b6:	5d 78 84 79 80 72 7b 81 78 62 76 52 5c 6e 4e 7d     ]x.y.r{.xbvR\nN}
    99c6:	92 a7 92 81 6d 77 7f 6b 80 84 7c 63 5e 59 77 87     ....mw.k..|c^Yw.
    99d6:	88 9a 6f 73 75 81 7a 73 6d 75 93 64 6f 8e a0 b1     ..osu.zsmu.do...
    99e6:	aa 82 83 80 6d 99 7f 7c 98 83 81 8e 9e 9b af 92     ....m..|........
    99f6:	70 85 74 82 83 70 81 a4 76 70 98 95 aa b0 90 92     p.t..p..vp......
    9a06:	96 65 7d 7b 63 96 77 6c 89 97 a1 9c 98 59 69 6a     .e}{c.wl.....Yij
    9a16:	5f 8d 76 73 ab 7a 6c 9b 93 ab 9e 86 72 71 65 53     _.vs.zl.....rqeS
    9a26:	6d 4e 67 8d 43 53 6c 92 b3 99 6c 4c 78 66 66 80     mNg.CSl...lLxff.
    9a36:	63 8e 9d 61 70 86 94 a2 92 73 61 6b 5d 60 88 6a     c..ap....sak]`.j
    9a46:	83 84 50 68 84 8c a5 aa 79 70 84 62 84 99 6c 95     ..Ph....yp.b..l.
    9a56:	7d 50 7c 97 85 9d 8c 6c 6a 8a 64 8a 98 69 a9 81     }P|....lj.d..i..
    9a66:	50 82 94 9a a3 8c 89 8b 95 6e 9c 95 7d a1 70 53     P........n..}.pS
    9a76:	84 8c 8d a4 87 79 90 9a 77 91 67 6a 94 82 72 6e     .....y..w.gj..rn
    9a86:	73 8e 9d 9b 7f 76 88 7a 92 7f 75 99 68 4b 64 70     s....v.z..u.hKdp
    9a96:	9f a4 9b 79 7e 76 5f 84 7b 79 89 79 75 63 6a 81     ...y~v_.{y.yucj.
    9aa6:	93 9f 8b 73 5f 65 70 80 75 83 77 5e 62 78 8d 7f     ...s_ep.u.w^bx..
    9ab6:	82 6d 79 7c 6a 6c 7f 92 84 8b 88 63 72 74 86 9e     .my|jl.....crt..
    9ac6:	89 99 74 5b 6c 75 93 a2 a5 85 60 68 6e 8d 83 80     ..t[lu....`hn...
    9ad6:	77 7c 8c 66 6d 98 97 a6 99 71 7c 5b 6b 96 89 92     w|.fm....q|[k...
    9ae6:	8a 6e 7f 79 61 88 94 8c 98 6a 61 8e 8b 9e a6 7f     .n.ya....ja.....
    9af6:	8b 98 84 94 80 68 83 8d 87 76 4a 55 7a 8c 9c 94     .....h...vJUz...
    9b06:	78 7d 86 63 6a 6d 8c a4 7e 69 6e 89 90 9a 8e 72     x}.cjm..~in....r
    9b16:	82 81 81 7f 69 78 92 8a 8b 7c 4d 62 8e 93 97 89     ....ix...|Mb....
    9b26:	67 5e 66 5e 8a 84 8d 9f 78 79 87 90 82 80 7b 65     g^f^....xy....{e
    9b36:	77 7f 84 8a 67 79 8a 75 6f 73 69 6f 81 89 9a 99     w...gy.uosio....
    9b46:	80 65 6e 83 96 a2 97 94 76 69 78 77 6e 69 78 8d     .en.....vixwnix.
    9b56:	99 76 82 7f 76 97 7b 6a 6e 6e 7b 7d 81 88 9e 94     .v..v.{jnn{}....
    9b66:	70 72 56 66 8a 89 87 7a 5b 73 a0 9f 90 91 93 94     prVf...z[s......
    9b76:	9c 7c 7b 81 73 80 73 55 6d 7c 81 99 83 7c 88 94     .|{.s.sUm|...|..
    9b86:	8d 74 5f 54 6d 90 82 95 83 64 8d 8c 74 75 7d 72     .t_Tm....d..tu}r
    9b96:	88 96 84 98 8c 95 a8 86 6f 81 84 7a 7e 70 74 7c     ........o..z~pt|
    9ba6:	72 71 76 6c 6f 88 82 7f 85 67 86 a5 99 94 77 66     rqvlo....g....wf
    9bb6:	6d 75 93 a2 91 8f 73 64 60 5d 65 83 76 7f 94 6b     mu....sd`]e.v..k
    9bc6:	80 90 81 89 76 5a 6a 61 91 a5 96 ab 9c 99 88 73     ....vZja.......s
    9bd6:	65 5f 6a 92 a8 9b 80 71 5f 60 7c 70 73 7d 70 82     e_j....q_`|ps}p.
    9be6:	79 5e 72 7e 77 83 86 69 72 91 90 af a7 8b 9c 7c     y^r~w..ir......|
    9bf6:	6a 73 5b 77 9c ae a9 8e 75 69 6a 64 73 7c 7f 94     js[w....uijds|..
    9c06:	8e 7b 74 6f 6b 6f 7e 75 66 6b 7d 82 8e a0 a1 99     .{toko~ufk}.....
    9c16:	7b 6a 68 7c 88 99 a1 8a 99 91 75 82 7e 7a 7d 75     {jh|......u.~z}u
    9c26:	7d 80 71 73 7c 61 51 76 79 8d 9e 81 79 8a 90 93     }.qs|aQvy...y...
    9c36:	8b 67 6a 7c 7b a0 89 7b 8f 98 98 7f 76 62 6b 65     .gj|{..{....vbke
    9c46:	7a 77 6d 80 83 86 66 53 69 92 9c 98 80 5a 77 9b     zwm...fSi....Zw.
    9c56:	93 9a 7c 69 8c 87 a0 a3 73 7e 84 86 77 7a 80 7d     ..|i....s~..wz.}
    9c66:	8c 77 60 5c 6b 76 74 66 4e 59 71 8a 9f 98 82 8b     .w`\kvtfNYq.....
    9c76:	a0 ae a9 86 67 72 8b 99 9d 8f 81 8b 8b 82 76 7b     ....gr........v{
    9c86:	77 7b 83 73 5f 57 64 6a 74 61 6d 7d 98 a6 8d 76     w{.s_Wdjtam}...v
    9c96:	72 71 79 90 8c 87 70 8b 9e 90 8f 8c 8e 8e 92 87     rqy...p.........
    9ca6:	82 83 75 8a 7f 62 61 69 67 67 7c 66 73 7f 83 8c     ..u..baigg|fs...
    9cb6:	8f 89 84 83 7a 88 7f 7a 96 9e 83 81 7e 72 74 7c     ....z..z....~rt|
    9cc6:	84 87 8e 85 92 87 71 64 69 6e 62 7f 72 7e 90 79     ......qdinb.r~.y
    9cd6:	86 9c 8f 7c 78 67 82 80 7e 9f 92 79 8b 7d 68 90     ...|xg..~..y.}h.
    9ce6:	8f 93 91 79 85 78 6c 62 6a 59 50 75 72 75 81 7a     ...y.xlbjYPuru.z
    9cf6:	8f b5 9a 9b 83 66 7d 83 95 a0 92 87 78 89 69 7b     .....f}.....x.i{
    9d06:	92 7f ab 83 82 80 6b 7c 6b 5d 51 61 70 7c 76 74     ......k|k]Qap|vt
    9d16:	75 84 95 92 8e 68 64 72 8e a4 9c 9e 98 8c 85 76     u....hdr.......v
    9d26:	7a 81 8d 9e 96 95 79 79 6b 62 5d 57 69 6c 76 6f     z.....yykb]Wilvo
    9d36:	74 83 9d a0 9e 76 5b 72 83 ab a8 93 8a 69 5f 61     t....v[r.....i_a
    9d46:	73 83 88 9d 95 97 86 7f 7a 7b 72 74 60 5b 6f 62     s.......z{rt`[ob
    9d56:	79 8a 97 a7 ab 93 64 65 66 7b a2 92 9f 8b 63 71     y.....def{....cq
    9d66:	76 74 89 85 90 a8 8d 82 75 52 60 63 55 68 65 6d     vt......uR`cUhem
    9d76:	7d 94 a5 a4 9b 84 71 6e 6f 87 aa a5 ae a4 72 69     }.....qno.....ri
    9d86:	6e 6c 7d 7f 7d 90 8b 81 81 6d 5c 69 5f 6d 77 60     nl}.}....m\i_mw`
    9d96:	5e 7a 8d 9a 9a 89 81 6e 7e 88 9b a2 9c a4 91 70     ^z.....n~......p
    9da6:	6d 72 6c 8f 82 8e a3 8e 93 92 71 67 57 4b 60 60     mrl.......qgWK``
    9db6:	59 6d 8a a2 a9 99 77 66 6b 7a 96 9e 9a 8b 87 6e     Ym....wfkz.....n
    9dc6:	6c 7d 70 86 92 85 8c 90 7f 82 7f 63 66 58 57 73     l}p........cfXWs
    9dd6:	6c 7e 85 99 a1 a6 8d 6f 6c 65 8c 91 a8 a1 8b 7f     l~.....ole......
    9de6:	5f 6d 6c 77 82 81 8b 8b 82 7c 7a 6c 71 6a 66 6d     _mlw.....|zlqjfm
    9df6:	5a 71 7b 8d b4 a9 ac 8e 70 6e 7d 8d 9e ab 90 8f     Zq{.....pn}.....
    9e06:	73 61 72 70 7e 84 86 8a 88 7f 7e 6a 55 5c 59 74     sarp~.....~jU\Yt
    9e16:	6e 73 86 78 9c a0 a0 92 6f 6e 68 81 9c a0 95 8d     ns.x....onh.....
    9e26:	80 70 7d 6d 77 88 80 98 9b 8a 86 83 5f 65 5d 5c     .p}mw......._e]\
    9e36:	6a 5d 76 75 74 98 96 a5 81 68 72 75 93 a0 a3 81     j]vut....hru....
    9e46:	7e 70 63 7a 72 75 85 91 a0 a6 92 8a 7f 59 56 5d     ~pczru.......YV]
    9e56:	67 75 79 8f 79 96 a2 92 9c 6e 74 6a 6c 81 90 93     guy.y....ntjl...
    9e66:	81 95 7d 78 82 6d 89 8d 8b 9f 8f 80 7d 63 4f 5d     ..}x.m......}cO]
    9e76:	56 72 7c 7a 8b 6e 91 a3 8b 80 76 7a 8d 8f 9f ab     Vr|z.n....vz....
    9e86:	92 7b 80 6c 6c 71 68 77 73 83 86 95 89 76 67 4b     .{.llqhws....vgK
    9e96:	54 5a 6a 63 6e 85 7a 9b 9b 98 8b 7e 7e 80 87 94     TZjcn.z....~~...
    9ea6:	9a 99 96 93 7a 7c 8b 85 90 89 94 96 81 74 65 4f     ....z|.......teO
    9eb6:	48 51 59 75 6e 78 94 8c 96 8f 85 90 9a 85 8f 80     HQYunx..........
    9ec6:	84 97 8f 92 94 85 7a 7d 6f 85 7c 90 ae 93 7a 77     ......z}o.|...zw
    9ed6:	74 67 72 63 6d 7e 68 6e 65 6c 91 91 81 8c 79 73     tgrcm~hnel....ys
    9ee6:	6f 6c 7d 93 8c 70 7d 70 77 73 63 6b 78 7c 7a 82     ol}..p}pwsckx|z.
    9ef6:	60 5d 59 50 60 6f 89 92 a9 ae a8 a1 99 90 98 94     `]YP`o..........
    9f06:	92 9e 90 86 82 94 83 90 86 87 86 85 a4 a3 a7 8a     ................
    9f16:	8c 89 75 76 64 64 55 6a 6a 6f 7f 78 87 94 93 86     ..uvddUjjo.x....
    9f26:	8a 85 8d 83 85 84 90 86 8c 8e 6a 78 4a 62 63 62     ..........jxJbcb
    9f36:	67 46 62 57 53 4f 4c 50 5a 59 6a 86 90 a0 8a 75     gFbWSOLPZYj....u
    9f46:	70 7f 84 84 92 8f a2 a1 8c 7c 98 8c a5 aa 7f a4     p........|......
    9f56:	8e 9c a8 8d 95 91 85 84 6f 5f 75 6d 74 67 6c 84     ........o_umtgl.
    9f66:	77 73 71 7a 80 87 8a 89 88 85 6e 6f 6a 60 79 6a     wsqz......noj`yj
    9f76:	78 76 7e 92 85 92 8f 86 98 94 88 a2 77 75 87 78     xv~.........wu.x
    9f86:	aa ad 99 99 88 77 8b 92 98 9d 91 7f 7d 82 84 a6     .....w......}...
    9f96:	87 8e 90 77 8a 7a 75 78 66 64 7d 6c 75 7d 65 81     ...w.zuxfd}lu}e.
    9fa6:	7b 7f 7b 69 6e 69 6b 84 92 9b 8c 6d 5d 50 59 59     {.{inik....m]PYY
    9fb6:	71 58 49 68 4b 5d 56 4f 65 61 5b 75 79 6f 83 66     qXIhK]VOea[uyo.f
    9fc6:	68 72 72 7f 77 75 89 8b a0 ad 97 9a 87 88 8a 89     hrr.wu..........
    9fd6:	8d a6 8f 81 ae 93 c4 bf a6 ab 84 89 87 71 6a 76     .............qjv
    9fe6:	52 60 55 5f 84 70 8f 94 9a a2 a3 97 89 74 85 88     R`U_.p.......t..
    9ff6:	82 93 88 81 7a 89 8f a3 a9 b5 ac 92 96 7b 78 78     ....z........{xx
    a006:	86 90 85 78 7c 79 89 91 8f 94 80 8b 72 69 7d 88     ...x|y......ri}.
    a016:	8b 85 87 62 72 69 71 9a 7c 9c 90 82 81 6b 6b 70     ...briq.|....kkp
    a026:	6d 66 59 49 54 44 6f 87 8d 9f 7d 6e 68 57 6d 7d     mfYITDo...}nhWm}
    a036:	75 78 5a 4b 49 4b 54 5d 60 63 72 78 8b 95 80 73     uxZKIKT]`crx...s
    a046:	6c 64 69 74 67 65 7b 71 89 a2 94 9a 8a 7e 8e 8f     lditge{q.....~..
    a056:	a6 ab a9 9a 81 95 86 9f ad ab ab 98 87 90 8b 83     ................
    a066:	80 6e 67 5e 66 52 66 80 86 a4 99 8e 83 7e 8d 92     .ng^fRf......~..
    a076:	8e 98 96 84 70 7c 80 8f 9f a0 9b 96 93 98 aa a2     ....p|..........
    a086:	9d 91 85 79 74 70 74 83 84 87 90 8d 7b 79 7c 79     ...ytpt.....{y|y
    a096:	7f 75 73 7e 66 78 77 72 87 8d 9e 97 8f 8a 83 7c     .us~fxwr.......|
    a0a6:	7d 69 61 56 46 4b 48 5f 6e 7c 85 7f 77 71 6d 63     }iaVFKH_n|..wqmc
    a0b6:	6a 6f 6b 67 5f 62 68 5f 63 69 6e 6a 7b 7b 7c 7f     jokg_bh_cinj{{|.
    a0c6:	78 78 6e 6b 66 6f 70 7a 7d 7d 94 9c 9a 97 8c 88     xxnkfopz}}......
    a0d6:	81 88 95 8e 91 99 a3 a7 a1 99 a4 97 9b 9a 94 9b     ................
    a0e6:	88 7d 72 61 62 6a 64 64 5a 66 83 91 9a 9c 8f 8e     .}rabjddZf......
    a0f6:	89 7f 8a 80 81 89 88 8b 91 90 8e 84 86 8b 94 9b     ................
    a106:	92 99 9b 90 91 8d 8a 8c 79 79 84 87 8f 86 71 6d     ........yy....qm
    a116:	65 69 75 6b 6b 74 75 83 8a 89 90 89 87 84 74 7b     eiukktu.......t{
    a126:	7e 85 80 76 6d 58 57 5a 5d 72 87 8a 92 8a 7f 79     ~..vmXWZ]r.....y
    a136:	6d 6e 74 67 5b 51 52 55 5a 64 64 6a 66 65 6e 78     mntg[QRUZddjfenx
    a146:	80 8d 91 8a 89 83 7b 83 87 8a 8f 99 8c 89 89 7a     ......{........z
    a156:	7b 77 7a 80 82 86 90 93 a5 b0 a9 ac 98 88 7f 7b     {wz............{
    a166:	80 84 7a 76 69 5f 61 67 68 6e 74 79 89 92 a5 9e     ..zvi_aghnty....
    a176:	98 8e 85 8b 84 8b 95 81 83 82 77 87 8c 87 8b 89     ..........w.....
    a186:	93 98 8c 91 91 87 7d 78 81 7d 76 81 80 7c 90 87     ......}x.}v..|..
    a196:	7f 75 74 7f 76 7c 82 82 8c 8b 89 93 88 81 7c 70     .ut.v|........|p
    a1a6:	6f 74 6d 6a 6f 5e 62 6b 6a 77 7d 82 89 81 85 8a     otmjo^bkjw}.....
    a1b6:	86 7f 7c 7c 72 70 6f 6e 60 59 55 58 65 6c 75 7f     ..||rpon`YUXelu.
    a1c6:	7b 78 77 7d 8b 92 91 8e 8e 81 7d 81 80 88 90 93     {xw}......}.....
    a1d6:	8a 7f 7c 7a 7f 81 85 85 80 82 8c 91 9b a0 95 9a     ..|z............
    a1e6:	93 7e 7e 70 70 79 6d 6d 69 70 79 7d 79 75 78 88     .~~ppymmipy}yux.
    a1f6:	8d 89 87 86 85 86 82 7a 8a 86 85 8e 8c 82 80 7d     .......z.......}
    a206:	84 8a 86 88 8c 92 90 92 8a 81 86 85 7b 76 73 76     ............{vsv
    a216:	80 82 7e 76 79 75 74 79 74 80 8d 92 9c 98 93 8c     ..~vyutyt.......
    a226:	85 7f 7f 78 72 72 67 65 63 66 67 6b 77 6e 7c 86     ...xrrgecfgkwn|.
    a236:	8d 9b 9a 91 88 7e 75 6f 6a 71 74 77 80 79 78 71     .....~uojqtw.yxq
    a246:	63 63 61 67 73 75 7f 8b 87 8a 91 94 96 8e 8d 84     ccagsu..........
    a256:	7e 8a 92 8e 83 7d 78 75 71 74 84 90 98 9c 9e 96     ~....}xuqt......
    a266:	90 80 7f 79 72 79 77 6e 64 61 64 68 6d 75 74 78     ...yrywndadhmutx
    a276:	7b 83 92 9b a3 97 8e 86 78 75 7a 82 85 87 82 87     {.......xuz.....
    a286:	7b 7e 86 70 7b 79 81 8b 91 94 98 99 96 89 83 7e     {~.p{y.........~
    a296:	7c 70 6b 6b 6b 77 6d 6f 6c 6b 78 80 8b 92 95 90     |pkkkwmolkx.....
    a2a6:	8d 8c 8c 89 83 83 7c 7b 79 6f 7d 6d 63 72 64 64     ......|{yo}mcrdd
    a2b6:	72 6e 7f 81 86 9d 99 8f 8a 80 72 76 7d 84 81 82     rn........rv}...
    a2c6:	81 77 7b 82 79 7f 7c 6c 72 6f 7e 8c 8a 88 86 86     .w{.y.|lro~.....
    a2d6:	83 81 83 87 73 78 76 66 6e 6b 73 80 87 94 9c 9e     ....sxvfnks.....
    a2e6:	9a 92 8d 85 85 84 78 72 66 59 61 77 76 80 8b 79     ......xrfYawv..y
    a2f6:	6d 66 7e 82 87 91 a4 b7 95 90 92 8c 8a 87 83 80     mf~.............
    a306:	7c 6c 78 89 8a 7d 7f 8b a3 99 8a 79 72 91 83 78     |lx..}.....yr..x
    a316:	73 72 7a 84 7c 80 83 76 68 62 5b 5b 63 62 65 70     srz.|..vhb[[cbep
    a326:	6f 76 87 82 8a 92 89 83 7e 6c 61 69 6e 6e 6b 6f     ov......~lainnko
    a336:	7d 75 6a 6b 75 82 88 8e 9f 92 90 8d 89 99 a3 a2     }ujku...........
    a346:	95 80 74 76 70 7b 7e 90 94 8c 90 8b 90 99 87 77     ..tvp{~........w
    a356:	6e 6e 70 64 6a 78 85 80 78 6f 73 7c 82 7e 81 8c     nnpdjx..xos|.~..
    a366:	98 95 90 87 88 94 a2 99 88 81 80 84 82 7e 78 7d     .............~x}
    a376:	7a 74 72 73 77 88 88 8e 8c 80 78 7b 89 8b 88 83     ztrsw.....x{....
    a386:	84 88 88 7d 7a 73 73 78 7a 7b 83 7f 88 96 8e 90     ...}zssxz{......
    a396:	85 82 7c 6b 60 56 5d 6d 6c 6b 63 54 56 5a 5f 5f     ..|k`V]mlkcTVZ__
    a3a6:	61 60 6a 72 73 7b 83 8e 88 83 82 80 8c 89 80 77     a`jrs{.........w
    a3b6:	71 69 69 62 6b 7c 89 97 9f a0 94 92 85 87 96 9c     qiibk|..........
    a3c6:	9a a2 9a 93 8f 81 7e 83 8f 8e 90 8e 8d 8f 8e 87     ......~.........
    a3d6:	79 71 67 6b 6a 69 75 7c 81 85 80 79 7b 80 8b 98     yqgkjiu|...y{...
    a3e6:	9c a2 93 8d 8c 8b 95 92 89 8b 89 89 90 93 96 96     ................
    a3f6:	90 7f 6e 61 62 70 7d 85 8b 84 85 83 89 84 80 7e     ..nabp}........~
    a406:	7e 79 75 76 70 73 75 77 76 76 73 74 75 77 77 79     ~yuvpsuwvvstuwwy
    a416:	73 77 77 6d 69 66 61 62 6f 6a 67 5e 54 52 50 4d     swwmifabojg^TRPM
    a426:	5b 65 6c 73 74 70 7a 7d 7a 7d 79 7f 7b 7f 87 87     [elstpz}z}y.{...
    a436:	89 7f 7c 79 69 6f 78 82 90 98 97 9c 98 9a a1 9f     ..|yiox.........
    a446:	af ae 99 97 91 87 8f 87 88 8a 8c 96 95 90 97 8b     ................
    a456:	82 80 6e 70 6e 6e 7d 7f 83 9a 95 90 8b 7a 81 84     ..npnn}......z..
    a466:	85 90 90 84 91 92 9b ac 9b 9d 92 90 a3 95 90 97     ................
    a476:	80 83 7c 6d 70 66 68 79 6d 73 81 77 84 8a 74 79     ..|mpfhyms.w..ty
    a486:	7c 80 90 83 7e 84 74 77 71 67 6e 64 71 80 78 89     |...~.twqgndq.x.
    a496:	7a 6f 85 6a 5f 56 47 55 57 5b 6a 67 64 62 57 57     zo.j_VGUW[jgdbWW
    a4a6:	52 5c 6d 6e 72 77 6e 7b 7c 78 80 7e 7c 8a 84 82     R\mnrwn{|x.~|...
    a4b6:	7c 68 73 77 6f 73 74 75 81 86 96 a3 9e a1 99 8d     |hswostu........
    a4c6:	8f 99 9c a2 a3 9d 94 95 92 85 7c 7d 80 86 91 92     ..........|}....
    a4d6:	8d 83 82 80 81 80 7e 7b 73 70 7e 80 7d 90 89 88     ......~{sp~.}...
    a4e6:	86 8c 8e 96 95 93 95 8d 97 95 8e 8c 92 97 9d a4     ................
    a4f6:	a1 91 84 7a 79 70 6c 6d 67 6d 75 7e 80 89 8b 82     ...zyplmgmu~....
    a506:	7d 6e 72 7b 7f 86 81 79 71 76 76 77 78 76 7d 7d     }nr{...yqvvwxv}}
    a516:	80 79 6d 6f 73 6d 64 62 5f 59 5d 5c 5e 64 62 68     .ymosmdb_Y]\^dbh
    a526:	69 61 65 6c 71 7b 81 7f 82 7d 7b 79 76 78 82 88     iaelq{...}{yvx..
    a536:	8b 85 77 7a 81 7c 78 73 6c 71 78 7f 90 96 9f a0     ..wz.|xslqx.....
    a546:	9d 95 90 94 8d 92 8d 87 88 81 7c 88 85 81 8c 89     ..........|.....
    a556:	90 8c 84 82 81 81 88 88 81 80 75 7c 7c 7e 86 88     ..........u||~..
    a566:	8a 7d 7b 7e 84 85 8b 92 93 94 91 95 94 8d 85 86     .}{~............
    a576:	89 90 91 8d 85 7e 82 7a 7c 76 73 74 78 7a 7c 83     .....~.z|vstxz|.
    a586:	80 82 7f 77 7a 83 82 79 74 6b 6d 72 79 7b 82 7e     ...wz..ytkmry{.~
    a596:	7b 82 80 87 83 76 75 75 67 6b 66 63 69 5f 5e 62     {....vuugkfci_^b
    a5a6:	62 5f 63 61 61 67 72 80 8d 8b 87 8f 8a 8d 85 86     b_caagr.........
    a5b6:	84 7b 7c 73 73 77 78 71 76 73 75 7c 7f 8a 8e 91     .{|sswxqvsu|....
    a5c6:	8d 91 97 90 96 99 91 93 8c 81 87 85 82 89 80 79     ...............y
    a5d6:	7c 83 81 8a 8c 82 85 85 7a 79 79 76 84 82 7b 83     |.......zyyv..{.
    a5e6:	85 85 83 7f 81 7f 7f 82 89 94 91 92 98 9a 8e 84     ................
    a5f6:	85 85 8a 82 74 75 73 72 82 85 7c 8a 86 89 93 88     ....tusr..|.....
    a606:	85 88 81 79 79 7a 79 7b 78 72 72 71 78 7a 7b 79     ...yyzy{xrrqxz{y
    a616:	75 7b 7f 83 8d 87 88 84 87 7f 73 6b 65 6b 65 67     u{........skekeg
    a626:	6d 73 69 65 65 68 6b 76 80 88 8a 80 8c 90 8a 86     msieehkv........
    a636:	93 91 91 86 76 78 6a 6e 78 7c 7c 7d 83 88 84 82     ....vxjnx||}....
    a646:	91 8e 8a 85 74 6a 6f 70 78 7c 7f 83 93 98 91 91     ....tjopx|......
    a656:	83 85 8b 8d 8c 8c 87 87 87 87 80 7e 89 84 7e 6c     ...........~..~l
    a666:	6d 73 6f 71 70 74 74 78 84 83 85 8b 91 8c 94 84     msoqpttx........
    a676:	7f 87 81 8e 89 7c 82 84 7d 84 7d 7c 7d 86 89 86     .....|..}.}|}...
    a686:	8e 92 92 8c 7e 75 72 69 67 62 63 63 6e 77 83 88     ....~urigbccnw..
    a696:	89 8c 89 86 7d 7c 7c 75 72 77 7b 80 85 92 91 94     ....}||urw{.....
    a6a6:	91 91 88 76 7a 75 70 6a 69 6e 71 73 7b 7e 7d 7c     ...vzupjinqs{~}|
    a6b6:	77 74 6d 6d 6d 6c 72 70 74 7c 82 89 89 89 8b 8a     wtmmmlrpt|......
    a6c6:	92 9c 9f 96 91 8b 8e 8a 8c 88 84 7f 7b 77 76 81     ............{wv.
    a6d6:	7f 81 7a 7c 7b 7b 81 79 7d 78 71 6f 6b 73 74 6d     ..z|{{.y}xqokstm
    a6e6:	78 82 7f 85 84 84 7e 7d 84 80 85 85 8a 99 9d a5     x.....~}........
    a6f6:	a9 a1 95 8a 7c 75 76 78 77 6f 6e 72 6a 78 75 72     ....|uvxwonrjxur
    a706:	7b 6b 6f 73 7c 73 7a 68 92 72 72 79 62 64 6f 80     {kos|szh.rrybdo.
    a716:	7f af 90 cb b4 bb c1 d2 b1 8e b7 77 78 65 48 48     ...........wxeHH
    a726:	3c 3b 3b 3a 43 3e 48 68 76 72 88 9b a6 aa 9b ba     <;;:C>Hhvr......

0000a736 <astley3_data>:
    a736:	9b a8 84 ba 9c 9e 8e 77 6e 5a 6a 68 5f 73 79 6b     .......wnZjh_syk
    a746:	9e b3 93 b7 ac 9f b2 92 8e 85 70 71 4c 56 4d 43     ..........pqLVMC
    a756:	3d 2d 4b 54 55 73 80 81 93 8c 99 a7 97 b8 b2 91     =-KTUs..........
    a766:	bf b1 c4 b5 90 bc 99 94 74 71 7f 5e 62 41 33 45     ........tq.^bA3E
    a776:	4e 4f 34 51 6c 5b 61 5b 64 7a 86 92 8d 99 b4 ac     NO4Ql[a[dz......
    a786:	ba b4 ad ce be a2 ad 95 9b 95 95 99 8a 9a a3 8a     ................
    a796:	6a 77 6d 78 66 45 44 42 3e 45 59 32 22 4e 53 5e     jwmxfEDB>EY2"NS^
    a7a6:	4c 3a 47 66 67 66 6c 73 90 a0 9c 9b 9c a8 bf bd     L:Gfgfls........
    a7b6:	d1 c6 cc bc b4 b7 b2 b7 b8 a2 95 9e 86 77 8c 8f     .............w..
    a7c6:	72 7c 76 82 8f 74 77 63 70 80 66 6a 69 73 77 7e     r|v..twcp.fjisw~
    a7d6:	74 5f 6c 71 81 8c 7e 6d 7a 6c 73 81 5d 52 74 6a     t_lq..~mzls.]Rtj
    a7e6:	4c 4f 5f 60 6e 79 51 6e 7c 62 5d 5c 56 5f 65 64     LO_`nyQn|b]\V_ed
    a7f6:	73 76 7a 8b 9d 93 a1 92 a1 96 97 a4 a4 9f 9a 99     svz.............
    a806:	9c a5 8a a4 87 81 98 97 9f a9 a5 b2 a7 ae a9 a0     ................
    a816:	a0 9a 9d 89 92 87 90 89 93 89 84 7a 69 5f 60 64     ...........zi_`d
    a826:	62 5c 51 4b 50 44 46 3b 0f 3f 37 1f 3d 51 50 5c     b\QKPDF;.?7.=QP\
    a836:	63 48 47 61 51 4a 62 72 8c 8f a9 ad b9 b3 be be     cHGaQJbr........
    a846:	b1 bc c5 cf b2 d3 ce ca ce cc c4 94 98 9e a4 87     ................
    a856:	8f 9d 9e b5 a7 7d 7e 7e 68 71 68 5c 68 7c 7c 76     .....}~~hqh\h||v
    a866:	67 64 79 76 64 64 5b 65 58 67 77 6c 7b 5e 53 47     gdyvdd[eXgwl{^SG
    a876:	41 3e 4c 68 58 5e 8a 75 6b 62 5d 57 59 61 41 6f     A>LhX^.ukb]WYaAo
    a886:	85 83 95 93 90 96 96 99 87 7b 95 7d 93 aa 9c a9     .........{.}....
    a896:	aa 9a 84 80 71 80 86 87 92 a5 9f a3 b7 a7 8e 9d     ....q...........
    a8a6:	98 8a 85 92 89 94 a2 9f a1 9c 9c 7e 93 80 72 85     ...........~..r.
    a8b6:	90 85 85 6d 6d 6c 78 61 3d 4c 4e 54 64 5e 48 68     ...mmlxa=LNTd^Hh
    a8c6:	66 5d 4a 46 3d 47 68 5b 6a 66 6d 89 99 8b 75 83     f]JF=Gh[jfm...u.
    a8d6:	80 7b 7f 94 99 99 a6 8e a3 a8 97 7c 75 74 6f 87     .{.........|uto.
    a8e6:	8c 7d 83 99 9a 98 96 94 83 93 8c 92 91 90 9b 9b     .}..............
    a8f6:	a6 98 96 96 99 94 a1 90 a0 96 81 90 89 8a 7f 7d     ...............}
    a906:	71 60 6f 7b 66 70 66 62 5e 62 6a 58 6a 63 64 6b     q`o{fpfb^bjXjcdk
    a916:	70 66 78 7d 73 77 63 68 68 74 78 6c 79 6b 6b 71     pfx}swchhtxlykkq
    a926:	73 75 6e 7a 6a 60 68 67 73 77 83 74 78 83 88 8d     sunzj`hgsw.tx...
    a936:	8c 8d 89 98 9e a0 93 99 9e a1 a1 a3 9c 97 94 93     ................
    a946:	95 85 88 92 91 7f 8f 8c 8a 8d 82 83 83 7d 79 76     .............}yv
    a956:	6e 67 76 83 78 82 7c 88 83 8d 92 98 a3 98 9f 90     ngv.x.|.........
    a966:	8d 8f 8f 81 84 85 78 6b 6f 70 6b 6c 74 63 66 60     ......xkopkltcf`
    a976:	68 60 53 65 5a 65 66 60 5d 5f 5f 64 65 67 63 79     h`SeZef`]__degcy
    a986:	84 83 90 8f 84 7f 86 7d 84 7f 7b 6e 7a 77 7b 8f     .......}..{nzw{.
    a996:	87 7e 8a 88 87 8b 8e 86 78 80 7a 7f 81 7c 79 7d     .~......x.z..|y}
    a9a6:	80 7a 93 99 98 9d 9f a8 9b 9a 93 8a 92 90 85 7e     .z.............~
    a9b6:	8a 8e 91 9a 93 87 89 89 8f 84 87 89 88 99 8e 86     ................
    a9c6:	7c 7a 73 77 6d 68 7f 86 7d 85 95 8e 89 8a 82 6f     |zswmh..}......o
    a9d6:	6b 5d 5f 55 5b 5c 6d 80 7d 7e 79 75 79 7e 77 72     k]_U[\m.}~yuy~wr
    a9e6:	6e 6f 68 6b 5b 57 65 5c 5d 64 7a 75 86 8a 91 91     nohk[We\]dzu....
    a9f6:	8e 98 80 7e 80 77 6c 76 6a 6a 70 84 7b 79 72 79     ...~.wlvjjp.{yry
    aa06:	7a 7a 94 85 8c 8c 9b 89 88 7c 77 71 6d 81 7a 82     zz.......|wqm.z.
    aa16:	91 98 a4 ac a4 9c 9a 98 8c 83 80 7c 8a 8b 95 90     ...........|....
    aa26:	8a 8f 8e 93 8d 93 88 8e 91 8f 95 89 86 7b 79 76     .............{yv
    aa36:	74 6e 78 7c 7c 87 87 8d 96 8e 7d 7b 73 76 6a 72     tnx||.....}{svjr
    aa46:	79 7b 79 75 74 67 6f 7a 70 6c 71 79 75 80 80 71     y{yutgozplqyu..q
    aa56:	72 6a 6c 66 66 54 5b 5b 6b 7b 86 8e 81 7c 78 76     rjlffT[[k{...|xv
    aa66:	72 72 65 6e 77 84 75 7f 84 7f 87 92 96 85 7e 79     rrenw.u.......~y
    aa76:	86 8f 8d 8e 86 7a 78 71 6d 7b 7c 75 77 7e 86 82     .....zxqm{|uw~..
    aa86:	81 87 8d 8f 8c 8e 83 82 94 94 91 9a 97 87 91 8b     ................
    aa96:	86 88 88 96 9a 98 84 90 8d 99 9a 90 80 7a 7d 84     .............z}.
    aaa6:	8b 89 90 85 7a 7d 77 76 7e 70 6a 75 8e 75 7f 82     ....z}wv~pju.u..
    aab6:	70 82 85 73 6b 74 6b 6b 80 8c 86 84 76 74 78 83     p..sktkk....vtx.
    aac6:	85 7c 73 6c 6b 7d 6e 67 72 5b 60 77 77 6a 73 84     .|slk}ngr[`wwjs.
    aad6:	87 87 a2 84 6f 79 77 62 6d 78 76 85 98 93 9c 91     ....oywbmxv.....
    aae6:	6a 70 77 7a 6e 7f 7c 7c 83 8a 7b 7e 84 76 82 8c     jpwzn.||..{~.v..
    aaf6:	76 63 73 70 82 9c 96 83 8a 7b 74 82 93 96 9d 9e     vcsp.....{t.....
    ab06:	9f 9d 9d 93 7c 7c 81 8d 92 89 6a 6f 7f 7b 87 9c     ....||....jo.{..
    ab16:	86 7c 7a 6a 59 65 77 78 92 96 81 7b 7d 7b 89 9e     .|zjYewx...{}{..
    ab26:	a8 a0 9e 96 79 73 7d 80 8b 85 77 62 65 68 74 88     ....ys}...wbeht.
    ab36:	80 92 80 87 85 5a 4e 50 5a 65 7b 7b 7e 82 76 72     .....ZNPZe{{~.vr
    ab46:	8a 97 86 7f 7a 82 8a 8b 9b 9a 98 7a 78 7d 6f 6c     ....z......zx}ol
    ab56:	7a 75 5e 78 71 62 76 74 55 64 6f 69 7e 8e 88 89     zu^xqbvtUdoi~...
    ab66:	97 8c 82 81 7c 71 8a 9e a7 a4 a3 8f 7d 8a 8a 84     ....|q......}...
    ab76:	89 89 7c 66 53 59 59 74 75 70 71 7a 8e 9a aa a5     ..|fSYYtupqz....
    ab86:	9b 8a 83 7a 7b 7e 8d 8e 8d 8e 7c 7a 82 8a 8f a7     ...z{~....|z....
    ab96:	b1 a3 a5 9f 6e 54 69 52 55 65 56 4e 5b 73 7c 9b     ....nTiRUeVN[s|.
    aba6:	a2 93 8f 7b 7a 8b 8f 8d 86 7e 7f 70 71 83 8d 96     ...{z....~.pq...
    abb6:	a5 a8 a3 90 7c 7e 63 5d 5d 57 54 54 57 50 6c 89     ....|~c]]WTTWPl.
    abc6:	82 88 87 7d 7a 8d 97 8d 8d 84 78 78 87 84 8d 85     ...}z.....xx....
    abd6:	7a 89 83 70 73 83 7f 74 75 75 72 86 8b 86 80 7c     z..ps..tuur....|
    abe6:	7d 6a 72 6f 72 7d 7f 81 74 84 86 8a 9d a2 98 8c     }jror}..t.......
    abf6:	8c 85 7b 7b 81 77 73 7a 55 5f 71 77 8a 93 8d 7a     ..{{.wszU_qw...z
    ac06:	83 84 7c 8a 85 83 7a 6c 71 74 78 8a 9c a2 9b a6     ..|...zlqtx.....
    ac16:	a3 8e 93 93 88 7e 82 67 53 49 51 64 66 87 7e 82     .....~.gSIQdf.~.
    ac26:	84 98 a8 9f b9 99 7e 68 6a 65 5f 7a 80 88 7b 86     ......~hje_z..{.
    ac36:	8a 7d 83 8d 8c 84 87 77 6f 5c 6e 75 65 6f 76 72     .}.....wo\nueovr
    ac46:	68 80 8c 98 ab a2 7f 74 89 80 8d 8e 99 87 74 7c     h......t......t|
    ac56:	66 72 71 75 6c 7b 7f 80 8c 7e 80 84 85 76 7a 77     frqul{...~...vzw
    ac66:	69 55 5b 7b 7b 7d 6e 84 82 90 b0 ad b2 9c 9d 79     iU[{{}n........y
    ac76:	65 69 68 5a 5a 6a 6a 7c 7e 93 86 82 96 87 7f 82     eihZZjj|~.......
    ac86:	85 63 63 86 88 6b 69 86 76 7b 92 a9 91 93 aa 8d     .cc..ki.v{......
    ac96:	6e 76 89 62 65 66 71 6c 6f 8f 7f 76 7e 95 83 91     nv.befqlo..v~...
    aca6:	a0 8d 87 92 a7 6e 7c 86 81 69 5e 88 6f 7d 8b 8f     .....n|..i^.o}..
    acb6:	6e 74 97 8f 80 76 84 63 69 7b 84 74 6c 86 7a 7f     nt...v.ci{.tl.z.
    acc6:	82 96 85 83 89 7a 85 89 99 7f 74 83 86 8a 87 83     .....z....t.....
    acd6:	7c 6e 71 88 74 78 82 7a 73 7a 8d 89 81 7f 7c 71     |nq.tx.zsz....|q
    ace6:	68 71 7a 6c 6b 80 8e 94 9e 9a 92 83 82 8b 85 78     hqzlk..........x
    acf6:	6d 6a 63 62 6a 6c 71 7c 88 8e 95 9b 97 90 8b 7d     mjcbjlq|.......}
    ad06:	75 73 6f 6f 68 74 82 90 92 8d 96 7c 78 80 7e 77     usooht.....|x.~w
    ad16:	6e 72 75 73 73 78 78 6f 75 80 7f 8b 94 90 84 7e     nrussxxou......~
    ad26:	82 78 7c 7e 78 81 7f 87 8a 86 86 7f 74 7c 85 8a     .x|~x.......t|..
    ad36:	8a 85 8d 8b 87 80 7a 71 6b 63 67 6c 74 7e 79 84     ......zqkcglt~y.
    ad46:	83 85 8a 91 89 89 90 8d 90 94 8f 86 85 82 83 81     ................
    ad56:	83 7a 79 79 78 7a 6f 73 71 64 70 7b 83 83 86 7f     .zyyxzosqdp{....
    ad66:	72 77 80 81 7b 7a 87 8b 8e 97 8e 80 84 86 7f 80     rw..{z..........
    ad76:	86 7b 6b 70 74 74 7d 7d 85 83 83 88 86 80 82 72     .{kptt}}.......r
    ad86:	5e 66 6e 6e 69 75 86 8c 92 9b 99 97 92 88 7a 7c     ^fnniu........z|
    ad96:	88 88 7e 7e 81 83 8b 83 77 75 74 74 6f 71 76 6a     ..~~....wuttoqvj
    ada6:	64 5f 64 6f 75 82 80 7f 8a 93 9c 94 94 8f 88 8c     d_dou...........
    adb6:	8d 8a 8d 8e 89 8a 87 84 86 83 7f 74 73 73 75 7c     ...........tssu|
    adc6:	7d 7e 80 7f 85 83 75 69 68 65 62 6e 71 77 80 83     }~....uihebnqw..
    add6:	8d 8f 99 a0 97 8d 85 8b 90 8e 8e 8a 8b 96 97 89     ................
    ade6:	7c 78 71 6a 62 64 63 61 5a 64 6b 6a 79 73 75 7d     |xqjbdcaZdkjysu}
    adf6:	86 85 8a 8f 88 88 88 92 96 9a 95 8a 8a 89 85 7c     ...............|
    ae06:	7d 7a 7b 72 75 75 73 7c 80 7e 7a 7d 81 7b 73 6c     }z{ruus|.~z}.{sl
    ae16:	69 65 6d 6e 74 72 85 93 94 a2 97 95 9f 98 8e 8b     iemntr..........
    ae26:	8a 83 83 81 80 8a 8c 82 81 78 69 70 6f 65 69 68     .........xipoeih
    ae36:	60 6b 73 6b 71 7c 81 84 8f 8a 8e 8b 8a 8b 81 8f     `kskq|..........
    ae46:	99 9b 9b 99 96 93 87 78 74 6a 64 6c 7d 75 75 7a     .......xtjdl}uuz
    ae56:	74 7c 83 7c 73 7c 6f 65 6d 6b 6d 75 72 73 85 84     t|.|s|oemkmurs..
    ae66:	83 8e 87 92 a2 a3 91 9b 97 86 8f 85 84 86 8b 82     ................
    ae76:	87 86 7e 7a 72 6f 65 60 64 6e 75 71 79 74 7a 7d     ..~zroe`dnuqytz}
    ae86:	7a 76 7e 7e 75 7d 80 8a 99 a2 9a a2 a0 95 8d 79     zv~~u}.........y
    ae96:	6d 6c 6a 6c 70 79 85 91 96 92 92 8f 8b 85 79 67     mljlpy........yg
    aea6:	65 72 7b 71 72 64 79 88 7d 82 7e 84 86 92 94 8d     er{qrdy.}.~.....
    aeb6:	83 7c 7f 7b 7c 77 7c 86 82 80 81 80 7c 7c 74 6c     .|.{|w|.....||tl
    aec6:	6d 6f 7e 78 81 80 8a 91 7b 7a 6f 74 68 65 78 86     mo~x....{zothex.
    aed6:	86 9a a2 9b 94 9b 94 7f 70 59 61 68 71 7c 8f 84     ........pYahq|..
    aee6:	8c 9c 9c 8d 84 93 84 81 71 68 69 59 63 68 68 66     ........qhiYchhf
    aef6:	81 7c 86 88 87 9d 9c 9c 87 85 79 7f 8a 85 92 99     .|........y.....
    af06:	9b 93 8b 7d 83 7f 6c 65 6b 71 63 6b 69 6c 78 82     ...}..lekqckilx.
    af16:	72 6d 5c 5c 7a 75 86 7b 96 94 a4 b6 ad a9 9e 9f     rm\\zu.{........
    af26:	87 7c 68 7b 73 73 83 82 8e 7d 7f 72 7d 8d 7d 7a     .|h{ss...}.r}.}z
    af36:	5b 52 69 74 70 7b 76 5f 7b 9d a0 9c 9d 94 7f 88     [Ritp{v_{.......
    af46:	86 8b 7a 72 81 7c 78 76 7e 6b 79 83 7a 60 54 6d     ..zr.|xv~ky.z`Tm
    af56:	58 87 8c 93 89 62 92 93 a9 8d 89 77 6b 8a 92 b0     X....b.....wk...
    af66:	95 a2 85 90 8e 85 89 6a 7c 6c 53 47 73 60 7d 82     .......j|lSGs`}.
    af76:	85 91 61 89 86 99 82 6c 75 65 6b 85 a0 83 8c 70     ..a....luek....p
    af86:	64 7f 94 a8 84 8c 74 50 5c 7b 8f a7 9a 8a 68 4d     d.....tP\{....hM
    af96:	82 84 a3 99 89 71 70 8a 8e 9a 8f 99 71 6b 65 6d     .....qp.....qkem
    afa6:	7e 70 7a 55 52 68 7a 81 9d 90 70 6c 6f 7a 6e 7b     ~pzURhz...plozn{
    afb6:	6d 74 6b 87 8c 9d 9f 95 95 7a 8c 7f 96 93 97 82     mtk......z......
    afc6:	6f 66 70 8b 8c 9a 5d 79 8c 92 a8 9f 9c 86 89 84     ofp...]y........
    afd6:	89 7c 90 8a 89 8f 79 84 83 a0 9b 8d 7d 68 64 78     .|....y.....}hdx
    afe6:	85 7c 6f 71 7b 69 76 7c 70 6d 77 6e 76 88 7d 93     .|oq{iv|pmwnv.}.
    aff6:	82 8d 79 76 74 6b 73 61 6a 56 53 53 6c 64 6d 81     ..yvtksajVSSldm.
    b006:	72 88 7b 80 73 6e 68 65 5e 59 55 5c 7a 7d 8b 8b     r.{.snhe^YU\z}..
    b016:	8b 92 8e 8a 86 75 6c 6c 77 7e 7b 95 93 9a 99 8b     .....ullw~{.....
    b026:	89 8c 89 8c 92 7d 8f 91 a1 b1 a8 a5 8e 8b 7e 81     .....}........~.
    b036:	85 81 7f 77 81 84 9f a2 a8 a0 89 87 7d 88 82 70     ...w........}..p
    b046:	6b 61 66 87 95 a9 ab 9c 94 94 91 8f 95 89 82 74     kaf............t
    b056:	87 87 98 a2 94 9f 84 8c 88 7c 8b 7f 64 66 6e 78     .........|..dfnx
    b066:	91 90 89 6d 5c 55 55 5f 5e 5e 5a 49 5d 6c 6b 7f     ...m\UU_^^ZI]lk.
    b076:	7d 77 6b 4f 4c 41 41 5a 3f 34 5e 57 83 a8 a4 a3     }wkOLAAZ?4^W....
    b086:	7d 74 66 68 63 6c 66 5b 71 7d 91 a3 c0 a1 9e 90     }tfhclf[q}......
    b096:	79 89 79 83 7e 66 7f 82 88 af a9 a9 94 7b 76 77     y.y.~f.......{vw
    b0a6:	84 96 a3 9b 9b 98 a4 ae b8 ab 92 8c 64 67 62 69     ............dgbi
    b0b6:	6a 61 70 64 88 98 a8 af 99 99 79 68 6d 73 70 82     japd......yhmsp.
    b0c6:	81 77 7f 8e 9e a1 ae 97 82 67 62 64 51 57 66 60     .w.......gbdQWf`
    b0d6:	60 86 8b 94 9c 8b 89 6e 6c 80 85 83 90 96 80 8f     `......nl.......
    b0e6:	9b 90 97 9a 7e 6f 69 67 6b 6e 86 92 99 91 a1 99     ....~oigkn......
    b0f6:	81 9d 7e 79 66 50 5b 5e 77 7a 8e 8e 91 9c 90 9b     ..~yfP[^wz......
    b106:	8e 84 68 6a 4a 42 65 58 65 79 78 76 78 87 90 9a     ..hjJBeXeyxvx...
    b116:	97 84 70 6f 7b 7e 92 8b 9c 8f 82 99 87 89 8a 81     ..po{~..........
    b126:	6c 63 58 6f 74 84 8e 8d 74 4d 71 56 65 79 5d 6a     lcXot...tMqVey]j
    b136:	58 5f 70 84 97 91 9e 7d 65 7a 63 63 79 55 55 4e     X_p....}ezccyUUN
    b146:	52 68 6e 8c 96 84 79 74 7f 86 8a 97 84 8c 7c 86     Rhn...yt......|.
    b156:	b9 a8 c2 c0 a0 9d 8b 9a 96 82 8d 7a 63 73 7b 8d     ...........zcs{.
    b166:	9d a7 9f 95 88 89 88 85 84 7a 82 78 87 86 91 ac     .........z.x....
    b176:	9c 99 8d 8e 7f 7b 79 72 7c 6c 7b 7e 7b 8d 8f 98     .....{yr|l{~{...
    b186:	7f 72 72 66 61 53 61 5e 5c 74 78 84 89 98 a7 99     .rrfaSa^\tx.....
    b196:	98 90 85 87 6a 76 67 55 81 75 6d 8a 92 8e 82 8d     ....jvgU.um.....
    b1a6:	89 83 84 7b 7e 62 63 75 67 69 74 6f 73 80 8b 96     ...{~bcugitos...
    b1b6:	ab a4 96 9e 8c 90 8f 7f 83 7b 62 5e 65 67 7d 78     .........{b^eg}x
    b1c6:	75 7e 71 6a 70 72 6b 72 64 66 5f 52 72 6f 6e 86     u~qjprkrdf_Rron.
    b1d6:	90 93 8b 97 9b 93 95 a2 91 77 7c 7e 8c 9e 9b 99     .........w|~....
    b1e6:	a2 8d 86 7c 65 6a 6f 60 4f 4d 52 5a 64 73 75 7a     ...|ejo`OMRZdsuz
    b1f6:	77 73 73 63 63 6a 60 79 77 77 77 7e 95 91 a0 97     wssccj`ywww~....
    b206:	86 6f 5b 5a 58 61 6e 5b 59 78 86 86 9b a3 a7 b6     .o[ZXan[Yx......
    b216:	a5 a6 9f 8e 97 98 82 97 95 80 90 94 9e b8 af a7     ................
    b226:	a6 8c 8f 93 7e 89 89 6b 78 8c 7d 7b 8b 83 86 93     ....~..kx.}{....
    b236:	8c 88 86 8a 87 89 8b 88 78 75 79 70 79 80 84 7c     ........xuypy..|
    b246:	7f 8f 89 83 81 78 69 57 5d 63 5e 65 69 73 70 7e     .....xiW]c^eisp~
    b256:	8c 84 85 8b 85 80 89 90 7b 84 90 7a 92 82 87 8a     ........{..z....
    b266:	77 89 91 7e 83 84 6a 6f 6b 6d 6d 74 7a 7c 7f 80     w..~..jokmmtz|..
    b276:	8a 89 7e 8e 85 79 8b 81 84 81 83 8f 8d 83 87 86     ..~..y..........
    b286:	72 6d 70 5e 55 5f 4d 57 5d 61 7f 7d 8b 96 90 93     rmp^U_MW]a.}....
    b296:	92 93 87 82 7b 83 84 7f 92 9d 8f 92 ac 89 96 96     ....{...........
    b2a6:	8b 90 7e 7d 74 5c 58 4a 39 4f 4e 6d 5c 68 85 70     ..~}t\XJ9ONm\h.p
    b2b6:	7d 81 84 74 68 69 63 64 75 82 86 8e 85 a6 8b 8c     }..thicdu.......
    b2c6:	9b 7f 89 7c 81 83 79 70 66 47 5f 6b 6b 80 6f 8d     ...|..ypfG_kk.o.
    b2d6:	81 7e 9c 8e 91 8c 8b 81 8d 93 8e a4 ae a5 b9 bf     .~..............
    b2e6:	a5 b6 a2 98 9e 92 91 82 75 7e 67 61 81 7c 93 91     ........u~ga.|..
    b2f6:	90 90 81 92 87 79 78 7d 79 79 73 75 72 80 82 7d     .....yx}yysur..}
    b306:	98 74 72 74 6c 7d 7b 70 71 73 72 66 66 84 7e 92     .trtl}{pqsrff.~.
    b316:	88 7d 91 7f 7c 7a 53 5b 74 68 8e 9a 9a ad 9f aa     .}..|zS[th......
    b326:	a0 b2 8e 72 7d 5e 66 62 67 7b 73 67 67 6d 74 7a     ...r}^fbg{sggmtz
    b336:	88 82 7f 8d 79 79 7d 71 55 5e 67 6e 8e 92 95 a5     ....yy}qU^gn....
    b346:	9e 93 96 84 68 76 66 55 76 6b 68 86 6f 6b 91 83     ....hvfUvkh.ok..
    b356:	80 a3 86 7f 94 85 85 96 7d 5d 6e 6d 73 98 85 8d     ........}]nms...
    b366:	a5 89 98 94 7e 7a 67 5c 4e 59 58 53 74 54 4c 7a     ....~zg\NYXStTLz
    b376:	73 80 98 85 7c 84 8b 80 8c 87 62 72 6f 81 a7 a0     s...|.....bro...
    b386:	a0 9d 82 84 8e 6f 90 75 66 7e 6c 73 70 7c 70 77     .....o.uf~lsp|pw
    b396:	89 78 8c 8a 83 87 82 7d 79 8d 75 69 85 7b 8e 9f     .x.....}y.ui.{..
    b3a6:	b9 c8 d0 cd a8 a5 72 8e 85 69 96 85 90 85 82 6d     ......r..i.....m
    b3b6:	6f 79 6a 89 67 68 85 85 76 75 88 6c 7e 70 5c 79     oyj.gh..vu.l~p\y
    b3c6:	6e 8b 9e a0 9a 9a 92 74 82 7e 6c 7b 7d 69 70 74     n......t.~l{}ipt
    b3d6:	6a 80 71 6d 98 7c 6f 8a 84 68 76 6f 4c 7b 63 47     j.qm.|o..hvoL{cG
    b3e6:	6b 75 82 9d 9b 8c 93 81 7c 7f 75 6d 5f 6d 52 53     ku......|.um_mRS
    b3f6:	53 50 78 7b 88 8b 80 75 8c 90 58 72 6b 58 8a 8b     SPx{...u..XrkX..
    b406:	88 93 9f 9a b1 ae a5 ad 91 97 8f 93 99 92 a2 9f     ................
    b416:	94 82 89 a0 a2 b6 a8 a1 9f 9d aa 8c 80 59 56 4d     .............YVM
    b426:	56 58 49 6e 77 78 85 88 78 74 7a 60 71 89 60 6f     VXInwx..xtz`q.`o
    b436:	73 5d 71 85 87 8c 8f 78 6d 78 6c 7e 8b 58 58 58     s]q....xmxl~.XXX
    b446:	35 57 60 47 60 70 63 7e 8a 6e 78 7c 5e 60 7c 5b     5W`G`pc~.nx|^`|[
    b456:	63 7c 5f 84 94 95 b6 be b6 ae b9 93 a3 ae 68 7e     c|_...........h~
    b466:	6c 53 75 7a 7c 90 a6 9a ac ae 92 8e 8b 81 7b 8b     lSuz|.........{.
    b476:	66 68 81 62 7c 8c 8c 9e 9f 9c 8b 8a 77 84 81 60     fh.b|.......w..`
    b486:	70 56 5a 77 7f 7e 78 86 80 89 8b 73 7e 79 77 7b     pVZw.~x....s~yw{
    b496:	89 86 7e 8c 7c 83 96 96 a1 a7 b1 a2 a5 a5 9e a4     ..~.|...........
    b4a6:	88 84 7e 76 86 85 73 75 8b 94 96 98 7e 6e 71 5a     ..~v..su....~nqZ
    b4b6:	4b 5c 49 45 5c 53 52 65 71 73 86 7f 7d 7d 7d 80     K\IE\SReqs..}}}.
    b4c6:	72 71 71 77 72 81 71 5d 73 76 88 86 83 72 67 6c     rqqwr.q]sv...rgl
    b4d6:	4d 52 58 49 53 5d 5a 64 82 93 96 a1 a0 8b 8f 8e     MRXIS]Zd........
    b4e6:	76 72 70 70 7c 7a 7a 80 7c 8f a3 a7 ab a8 9a 83     vrpp|zz.|.......
    b4f6:	88 74 6f 81 79 7a 89 87 83 a2 a2 97 aa 9d 99 9a     .to.yz..........
    b506:	95 8e 88 7d 7f 71 79 87 75 7e 81 85 8a 92 8c 7a     ...}.qy.u~.....z
    b516:	80 76 5f 7a 7d 66 7a 78 76 8d 98 9a 97 9c 9e 92     .v_z}fzxv.......
    b526:	9f a1 98 97 8b 88 86 85 90 7e 85 85 87 96 93 93     .........~......
    b536:	87 8b 80 83 8c 7e 76 81 87 81 98 8f 85 81 70 69     .....~v.......pi
    b546:	57 5a 56 52 4a 53 56 4f 5b 61 5f 59 67 5b 5e 6d     WZVRJSVO[a_Yg[^m
    b556:	5d 69 78 6f 7c 80 74 73 83 7f 82 92 92 7e 81 7e     ]ixo|.ts.....~.~
    b566:	6d 71 6f 66 56 51 53 4a 5a 5f 67 6d 66 71 7a 87     mqofVQSJZ_gmfqz.
    b576:	82 85 7f 82 84 8e 92 8e 9a 96 a4 ac b9 b2 a4 9c     ................
    b586:	93 91 89 8f 86 85 84 7e 7f 79 78 76 77 76 7c 84     .......~.yxvwv|.
    b596:	89 94 8f 9b 95 97 8d 8e 8f 90 99 a0 a1 9d 92 8c     ................
    b5a6:	83 8a 81 75 76 6b 6e 6f 74 78 76 6a 6e 6a 6e 76     ...uvknotxvjnjnv
    b5b6:	85 8a 8e 9b a1 a6 a5 ad a6 a2 a3 97 a1 9c 96 9c     ................
    b5c6:	85 8f 7e 7a 74 72 72 69 6c 70 70 6d 75 62 5d 5a     ..~ztrrilppmub]Z
    b5d6:	59 56 58 5e 65 70 70 7a 83 81 8a 95 95 85 89 78     YVX^eppz.......x
    b5e6:	6f 86 7e 70 74 71 68 65 71 66 59 67 60 5a 69 65     o.~ptqheqfYg`Zie
    b5f6:	72 70 70 79 75 75 7a 88 84 81 88 8a 84 91 95 7f     rppyuuz.........
    b606:	88 86 78 77 7d 81 77 7b 78 69 70 78 76 81 81 78     ..xw}.w{xipxv..x
    b616:	79 7f 88 8e a0 9d 95 9a 99 94 a5 9e 95 9f 93 93     y...............
    b626:	a1 93 8c 83 8a 77 70 75 5f 66 6b 6c 71 77 73 72     .....wpu_fklqwsr
    b636:	82 83 83 8e 8a 95 a1 9e 9e a0 9b 93 8e 87 81 76     ...............v
    b646:	7c 73 73 82 78 8b 80 76 7f 76 84 7d 86 83 79 8e     |ss.x..v.v.}..y.
    b656:	8d 9b 9a 8e 8f 8c 99 98 94 97 8e 79 83 79 6d 70     ...........y.ymp
    b666:	54 64 52 5c 5b 4b 65 4d 56 5c 59 70 64 7b 77 75     TdR\[KeMV\Ypd{wu
    b676:	93 88 8c 97 94 95 86 8b 91 7d 91 77 73 73 5d 6e     .........}.wss]n
    b686:	58 66 5c 48 4e 34 58 5d 60 80 66 87 7e 8d aa 9f     Xf\HN4X]`.f.~...
    b696:	ac 99 99 a0 94 aa 8d 8c a8 7a 8a 77 7b 81 6e 74     .........z.w{.nt
    b6a6:	59 65 67 65 91 84 91 97 7d 96 96 b3 a3 8c 98 87     Yege....}.......
    b6b6:	9f 96 a5 a7 91 a7 7c 8b 85 75 81 65 71 66 5e 69     ......|..u.eqf^i
    b6c6:	65 79 7b 77 82 6a 78 8b 8f 8e 88 89 83 85 97 9c     ey{w.jx.........
    b6d6:	8c 98 9f 8e 9c 8c 85 7b 81 76 5e 7a 6d 6e 7d 79     .......{.v^zmn}y
    b6e6:	82 84 79 7a 88 8f 7f 90 89 7b 9d 9e 88 93 8f 7f     ..yz.....{......
    b6f6:	77 81 77 58 70 50 48 5f 57 53 56 6a 73 76 80 76     w.wXpPH_WSVjsv.v
    b706:	8b 92 7f 89 8e 8c 89 97 89 7f 8a 7e 6a 81 74 57     ...........~j.tW
    b716:	63 5d 4c 60 72 4d 5d 7d 68 76 84 85 8e 93 90 94     c]L`rM]}hv......
    b726:	8f 93 96 94 91 8b 81 79 85 83 6e 78 6f 62 72 6c     .......y..nxobrl
    b736:	78 74 7b 87 86 9a 8b 99 94 8a a2 86 85 89 8a 9d     xt{.............
    b746:	8b 8b 80 83 8f 7b 8f 75 72 79 64 74 75 78 79 7d     .....{.urydtuxy}
    b756:	90 82 8e 8d 8f ac 9d a5 94 97 95 8d 98 7d 80 7a     .............}.z
    b766:	6f 6f 66 73 67 62 67 6b 79 76 7c 82 7f 90 91 92     oofsgbgkyv|.....
    b776:	94 90 9a 93 9f 8b 8b 85 77 82 7c 7e 66 6b 63 5a     ........w.|~fkcZ
    b786:	6e 67 6e 6a 76 72 5d 93 80 82 92 7a 87 92 a1 82     ngnjvr]....z....
    b796:	8c 89 68 8a 79 5d 68 68 59 6f 74 68 70 89 7d 66     ..h.y]hhYothp.}f
    b7a6:	aa 8e 84 ac 79 8d 9d 9a 76 7b 78 4e 76 62 43 59     ....y...v{xNvbCY
    b7b6:	71 5b 72 72 78 90 96 91 74 9a 8b 7e a4 6a 83 ae     q[rrx...t..~.j..
    b7c6:	9c a0 92 7f 88 85 57 59 40 71 7b 72 89 76 98 79     ......WY@q{r.v.y
    b7d6:	4e 83 79 6c af 86 9d bc bb 8d 94 89 75 9c 64 46     N.yl........u.dF
    b7e6:	74 75 7f bb 94 64 9d b2 69 66 8e a6 ad 94 85 9e     tu...d..if......
    b7f6:	b9 92 95 84 52 76 71 48 38 53 45 67 83 55 79 92     ....RvqH8SEg.Uy.
    b806:	6b 50 5a 60 6d 7e 7e 72 a5 b2 a4 a3 93 7a 84 85     kPZ`m~~r.....z..
    b816:	67 83 a1 aa b3 b8 a4 b4 a8 77 74 67 84 91 83 97     g........wtg....
    b826:	96 ac a9 82 76 64 4c 5a 45 51 5d 68 74 6c 77 63     ....vdLZEQ]htlwc
    b836:	60 58 4b 35 4c 5c 52 75 84 79 90 77 63 7c 59 6a     `XK5L\Ru.y.wc|Yj
    b846:	86 81 91 a9 bb b4 cf c9 a7 b1 a8 91 a4 9f 9e ba     ................
    b856:	bf ab b3 ad 86 94 6d 45 64 71 6d 7e 75 65 6c 6b     ......mEdqm~uelk
    b866:	43 38 53 3d 3f 46 35 52 67 45 53 5e 45 48 40 2f     C8S=?F5RgES^EH@/
    b876:	3b 62 5c 72 72 65 86 8f 77 75 92 92 90 9d 9e b5     ;b\rre..wu......
    b886:	d4 cb c9 c3 c0 cb c3 b0 b2 d2 d1 c7 c4 b9 c7 d9     ................
    b896:	ac 84 89 8f 8d 8a 96 a1 af 99 7c 7b 6e 7b 6e 5c     ..........|{n{n\
    b8a6:	56 64 76 64 5e 50 56 64 4b 2e 2e 3d 44 3e 3d 48     Vdvd^PVdK..=D>=H
    b8b6:	5b 67 5a 4e 42 4c 40 2f 3c 58 78 7c 7c 7b 8b 9a     [gZNBL@/<Xx||{..
    b8c6:	81 71 80 90 a7 94 7e 95 99 a4 b6 ab 9f b0 9f 8f     .q....~.........
    b8d6:	98 98 b6 b8 9d a3 b9 b5 91 8f 88 8f b1 9e 97 ab     ................
    b8e6:	a0 93 90 8a 7a 91 82 68 6a 5b 66 6c 5d 70 8d 8c     ....z..hj[fl]p..
    b8f6:	5c 5c 5b 53 7c 57 53 5d 57 4d 4c 53 5b 5f 5f 59     \\[S|WS]WMLS[__Y
    b906:	61 6b 66 6c 54 66 7b 81 6a 7e 8a 66 8e 80 75 91     akflTf{.j~.f..u.
    b916:	9b a6 a0 9d 94 7f 87 8b a1 b0 99 af 87 85 9e 98     ................
    b926:	9a a6 bb a2 a3 a3 87 89 82 8f 92 95 b7 8b 99 a2     ................
    b936:	96 a9 a4 a0 aa af 8b 6e 75 7f 7d 88 7f 7d 7f 55     .......nu.}..}.U
    b946:	42 4b 51 71 81 61 56 79 62 3a 44 3a 61 7c 67 4d     BKQq.aVyb:D:a|gM
    b956:	5e 6e 4d 63 5b 6e 85 6d 49 3d 48 68 76 6f 8b 9c     ^nMc[n.mI=Hhvo..
    b966:	b5 7e 58 5e 6b 8b 84 75 96 b6 a6 8d 88 87 97 aa     .~X^k..u........
    b976:	94 88 89 a5 92 81 a1 b8 d0 b1 8d 75 87 94 84 75     ...........u...u
    b986:	90 ab b5 a6 87 8c 7c 6d 6b 5d 6e 8d 8e 7c 74 80     ......|mk]n..|t.
    b996:	77 76 6f 57 75 6c 56 53 56 6e 7c 96 6f 74 7a 3f     wvoWulVSVn|.otz?
    b9a6:	60 5a 58 7c 79 8c 84 93 91 68 76 56 64 6e 5e 8a     `ZX|y....hvVdn^.
    b9b6:	83 87 83 95 99 89 a0 7a 79 8b 77 70 77 90 ac ab     .......zy.wpw...
    b9c6:	ba 97 80 8e 71 87 83 93 bc 98 8f 8d 9f ad 8d 80     ....q...........
    b9d6:	7a 76 94 7f 78 87 93 a8 8b 93 90 82 a5 7f 6d 7c     zv..x.........m|
    b9e6:	8f ac 96 98 9b b4 96 5b 78 6b 7b 96 64 5e 6b 82     .......[xk{.d^k.
    b9f6:	76 63 79 58 6a 70 39 5d 68 78 80 58 63 6a 6b 46     vcyXjp9]hx.XcjkF
    ba06:	44 50 4c 5a 4c 51 66 77 85 73 5b 6e 61 6d 6c 5a     DPLZLQfw.s[namlZ
    ba16:	83 7f 94 92 7f a8 99 91 6e 61 74 6a 70 84 87 81     ........natjp...
    ba26:	7f 8b 7c 7e af 90 93 89 86 9c 99 c3 ab ad 9d 86     ..|~............
    ba36:	9a 6b 7f 94 88 a5 a6 91 82 8d 9d 7e 8c 94 6a 94     .k.........~..j.
    ba46:	89 7e 95 7c 9f 85 81 88 90 8a 71 7c 58 72 9d 90     .~.|......q|Xr..
    ba56:	82 86 73 74 67 7a 7e 7f c6 98 90 80 74 96 77 70     ..stgz~.....t.wp
    ba66:	6b 81 72 60 59 4d 6f 8a 74 6e 6a 77 87 67 68 52     k.r`YMo.tnjw.ghR
    ba76:	6f 8e 76 83 75 84 96 5d 51 75 88 89 84 7c 67 6e     o.v.u..]Qu...|gn
    ba86:	77 54 58 72 8a 99 7c 85 7b 99 cb 9d a6 a8 c7 a9     wTXr..|.{.......
    ba96:	60 8c 6c 9f a3 75 8e 8e a7 89 73 5c 60 9a 7c 71     `.l..u....s\`.|q
    baa6:	93 87 b6 91 5e 76 89 b0 7b 81 80 82 98 50 59 6e     ....^v..{....PYn
    bab6:	79 74 63 41 3b 6b 73 54 6f 8b 9f be 81 6f 7c 8e     ytcA;ksTo....o|.
    bac6:	83 6c 6a 82 a6 81 6e 67 62 74 7b 5b 65 83 89 72     .lj...ngbt{[e..r
    bad6:	5f 6e 8a b7 9a 6d 81 86 7a 7f 50 66 9d 80 78 79     _n...m..z.Pf..xy
    bae6:	72 6d 77 5d 44 72 7c 7c 7f 8c a3 b7 a8 76 8c 8b     rmw]Dr||.....v..
    baf6:	85 9e 5d 5d 84 78 62 70 75 6e 7f 7a 6a 74 88 78     ..]].xbpun.zjt.x
    bb06:	83 93 ae c8 bb 80 90 84 71 a5 75 8b b6 b4 a7 95     ........q.u.....
    bb16:	90 7c 7e 72 69 76 74 7c 78 80 a3 b0 bc 8d 97 87     .|~rivt|x.......
    bb26:	66 89 64 74 7b 90 84 85 9a 7c 79 70 7b 85 6c 72     f.dt{....|yp{.lr
    bb36:	8b 91 b4 b3 a4 8b 85 76 7a 8d 82 90 78 77 83 8c     .......vz...xw..
    bb46:	88 75 6e 60 65 6d 53 4e 74 7c 88 8d 83 93 73 6d     .un`emSNt|....sm
    bb56:	70 60 6b 60 6c 69 89 86 63 54 37 49 5f 56 49 53     p`k`li..cT7I_VIS
    bb66:	57 75 8b 92 98 b7 74 57 64 4c 84 7b 80 85 9c a1     Wu....tWdL.{....
    bb76:	73 79 60 71 8a 58 5d 5a 7c 9d a2 a6 a1 cf 88 7d     sy`q.X]Z|......}
    bb86:	8c 76 9e 93 7b 8b af a8 82 7b 6a 7e 8a 5d 6c 82     .v..{....{j~.]l.
    bb96:	92 a8 90 91 97 a9 90 68 83 7b 8b 7c 6d 89 9f b5     .......h.{.|m...
    bba6:	8b 7a 7d 82 7a 51 72 7a 93 a3 89 96 9f a7 92 62     .z}.zQrz.......b
    bbb6:	74 7f 80 72 6a 8b 8a 99 74 5c 6e 84 6d 5a 70 6f     t..rj...t\n.mZpo
    bbc6:	80 8c 83 a6 b7 ab 9c 60 65 70 65 7c 7d 85 8f 90     .......`epe|}...
    bbd6:	6d 51 6c 70 55 4d 5b 5f 66 82 7e 94 99 8e 96 76     mQlpUM[_f.~....v
    bbe6:	8b 9e 7f 87 93 8b 8d a8 a2 76 84 74 5b 4f 5c 75     .........v.t[O\u
    bbf6:	78 7e 83 85 79 6c 79 70 67 82 5f 76 90 88 81 87     x~..ylypg._v....
    bc06:	93 6e 74 70 60 6e 68 72 6f 75 8c 9f 92 7f 8f 7f     .ntp`nhrou......
    bc16:	6b 6b 5e 62 89 84 68 7b 92 80 74 69 64 72 71 7d     kk^b..h{..tidrq}
    bc26:	82 8b a4 c0 a7 95 a7 a8 92 89 84 77 91 88 72 7b     ...........w..r{
    bc36:	93 89 74 67 5b 6e 6a 6a 71 78 91 af a0 93 95 94     ..tg[njjqx......
    bc46:	90 79 82 7a 96 ab 8a 86 8c 8e 6e 68 68 5d 68 69     .y.z......nhh]hi
    bc56:	65 6f 82 9b a3 91 87 87 87 69 76 6a 69 8b 8f 82     eo.......ivji...
    bc66:	8f a5 93 8a 7c 6c 61 66 77 75 79 7d 94 8f 84 86     ....|lafwuy}....
    bc76:	96 8b 73 72 54 60 75 6d 6c 85 89 8a 82 6c 69 73     ..srT`uml....lis
    bc86:	76 74 71 72 92 9f 93 89 84 94 81 7e 77 78 98 7b     vtqr.......~wx.{
    bc96:	7b 80 7e 89 7a 7a 74 72 7c 69 71 70 a0 a5 93 98     {.~.zztr|iqp....
    bca6:	85 8d 75 72 6f 68 86 6f 7a 77 6f 8c 60 67 6f 5c     ..uroh.ozwo.`go\
    bcb6:	67 67 69 75 8f 92 8a 8f 8b a6 90 8c 89 6b 74 6a     ggiu.........ktj
    bcc6:	67 6d 77 79 7d 7f 71 7a 7b 6f 77 71 84 8a 8a 8c     gmwy}.qz{owq....
    bcd6:	99 9c 88 93 85 8d a1 9a 8c 85 83 77 74 77 76 76     ...........wtwvv
    bce6:	73 73 74 78 92 9d 8d 9d 9f 8f 74 70 71 6f 72 6e     sstx......tpqorn
    bcf6:	75 86 94 97 8e 85 7d 71 68 6b 6f 7b 8c 83 93 99     u.....}qhko{....
    bd06:	9d 97 8d 7d 70 7b 6b 77 71 76 80 73 85 7e 80 8d     ...}p{kwqv.s.~..
    bd16:	7b 82 76 6d 70 7b 8f 8e 9a 85 7d 7b 71 78 7b 7d     {.vmp{....}{qx{}
    bd26:	83 83 84 82 7c 7c 6e 7a 74 6e 78 6f 79 7f 86 8c     ....||nztnxoy...
    bd36:	85 88 8e 8a 7d 7d 68 71 77 7b 88 90 92 91 95 82     ....}}hqw{......
    bd46:	89 81 78 7b 77 80 83 a0 97 85 96 86 64 60 60 5c     ..x{w.......d``\
    bd56:	71 77 70 73 7b 7d 80 80 77 7c 83 76 63 6a 76 87     qwps{}..w|.vcjv.
    bd66:	91 81 91 8c 80 73 6f 77 7f 9c 90 88 8c 82 7f 5f     .....sow......._
    bd76:	69 67 6d 80 6f 77 7a 8f 88 7f 88 89 96 87 7f 7c     igm.owz........|
    bd86:	78 8d 90 93 92 9b a6 90 7e 7f 77 78 76 71 6f 78     x.......~.wxvqox
    bd96:	84 75 81 78 81 80 77 84 75 87 86 87 7f 81 8b 81     .u.x..w.u.......
    bda6:	8a 7e 86 86 74 73 6b 70 7e 8a 89 82 8e 87 72 6f     .~..tskp~.....ro
    bdb6:	68 72 83 8d 8a 8e 94 7f 74 79 7b 82 86 7c 8b 86     hr......ty{..|..
    bdc6:	85 85 85 7d 7f 8d 74 6f 73 6e 6b 65 70 7f 87 8f     ...}..tosnkep...
    bdd6:	7d 7e 89 86 87 82 8e 94 91 8e 7c 86 82 78 78 6b     }~........|..xxk
    bde6:	6c 86 78 62 70 7f 78 76 7d 7a 98 a3 95 95 8f 8a     l.xbp.xv}z......
    bdf6:	92 8b 7c 81 86 78 72 6c 67 6d 7b 61 5f 80 7c 7d     ..|..xrlgm{a_.|}
    be06:	76 73 83 8f 8b 7c 89 81 80 77 6b 72 7d 82 74 73     vs...|...wkr}.ts
    be16:	76 73 79 75 6a 77 98 8c 82 91 91 98 9f 82 89 95     vsyujw..........
    be26:	84 82 73 70 69 75 6f 63 7e 83 83 87 77 7b 92 97     ..spiuoc~...w{..
    be36:	82 8d 9a 8a 90 82 84 8e 84 7e 72 7a 77 70 7a 6c     .........~rzwpzl
    be46:	78 85 81 94 88 88 8f 90 89 7a 8b 81 7d 79 77 7b     x........z..}yw{
    be56:	6c 6e 71 6d 6f 76 75 7f 84 8f 8f 88 81 70 7b 87     lnqmovu......p{.
    be66:	90 90 8e 90 8e 81 82 85 78 79 70 79 78 76 79 7a     ........xypyxvyz
    be76:	7c 78 84 84 7e 6e 78 76 6d 72 7a 7b 8d 8a 80 8e     |x..~nxvmrz{....
    be86:	73 75 78 7a 8b 92 95 91 9a 85 88 90 7b 6d 7c 77     suxz........{m|w
    be96:	73 7f 72 71 79 83 6e 89 90 7d 8d 86 7e 85 89 80     s.rqy.n..}..~...
    bea6:	82 7e 80 80 79 55 6c 7b 74 89 7f 7b 92 99 76 7c     .~..yUl{t..{..v|
    beb6:	89 78 78 75 72 7b 7f 76 77 72 84 8f 7f 67 63 79     .xxur{.vwr...gcy
    bec6:	74 7f 89 89 9c a7 8b 87 8b 83 76 7a 71 74 8b 77     t.........vzqt.w
    bed6:	72 74 78 7f 7e 6d 6d 85 8f 8a 8c 87 8e a1 8a 86     rtx.~mm.........
    bee6:	86 7d 79 6d 6d 72 8a 86 7a 7a 7f 82 79 64 66 80     .}ymmr..zz..ydf.
    bef6:	91 90 89 91 94 9a 8c 77 79 74 75 70 78 7c 8e 87     .......wytupx|..
    bf06:	78 74 73 85 77 6f 72 7c 86 86 7f 7f 89 87 89 7e     xts.wor|.......~
    bf16:	80 7a 7b 7a 76 7a 84 8c 93 89 89 97 7c 70 79 73     .z{zvz......|pys
    bf26:	7c 7f 77 7d 77 79 6d 66 74 7e 7d 84 83 87 82 8b     |.w}wymft~}.....
    bf36:	91 86 83 94 8a 74 7f 7b 7b 7c 85 88 86 87 7d 7c     .....t.{{|....}|
    bf46:	7c 7f 78 7f 7d 8c 84 82 94 82 7c 82 78 6e 7b 6f     |.x.}.....|.xn{o
    bf56:	67 73 7a 7f 82 79 75 74 79 7e 77 80 8a 8d 84 85     gsz..yuty~w.....
    bf66:	92 87 80 80 74 71 7b 7c 7c 7b 86 89 7f 76 76 7d     ....tq{||{...vv}
    bf76:	8a 94 8b 82 81 7d 77 74 78 7d 73 68 71 78 77 7f     .....}wtx}shqxw.
    bf86:	87 79 89 99 84 7d 7d 7b 8d 89 86 97 9e 99 8b 78     .y...}}{.......x
    bf96:	70 79 76 68 6e 83 7a 7b 6f 6c 84 8f 88 76 7a 7f     pyvhn.z{ol...vz.
    bfa6:	86 8c 86 92 9a 8e 82 74 78 82 7d 6e 72 81 7f 7e     .......tx.}nr..~
    bfb6:	78 6b 87 89 79 76 71 7c 7e 80 7e 84 94 8a 91 82     xk..yvq|~.~.....
    bfc6:	7a 7a 6d 66 6c 7f 8c 8b 80 7b 7d 87 75 74 67 6b     zzmfl....{}.utgk
    bfd6:	7f 75 7e 87 93 93 85 7f 71 7c 7f 7c 7b 7f 87 98     .u~.....q|.|{...
    bfe6:	85 88 91 96 99 86 75 64 79 80 83 8d 8a 8a 90 7c     ......udy......|
    bff6:	80 7f 70 6d 6e 76 75 8a 90 82 86 7f 7d 7a 76 7c     ..pmnvu.....}zv|
    c006:	75 80 8b 7c 83 80 89 8c 82 6f 4e 76 74 6e 81 83     u..|.....oNvtn..
    c016:	8c 7c 66 71 85 96 8d 75 66 52 7a 93 96 9d 8d 7f     .|fq...ufRz.....
    c026:	73 73 87 8e 8d 79 7a 7f 6c 91 90 86 91 89 81 6f     ss...yz.l......o
    c036:	66 6d 78 85 7e 81 81 78 80 76 6b 6c 68 69 79 71     fmx.~..x.vklhiyq
    c046:	77 8c 95 76 7e 81 6e 7c 6b 6f 80 81 84 80 82 87     w..v~.n|ko......
    c056:	92 a1 91 97 92 8b 94 8f 94 94 83 7e 83 92 9d 8f     ...........~....
    c066:	8b 8a 95 8d 83 83 84 87 81 84 8a 83 89 83 7e 80     ..............~.
    c076:	7b 8a 7f 7a 7e 6b 7d 7b 6c 73 74 78 6f 7b 7a 73     {..z~k}{lstxo{zs
    c086:	82 78 70 70 6c 6d 70 76 74 71 78 6d 6a 67 5c 69     .xpplmpvtqxmjg\i
    c096:	67 72 7a 7a 79 60 68 65 70 77 6f 7c 78 77 72 6f     grzzy`hepwo|xwro
    c0a6:	7a 7c 88 82 7c 7d 7d 7c 7a 7a 80 86 80 82 86 92     z|..|}}|zz......
    c0b6:	90 84 7d 70 7e 7e 78 78 7e 92 8e 89 7e 79 84 7e     ..}p~~xx~...~y.~
    c0c6:	7d 7f 89 94 96 94 97 a1 a9 a6 a2 a4 a8 af 9f a6     }...............
    c0d6:	a4 a4 b5 ac 9c 96 a0 a1 98 96 8c 87 8e 7b 7c 82     .............{|.
    c0e6:	90 86 77 71 6a 78 6f 6d 6e 68 7a 76 69 64 68 71     ..wqjxomnhzvidhq
    c0f6:	64 67 6b 70 72 6f 61 69 77 6c 5f 4e 55 5d 66 6b     dgkproaiwl_NU]fk
    c106:	6c 67 6a 7b 7b 79 7f 8d 87 82 7b 74 82 81 84 6f     lgj{{y....{t...o
    c116:	77 7f 7f 70 74 7e 79 8b 7e 7b 6f 7f 85 6e 70 84     w..pt~y.~{o..np.
    c126:	86 86 86 7d 7f 78 76 70 75 86 81 77 69 78 77 75     ...}.xvpu..wixwu
    c136:	73 78 7b 82 92 85 7b 8c 85 7c 8c 8d 96 91 8f 89     sx{...{..|......
    c146:	88 87 83 7c 75 84 90 8c 82 80 73 72 80 83 80 8f     ...|u.....sr....
    c156:	8b 7e 79 7d 82 87 8b 8a 88 90 8d 84 78 7e 8f 89     .~y}........x~..
    c166:	8d 90 8f 84 8f 85 7d 80 83 79 7b 7e 85 80 77 7f     ......}..y{~..w.
    c176:	75 7e 7d 7c 71 78 83 8a 88 96 93 91 90 9a 96 95     u~}|qx..........
    c186:	a2 97 9d a2 9c 9a 9b 94 9a 93 9b 98 8d 80 82 7b     ...............{
    c196:	71 79 6b 6d 68 6e 66 5a 60 66 57 66 56 6b 67 65     qykmhnfZ`fWfVkge
    c1a6:	6a 59 71 6e 70 5f 72 72 6b 6d 60 56 66 68 62 69     jYqnp_rrkm`Vfhbi
    c1b6:	66 73 75 6b 6a 82 80 7f 84 80 8f 9b 89 7c 7a 86     fsukj........|z.
    c1c6:	7f 7b 74 60 73 70 6f 63 78 80 83 85 7f 8a 85 7b     .{t`spocx......{
    c1d6:	76 75 83 97 8a 8a 8b 98 8f 85 75 77 75 87 7b 81     vu........uwu.{.
    c1e6:	84 94 86 78 83 78 95 82 94 8c 99 90 8d 85 86 a8     ...x.x..........
    c1f6:	99 9c 8b 91 7f 89 88 88 8f 9a 98 8d 8b 7e 88 6f     .............~.o
    c206:	79 7b 83 84 82 79 76 88 7f 83 81 8a 7a 87 84 83     y{...yv.....z...
    c216:	81 87 87 89 8a 8a 91 83 88 88 95 86 8f 7d 77 7e     .............}w~
    c226:	77 78 78 75 71 78 81 8d 8b 8a 8f 93 98 9b 95 91     wxxuqx..........
    c236:	89 93 91 91 95 93 91 95 8b 84 77 6c 5e 62 6e 76     ..........wl^bnv
    c246:	73 66 69 70 6e 76 76 6f 68 6f 69 5e 63 58 59 5b     sfipnvvohoi^cXY[
    c256:	6b 61 69 5e 56 50 5b 5d 69 65 71 76 7d 7b 74 7c     kai^VP[]ieqv}{t|
    c266:	6c 81 84 87 78 88 79 8c 83 85 7f 7d 70 68 72 74     l...x.y....}phrt
    c276:	88 79 81 74 8d 87 7e 87 71 78 7f 77 64 7d 7d 80     .y.t..~.qx.wd}}.
    c286:	91 80 8b 8d 87 79 8a 7f 8d 8c 89 84 9a 96 9a 90     .....y..........
    c296:	80 84 88 9b 81 93 80 92 8f 90 8a 9b 8b 87 8e 7d     ...............}
    c2a6:	80 89 83 7c 8d 90 9b 94 86 83 91 7f 8a 75 80 82     ...|.........u..
    c2b6:	93 80 82 7e 74 71 71 81 77 8e 7f 8a 7d 98 99 97     ...~tqq.w...}...
    c2c6:	8f 7e 89 7a 85 78 7d 7d 86 84 7c 79 6c 66 67 69     .~.z.x}}..|ylfgi
    c2d6:	70 74 82 91 8a a1 9f ab 93 94 8d 88 8d 7e 7d 76     pt...........~}v
    c2e6:	87 80 88 7b 7e 72 6d 71 6d 77 72 80 72 76 84 80     ...{~rmqmwr.rv..
    c2f6:	79 75 71 77 72 6d 65 5c 6d 5c 6f 5d 69 6b 5e 67     yuqwrme\m\o]ik^g
    c306:	64 75 64 7d 6f 79 7c 89 74 7b 7c 73 81 70 75 74     dud}oy|.t{|s.put
    c316:	76 7c 7c 8a 8a 85 82 79 7c 7f 7e 85 90 91 90 93     v||....y|.~.....
    c326:	90 76 84 6b 6c 66 66 6c 70 78 6f 87 8a 8d 91 92     .v.klfflpxo.....
    c336:	93 93 94 85 90 8f 84 90 85 8b 7e 86 73 76 7a 7e     ..........~.svz~
    c346:	88 87 84 94 92 88 87 85 8f 8d 97 85 98 8f 90 82     ................
    c356:	88 88 82 89 7e 81 82 83 7c 75 7e 81 93 81 7f 81     ....~...|u~.....
    c366:	6e 79 69 78 7f 94 85 93 84 8b 8e 7c 82 7b 80 74     nyix.......|.{.t
    c376:	81 6c 81 84 7f 89 85 7d 83 77 72 70 76 81 7c 87     .l.....}.wrpv.|.
    c386:	85 99 8a 83 88 71 7f 7c 7b 86 83 90 7a 8b 7d 84     .....q.|{...z.}.
    c396:	7f 6f 78 77 76 88 82 83 8f 7f 89 74 78 6c 76 63     .oxwv......txlvc
    c3a6:	71 64 64 6f 69 6b 72 70 62 73 67 75 86 85 8a 92     qddoikrpbsgu....
    c3b6:	89 8b 8e 7a 72 77 63 66 68 64 6a 77 73 76 81 83     ...zrwcfhdjwsv..
    c3c6:	84 88 8b 86 92 86 8a 87 8b 8e 8d 88 7d 82 6b 70     ............}.kp
    c3d6:	73 6d 72 72 7e 72 8a 82 7e 85 79 8d 7e 88 90 91     smrr~r..~.y.~...
    c3e6:	90 86 90 7f 81 88 71 7f 70 76 70 77 7a 83 89 84     ......q.pvpwz...
    c3f6:	91 86 81 8d 98 87 a7 92 a4 95 a1 96 82 7f 65 71     ..............eq
    c406:	6d 6f 77 67 70 7c 63 70 7c 91 80 9d 9d 96 a9 9f     mowgp|cp|.......
    c416:	93 98 9a 9c 92 85 84 64 78 80 71 5b 78 6f 74 7c     .......dx.q[xot|
    c426:	70 7a 6b 8c 92 80 8f a0 8b 72 7a 8b 85 87 82 73     pzk......rz....s
    c436:	52 59 5c 50 74 66 60 71 71 7c 9d 8e 7f 9a 95 9d     RY\Ptf`qq|......
    c446:	9f a1 9c b6 a7 7d 7e 78 53 53 6e 58 45 66 50 46     .....}~xSSnXEfPF
    c456:	64 54 77 6b 79 86 95 9b 98 92 8c 96 9d 86 71 75     dTwky.........qu
    c466:	6e 66 71 77 5e 61 5b 5f 5e 7d 81 75 83 8e 7d ab     nfqw^a[_^}.u..}.
    c476:	af 83 9a 9e b0 98 a8 94 83 9b 89 63 6d 78 55 67     ...........cmxUg
    c486:	63 72 8c 6e 78 85 9a 9f 94 9a a2 b7 91 86 95 8a     cr.nx...........
    c496:	82 7f 50 6c 81 53 6b 69 5a 72 78 7e 88 8a 99 95     ..Pl.SkiZrx~....
    c4a6:	86 86 96 8b 75 83 72 68 84 71 66 73 6d 4d 46 62     ....u.rh.qfsmMFb
    c4b6:	71 64 7d 80 75 99 7b 9a ab b7 b7 a4 ae 9a 8b 8a     qd}.u.{.........
    c4c6:	70 75 87 6b 72 76 78 81 8d 99 76 93 8c 74 8a 72     pu.krvx...v..t.r
    c4d6:	a1 96 80 90 7c 8e 86 75 6c 79 83 55 58 77 7f 82     ....|..uly.UXw..
    c4e6:	77 8f 80 89 ac 8d b0 b8 ac 99 7e 85 7b 81 7f 6d     w.........~.{..m
    c4f6:	6a 75 7f 66 61 81 76 6b 6e 7d 78 72 7d 6b 83 72     ju.fa.vkn}xr}k.r
    c506:	5e 7a 5f 64 69 53 57 62 53 52 6c 5c 64 7f 65 6d     ^z_diSWbSRl\d.em
    c516:	6f 7a 79 63 7b 83 85 6e 6d 83 79 78 76 66 76 7d     ozyc{..nm.yxvfv}
    c526:	73 8b 96 8e 9a 9a 9b a7 8e a3 8d 6e 8b 8b 84 7a     s..........n...z
    c536:	87 8c 7e 8b 94 8b 9b 87 95 a8 a2 a7 9f a1 a5 92     ..~.............
    c546:	80 93 7f 83 88 87 88 7c 84 71 7d 90 8a 86 81 7f     .......|.q}.....
    c556:	8f 93 8f 8f 95 8f 82 63 5f 64 51 56 49 74 87 79     .......c_dQVIt.y
    c566:	88 80 a7 9e 86 8a 8b 97 91 8d 77 96 9b 7e 88 7d     ..........w..~.}
    c576:	9e 8e 7d 6b 55 89 4f 40 42 54 81 57 61 78 98 97     ..}kU.O@BT.Wax..
    c586:	92 8a 84 aa 84 5c 52 5b 73 59 56 52 7d 8b 6e 73     .....\R[sYVR}.ns
    c596:	6a b2 9e 79 88 92 a1 80 87 77 8c 9f 80 79 6c 91     j..y.....w...yl.
    c5a6:	84 64 61 67 92 6f 70 66 6f 95 5c 51 66 81 78 6b     .dag.opfo.\Qf.xk
    c5b6:	74 7d 8f 85 73 6b 7c 99 7d 6e 5a 86 85 47 6a 57     t}..sk|.}nZ..GjW
    c5c6:	83 86 4c 5a 71 8d 70 77 9a a4 be b4 92 9c b8 a6     ..LZq.pw........
    c5d6:	96 78 72 a5 7b 66 69 79 a7 83 7b 8b a9 c0 89 9a     .xr.{fiy..{.....
    c5e6:	9b 97 ad 85 79 83 97 98 8b 6b 98 c1 94 91 7f 91     ....y....k......
    c5f6:	a6 76 5d 63 89 81 65 79 73 9b a9 82 88 8e a6 a7     .v]c..eys.......
    c606:	7a 67 79 8a 61 4a 3f 5d 84 5e 45 5c 8e 89 81 83     zgy.aJ?].^E\....
    c616:	88 b7 a9 96 77 8a b0 8c 82 65 85 a4 6d 70 5c 79     ....w....e..mp\y
    c626:	9d 5b 43 52 7b 76 55 5d 6e 8c 8e 78 53 7c 94 67     .[CR{vU]n..xS|.g
    c636:	61 46 76 8e 62 71 65 88 a3 6f 5b 64 8f 89 65 6b     aFv.bqe..o[d..ek
    c646:	80 97 98 91 76 96 ae 93 7e 7b 99 94 6c 69 5d 6e     ....v...~{..li]n
    c656:	79 62 53 57 7c 85 6f 67 83 94 84 84 6e 72 90 71     ybSW|.og....nr.q
    c666:	5d 67 77 78 65 6b 73 81 78 7d 76 6e 77 8b 88 74     ]gwxeks.x}vnw..t
    c676:	7a 81 76 81 80 7e 8e 91 89 88 a9 a2 99 a2 a3 9f     z.v..~..........
    c686:	91 8f 91 85 70 81 9a 96 94 8e 97 a5 a7 8e 89 9d     ....p...........
    c696:	8c 80 99 9b 94 9e 9a 99 90 84 93 86 5f 6e 74 8e     ............_nt.
    c6a6:	89 6b 82 8e a2 80 76 94 7f 7e 71 70 83 6f 72 70     .k....v..~qp.orp
    c6b6:	8a 76 6c 8d 66 6d 6f 77 8b 58 65 71 76 84 68 85     .vl.fmow.Xeqv.h.
    c6c6:	84 97 a5 82 a6 aa 90 84 81 89 6d 67 70 54 4d 53     ..........mgpTMS
    c6d6:	72 5e 51 6e 79 8e 6c 6f 7a 7e 95 7e 61 6f 90 78     r^Qny.loz~.~ao.x
    c6e6:	5b 5d 72 74 59 6b 6d 67 8a 9e 8b 75 93 ad 96 7f     []rtYkmg...u....
    c6f6:	7b 7e 85 8c 80 65 7e b7 96 6c 78 8c 96 66 6e 85     {~...e~..lx..fn.
    c706:	4a 72 86 5b 5e 69 8d 70 4d 6e 6a 7e 7d 73 75 73     Jr.[^i.pMnj~}sus
    c716:	b2 a2 6c 81 8e 8e 63 65 71 4f 6f 7a 6a 6b 7c a0     ..l...ceqOozjk|.
    c726:	9f 80 9d 9f 96 8f 85 84 77 ac a0 75 8b 9d bb aa     ........w..u....
    c736:	8c ab 8a 92 92 7e 7c 5a 87 85 5a 84 8e a3 a4 9b     .....~|Z..Z.....
    c746:	ba 9e bd b2 89 8e 7a b0 8a 4a 80 61 73 79 60 78     ......z..J.asy`x
    c756:	55 83 8a 5c 7c 7d 98 9b 75 ad 90 8c 96 65 71 5f     U..\|}..u....eq_
    c766:	7d 74 34 64 68 6e 79 67 95 85 8e ad 7b 7d 85 92     }t4dhnyg....{}..
    c776:	83 5f 8c 87 76 85 77 83 77 86 9a 52 61 6d 63 62     ._..v.w.w..Ramcb
    c786:	47 78 67 64 8d 65 6d 70 7c 91 60 7c 93 75 88 88     Gxgd.emp|.`|.u..
    c796:	8a 79 7c a2 69 58 76 70 77 5b 6e 92 78 9f 98 7d     .y|.iXvpw[n.x..}
    c7a6:	87 9b af 63 6a 9a 71 76 75 71 78 76 a2 8d 66 8b     ...cj.qvuqxv..f.
    c7b6:	92 83 5c 62 80 5a 6c 64 4e 6a 6f 89 69 62 a4 99     ..\b.ZldNjo.ib..
    c7c6:	8e 95 92 97 79 93 94 59 7b 82 76 79 6c 95 87 78     ....y..Y{.vyl..x
    c7d6:	91 7b 7d 81 9b 96 7a bb b2 93 aa a2 8f 79 8c 9c     .{}...z......y..
    c7e6:	63 64 77 7f 84 76 9f 94 8a b3 8e 72 85 97 84 6b     cdw..v.....r...k
    c7f6:	8d 9c 8f 9d 9d 94 8b a1 b8 7a 68 80 75 58 50 65     .........zh.uXPe
    c806:	5f 62 81 7c 6a 7a 9a 8d 76 8e a0 8a 78 8e 75 5a     _b.|jz..v...x.uZ
    c816:	80 7c 53 45 5a 68 55 5b 72 77 79 91 9e 7c 8a b1     .|SEZhU[rwy..|..
    c826:	9d 89 a0 b3 9a 8e 9f 7c 60 85 6f 66 53 53 6c 45     .......|`.ofSSlE
    c836:	4c 53 48 56 5c 5d 45 48 9e 7a 7a 92 a6 b7 9c b0     LSHV\]EH.zz.....
    c846:	91 9a b1 b0 8c 8a 77 98 70 65 87 54 94 74 6c 6e     ......w.pe.T.tln

0000c856 <astley2_data>:
    c856:	83 6f 6e 78 9c 91 7a 8c 91 7d 67 82 77 66 68 7e     .onx..z..}g.wfh~
    c866:	5d 6f 6f 78 8b 79 cb 93 8a ba 8f a8 9a 9e b6 87     ]oox.y..........
    c876:	85 88 91 74 72 8e 65 73 71 80 7b 74 7f 67 72 6f     ...tr.esq.{t.gro
    c886:	6b 57 5b 74 65 5e 63 71 88 6a 7d 94 91 b1 9e b8     kW[te^cq.j}.....
    c896:	b8 b1 b3 ab b0 a2 8a 98 87 76 90 70 75 63 56 78     .........v.pucVx
    c8a6:	5f 49 4c 4b 4b 53 72 61 62 7a 82 7c 7f a0 a7 99     _ILKKSrabz.|....
    c8b6:	9c 9f 8f 87 98 a0 83 9e 9f 8c 8f 97 a8 a5 99 ab     ................
    c8c6:	a1 96 9d b1 ad 7e 80 83 7d 6d 58 51 2e 45 3d 28     .....~..}mXQ.E=(
    c8d6:	38 45 69 45 3f 4e 51 59 5a 7d 72 5c 79 72 6b 71     8EiE?NQYZ}r\yrkq
    c8e6:	8f 9a 74 86 95 92 89 87 a4 9b ae c5 b0 a7 b1 db     ..t.............
    c8f6:	c6 aa 96 90 9a 90 8f 88 73 6f 6b 6a 79 80 8c 7d     ........sokjy..}
    c906:	88 8e 86 81 76 83 7e 7c 73 79 6f 65 63 5f 4c 3b     ....v.~|syoec_L;
    c916:	4c 47 4b 4d 5a 67 64 62 6d 78 7e 74 89 85 71 89     LGKMZgdbmx~t..q.
    c926:	87 81 8b 80 7f 6c 7a 87 7f 79 80 90 79 8a 84 98     .....lz..y..y...
    c936:	a3 97 b3 ab be c0 b0 a9 8a aa 8b 83 90 8a 9c 71     ...............q
    c946:	93 ae 9b 92 9b 9c 93 91 9e 9b 8d 9b a0 7f 78 7f     ..............x.
    c956:	6a 61 66 6b 54 3c 56 63 4f 56 5a 5c 51 69 74 5c     jafkT<VcOVZ\Qit\
    c966:	52 53 57 42 2a 36 3c 45 49 56 52 59 70 82 88 7c     RSWB*6<EIVRYp..|
    c976:	9a 9b a6 ad c1 ba ae bd bf b4 9a 8e 9a a4 97 89     ................
    c986:	99 96 b0 c2 b5 b8 ba cb d2 ad ab a6 89 a5 7c 73     ..............|s
    c996:	4e 50 77 5c 5f 4c 66 75 68 6a 60 5a 6d 81 6e 69     NPw\_Lfuhj`Zm.ni
    c9a6:	72 65 74 6c 62 4a 35 53 60 54 49 49 60 75 6e 7f     retlbJ5S`TII`un.
    c9b6:	7c 70 72 7d 7f 7a 6e 72 8c 82 80 7e 63 7c 97 83     |pr}.znr...~c|..
    c9c6:	7b 70 81 7d 89 9a 7b 83 9c ae a6 a1 a3 b3 a8 a8     {p.}..{.........
    c9d6:	a4 71 87 98 a7 86 87 9d b0 b5 9d a3 8b 94 ae a1     .q..............
    c9e6:	ac 92 91 9c 8c 92 6e 62 65 7e 65 3c 37 58 64 62     ......nbe~e<7Xdb
    c9f6:	6b 77 5b 69 77 7b 71 53 6e 6b 64 59 43 43 5e 6b     kw[iw{qSnkdYCC^k
    ca06:	74 4c 5f 69 73 6e 6e 8c 7b 84 8a 98 8d 8d 9a 92     tL_isnn.{.......
    ca16:	8d 8c 7b 74 83 9b 90 74 82 93 98 90 a1 a3 88 8c     ..{t...t........
    ca26:	95 98 84 85 99 8d a3 91 90 9b 99 ae 93 72 78 94     .............rx.
    ca36:	81 83 8b 8c 89 8d 94 86 7a 85 93 89 81 74 70 71     ........z....tpq
    ca46:	7d 82 6f 57 77 6f 64 52 58 5d 5b 69 71 6e 64 78     }.oWwodRX][iqndx
    ca56:	8d 97 7b 73 65 62 66 56 57 41 5a 65 61 74 76 7c     ..{sebfVWAZeatv|
    ca66:	6b 92 92 8e 93 96 a7 95 9a 9b 92 8d 87 85 6a 5f     k.............j_
    ca76:	77 76 83 85 9c 96 91 b4 a1 b0 b2 ab ab 8a 7d 7b     wv............}{
    ca86:	71 78 74 6e 6c 6c 78 80 7d 85 97 83 8f a0 92 9d     qxtnllx.}.......
    ca96:	86 a0 9b 85 98 86 8b 6c 71 70 6d 6c 6d 78 68 8a     .......lqpmlmxh.
    caa6:	8d 82 91 8e 8c 78 63 76 68 68 72 6c 64 5d 61 60     .....xcvhhrld]a`
    cab6:	54 55 5e 57 5c 6f 73 76 73 84 90 84 84 8b 81 7e     TU^W\osvs......~
    cac6:	7f 6f 64 5d 73 72 63 76 74 77 8a 9d a5 8e 88 90     .od]srcvtw......
    cad6:	95 9f a3 a3 95 9c 9f 84 7c 69 72 74 54 65 6c 6c     ........|irtTell
    cae6:	8d 96 9f 92 97 a0 a5 a4 9c 96 8b 98 96 80 70 6f     ..............po
    caf6:	77 7d 82 87 79 8b 9e a8 9b 8d a4 a0 a7 a6 94 82     w}..y...........
    cb06:	7e 8a 72 5f 57 58 59 5d 74 63 67 87 90 8c 7b 77     ~.r_WXY]tcg...{w
    cb16:	76 7b 7c 6a 69 66 70 7c 6e 6c 6d 6a 76 73 73 6c     v{|jifp|nlmjvssl
    cb26:	5f 7c 91 80 6f 77 7e 81 79 77 6f 79 7e 7f 66 68     _|..ow~.ywoy~.fh
    cb36:	7b 68 68 73 7a 6d 6e 83 93 71 73 76 7e 90 89 85     {hhszmn..qsv~...
    cb46:	8d 95 99 90 88 88 82 7a 70 72 83 81 83 9b 97 8e     .......zpr......
    cb56:	8d 93 98 a0 98 a0 96 91 ac 98 93 95 87 7b 6a 6f     .............{jo
    cb66:	7d 73 7f 89 74 6f 81 8d 8d 8a 9f a6 98 a1 9a 8f     }s..to..........
    cb76:	7c 79 6a 66 5c 6f 7a 72 8a 7e 7b 70 7f 8d 7a 71     |yjf\ozr.~{p..zq
    cb86:	72 7c 70 6f 81 79 6e 66 6c 57 55 72 69 6f 72 6c     r|po.ynflWUriorl
    cb96:	66 5c 74 7d 6b 80 87 89 7f 8f a7 88 7c 85 74 61     f\t}k.......|.ta
    cba6:	6e 85 74 71 6b 70 60 5b 7e 7f 83 97 ac a7 92 a1     n.tqkp`[~.......
    cbb6:	b7 90 7c 7b 5d 45 4e 6b 6f 6b 71 88 7a 8c b6 a5     ..|{]ENkokq.z...
    cbc6:	a0 9f b6 9c 88 ae a5 89 7c 84 5d 64 7f 86 7d 77     ........|.]d..}w
    cbd6:	84 7d 73 8d a8 9d a5 ab ae 96 9f b1 91 73 6d 5d     .}s..........sm]
    cbe6:	4d 5d 6e 78 6b 65 7f 82 72 88 8d 84 8b 89 85 7a     M]nxke..r......z
    cbf6:	88 9f 83 6d 68 57 53 54 68 6f 5b 66 83 82 81 8c     ...mhWSTho[f....
    cc06:	92 81 8d 89 7a 79 85 8d 60 6a 68 64 6b 6b 84 7b     ....zy..`jhdkk.{
    cc16:	76 78 6a 70 74 86 7c 89 94 91 8b 89 a2 8d 7b 79     vxjpt.|.......{y
    cc26:	5e 5b 53 63 6d 6b 79 7c 92 84 92 a1 9b a0 97 9b     ^[Scmky|........
    cc36:	87 98 a4 87 7e 6b 71 62 63 80 7a 78 77 89 88 8d     ....~kqbc.zxw...
    cc46:	9b 9e a2 9f 91 7c 81 8e 75 6d 6c 67 70 69 86 91     .....|..umlgpi..
    cc56:	94 95 88 8e 8c 8c 84 86 7e 7b 75 75 8c 88 8b 86     ........~{uu....
    cc66:	76 82 75 68 65 70 75 70 75 7f 93 80 87 7e 6c 78     v.uhepupu....~lx
    cc76:	74 7c 72 67 7d 75 6f 73 89 93 89 7d 7b 7f 7d 8e     t|rg}uos...}{.}.
    cc86:	7c 6d 7b 77 77 6b 6c 8e 7d 8d 94 89 8c 81 87 6e     |m{wwkl.}......n
    cc96:	80 69 64 86 8c 93 5e 57 75 66 5e 6b 99 8c 70 8a     .id...^Wuf^k..p.
    cca6:	9a 8e 91 95 76 6f 6e 6d 6d 6c 76 77 7a 8e aa 9f     ....vonmmlvwz...
    ccb6:	9d aa af 90 81 8b 7e 7e 7d 7d 6a 68 7d 77 7e 8c     ......~~}}jh}w~.
    ccc6:	9b 9a 94 92 8f 6b 78 8c 7a 72 71 73 72 8a 87 7b     .....kx.zrqsr..{
    ccd6:	63 5b 63 4d 5b 5d 62 6d 70 6b 5a 70 91 92 89 7a     c[cM[]bmpkZp...z
    cce6:	73 7d 95 b6 af 9e 7e 66 69 62 81 86 8d 9b 82 82     s}....~fib......
    ccf6:	90 a2 b5 b1 b0 a7 9a ab ab a5 93 83 6d 5f 76 88     ............m_v.
    cd06:	9a 7b 81 77 55 5f 76 7f 70 6b 7a 70 64 7f 8e 84     .{.wU_v.pkzpd...
    cd16:	72 65 4e 3e 5b 6a 58 60 83 7e 66 86 a4 9b 93 9a     reN>[jX`.~f.....
    cd26:	a8 7f 76 86 7b 77 63 55 42 4c 7d 72 6b 8a 8d 81     ..v.{wcUBL}rk...
    cd36:	71 90 98 97 96 8b 87 6a 73 78 79 7f 64 57 55 7b     q......jsxy.dWU{
    cd46:	99 8e a0 a2 99 88 7c 7c 7a 7c 72 67 60 5e 7d 92     ......||z|rg`^}.
    cd56:	a7 9e 7f 88 77 8c 91 90 93 6e 75 75 79 8f 9e a8     ....w....nuuy...
    cd66:	9b 96 a2 94 a4 bc bd 99 89 93 84 7b 82 9b 94 7e     ...........{...~
    cd76:	95 97 90 97 88 78 64 70 74 63 80 81 68 5a 55 5d     .....xdptc..hZU]
    cd86:	48 5e 73 72 6f 70 80 80 84 8f 7d 6c 70 73 77 71     H^srop....}lpswq
    cd96:	8b 80 84 86 7b 7b 5f 78 7c 6d 6c 66 7b 78 6a 76     ....{{_x|mlf{xjv
    cda6:	65 64 6a 7a 87 8b 93 86 87 7e 76 6a 5a 7e 76 73     edjz.....~vjZ~vs
    cdb6:	7c 79 95 86 84 81 6a 77 75 7a 8c 89 8c 84 83 80     |y....jwuz......
    cdc6:	7a 78 79 7d 68 6f 68 7b 99 82 85 7d 79 87 8a ad     zxy}hoh{...}y...
    cdd6:	b5 b1 bf b5 a7 a2 96 8c 8c 80 7a 7c 87 9b 94 87     ..........z|....
    cde6:	89 81 8d a3 b1 c1 ad 9b 92 6f 6d 61 5c 5d 4f 52     .........oma\]OR
    cdf6:	51 57 6b 7e 7d 71 6c 74 77 7c 91 96 89 87 84 75     QWk~}qltw|.....u
    ce06:	77 75 72 69 60 6e 64 74 8d 8b 8b 79 74 6d 77 8a     wuri`ndt...ytmw.
    ce16:	92 89 8a 87 74 70 75 77 6c 5b 60 63 5d 72 7f 7a     ....tpuwl[`c]r.z
    ce26:	75 68 71 80 8e b0 ac a1 91 82 72 63 71 7e 6b 5c     uhq.......rcq~k\
    ce36:	63 5a 68 7f 89 8b 85 79 75 7d 95 a8 a0 a1 9c 8e     cZh....yu}......
    ce46:	8b 83 93 8d 7e 76 6c 68 7b 91 94 99 92 8c 8c 90     ....~vlh{.......
    ce56:	b2 b6 ad a1 98 97 87 8b 92 89 79 69 64 62 6f 76     ..........yidbov
    ce66:	75 69 5f 6a 6a 7e 96 98 9d 7a 6f 6d 68 71 6c 75     ui_jj~...zomhqlu
    ce76:	67 57 62 68 85 94 93 8b 7c 80 74 89 89 91 92 74     gWbh....|.t....t
    ce86:	74 68 73 7d 78 7f 68 64 63 60 7d 8e 93 89 80 7e     ths}x.hdc`}....~
    ce96:	83 91 9e a5 98 80 79 77 7b 82 88 8a 6f 65 67 54     ......yw{...oegT
    cea6:	5f 68 76 6b 56 63 69 7d 98 a5 a4 92 8d 90 84 8e     _hvkVci}........
    ceb6:	8c 80 6d 67 68 62 83 8d 97 9c 88 8f 8e a7 b1 b1     ..mghb..........
    cec6:	bb 9c a0 9f 8f 92 99 9b 80 76 6e 5e 65 72 7d 71     .........vn^er}q
    ced6:	67 70 6a 78 8d 8f 85 6d 74 62 59 6b 71 76 6c 61     gpjx...mtbYkqvla
    cee6:	59 62 75 89 98 94 84 7e 81 8c 9b a8 a7 90 8c 7d     Ybu....~.......}
    cef6:	70 78 74 80 69 59 53 4e 68 7d 90 86 82 84 80 92     pxt.iYSNh}......
    cf06:	9c a3 9c 8d 84 6f 72 77 74 7d 70 64 59 5c 67 6a     .....orwt}pdY\gj
    cf16:	7f 77 73 7c 82 90 92 a1 ad a1 99 84 7b 74 77 79     .ws|........{twy
    cf26:	6a 5c 56 5f 69 7b 92 8b 88 8d 94 a4 ae b7 b6 a8     j\V_i{..........
    cf36:	9e 8f 87 85 83 7f 6e 62 62 68 73 84 94 92 92 8b     ......nbbhs.....
    cf46:	8b 97 9b 9c 98 80 72 64 5b 59 57 60 52 4f 5e 6a     ......rd[YW`RO^j
    cf56:	76 7e 87 88 8b 91 91 9a 9d 9d 96 8c 8a 77 71 65     v~...........wqe
    cf66:	5b 64 5d 5f 67 6b 78 76 7f 88 8a 90 91 95 9d a2     [d]_gkxv........
    cf76:	9c 91 87 80 77 69 5e 67 5e 60 69 6d 78 77 80 87     ....wi^g^`imxw..
    cf86:	8c 95 93 99 9e 9c 99 8d 79 6c 69 5c 50 57 5b 5c     ........yli\PW[\
    cf96:	67 6d 76 75 7c 86 88 91 98 9c a4 aa a5 a6 96 8f     gmvu|...........
    cfa6:	87 79 77 68 73 76 83 85 7d 89 86 92 9a 9c a8 a3     .ywhsv..}.......
    cfb6:	a6 9c 98 93 7e 71 67 59 4a 46 53 54 5f 74 5b 60     ....~qgYJFST_t[`
    cfc6:	6d 7c 80 7e 99 8f 93 9e a0 a5 95 8e 80 71 73 60     m|.~.........qs`
    cfd6:	68 77 72 76 72 6c 6e 7c 82 78 89 98 94 99 a2 a8     hwrvrln|.x......
    cfe6:	9d 90 90 7a 66 68 59 63 5c 56 5b 57 68 72 79 81     ...zfhYc\V[Whry.
    cff6:	94 a3 9f ab b2 9f 9e 95 8a 72 5c 5f 54 54 5e 54     .........r\_TT^T
    d006:	60 61 65 74 74 82 92 99 a0 9c ac ad 95 aa a1 88     `aett...........
    d016:	73 74 83 66 63 6b 67 6b 79 7f 79 85 9a 97 9e a6     st.fckgky.y.....
    d026:	99 a1 94 98 aa 8f 8e 80 85 6a 46 50 4d 49 52 5c     .........jFPMIR\
    d036:	57 61 70 8b 90 9f b0 89 8f 9b 94 91 9f 9d 8b 77     Wap............w
    d046:	68 54 51 65 5c 62 5d 5b 6b 7d 92 99 a7 a3 9a 94     hTQe\b][k}......
    d056:	96 8a 8b ac 9d 7a 70 6b 53 57 6a 69 69 74 88 81     .....zpkSWjiit..
    d066:	94 95 9a a5 9b 96 87 73 77 81 87 8f 88 7f 78 6a     .......sw.....xj
    d076:	63 68 62 63 6c 6e 6f 6e 76 79 80 83 79 76 70 74     chbclnonvy..yvpt
    d086:	7c 89 a2 a1 9f 9a 8c 84 6c 6a 6c 6a 6a 69 70 65     |.......ljljjipe
    d096:	75 9e a1 ac b5 9a 8d 9b 9b a5 b1 98 91 82 6c 5a     u.............lZ
    d0a6:	4e 5d 62 5b 57 48 5d 7a 8e a2 7c 90 98 78 82 a1     N]b[WH]z..|..x..
    d0b6:	91 a0 a4 7d 86 90 88 82 7c 6b 65 59 4e 52 77 7b     ...}....|keYNRw{
    d0c6:	85 86 7b 74 6b 6b 8a 97 8d 98 93 82 7a 95 99 8e     ..{tkk......z...
    d0d6:	7e 58 50 4f 47 5b 70 84 92 96 86 85 8a a3 ba ae     ~XPOG[p.........
    d0e6:	9f 8e 91 9b 99 a4 98 87 7b 4e 53 4c 56 66 7a a4     ........{NSLVfz.
    d0f6:	92 86 8b 8e 93 b6 b8 82 7e 5f 57 72 6a 72 74 67     ........~_Wrjrtg
    d106:	61 50 47 44 61 93 94 99 7f 76 88 85 9d b4 b3 88     aPGDa....v......
    d116:	88 72 52 85 84 74 81 87 7b 68 63 65 78 8a 74 7a     .rR..t..{hcex.tz
    d126:	73 5f 86 7a 7d 92 87 7f 95 8e 73 8d 95 8e 98 76     s_.z}.....s....v
    d136:	63 54 4c 5c 71 8a 87 83 7a 65 84 8d 7a 9f 91 8e     cTL\q...ze..z...
    d146:	99 86 6c 8e 9c 82 9f 8e 76 68 72 84 98 a9 9a 96     ..l.....vhr.....
    d156:	7f 6f 8c 82 84 ab 89 81 90 76 6b 75 9e 8c a9 a5     .o.......vku....
    d166:	8d 96 8a 9e ab b5 a4 9a 83 66 75 72 6a 8e 82 7a     .........furj..z
    d176:	96 8b 73 77 7b 67 75 73 4e 4e 41 3e 49 69 58 47     ..sw{gusNNA>IiXG
    d186:	4a 4e 61 51 52 77 78 73 90 8d 84 78 8a 74 87 a5     JNaQRwxs...x.t..
    d196:	71 73 67 62 67 7b 7e 6f 82 7c 88 99 83 9a 90 80     qsgbg{~o.|......
    d1a6:	aa 9b 8a 6e 78 81 80 9c 73 72 78 6b 87 91 86 5c     ...nx...srxk...\
    d1b6:	5f 69 79 94 8a 9e a2 aa b5 a6 97 7f 7d 8e 8a 9f     _iy.........}...
    d1c6:	7f 5a 6f 67 7a 7f 76 6e 67 7e 93 a1 95 af b4 b2     .Zogz.vng~......
    d1d6:	b6 9a 81 70 75 98 a5 a8 93 67 65 6e 75 8d 88 7f     ...pu....genu...
    d1e6:	76 7d 90 8e 8f 95 ad b5 ae 96 71 61 50 73 95 97     v}........qaPs..
    d1f6:	9a 7e 7a 66 59 5e 61 64 56 59 5f 4e 4f 4e 6e 84     .~zfY^adVY_NONn.
    d206:	8d 8c 6c 5e 46 4b 6c 75 86 7c 6d 72 66 6f 78 75     ..l^FKlu.|mrfoxu
    d216:	6e 79 87 8e 8b 6f 7a 84 89 a5 83 70 62 6b 91 93     ny...oz....pbk..
    d226:	9d 9b 7f 72 70 74 83 7a 69 6c 77 94 a5 92 8a 9c     ...rpt.zilw.....
    d236:	8f 85 7a 69 6b 67 96 b2 aa 94 6f 61 72 80 7b 77     ..zikg....oar.{w
    d246:	62 71 84 92 a5 96 90 9d b0 bd b3 93 73 6a 7a 9b     bq..........sjz.
    d256:	a3 a2 83 60 5f 5f 70 91 93 81 8a 81 80 7a 79 a1     ...`__p......zy.
    d266:	b6 ba b1 96 76 6d 84 aa b1 b0 9a 6a 65 72 6a 6f     ....vm.....jerjo
    d276:	75 62 73 7a 7e 81 5c 54 6a 76 88 85 6e 59 57 6f     ubsz~.\Tjv..nYWo
    d286:	75 8d 89 6d 60 4e 3c 40 58 5a 6f 87 88 91 8b 6f     u..m`N<@XZo....o
    d296:	84 95 93 95 70 5c 68 86 97 9b 8b 67 5f 6b 6c 74     ....p\h....g_klt
    d2a6:	7e 6e 67 70 82 91 91 78 84 93 89 93 83 72 75 85     ~ngp...x.....ru.
    d2b6:	95 90 8b 76 67 71 79 80 87 84 80 81 80 79 83 77     ...vgqy......y.w
    d2c6:	7a a0 a2 9c 94 6d 65 85 a0 b2 9e 7c 65 70 7a 7e     z....me....|epz~
    d2d6:	97 83 8d 87 7e 92 92 95 93 aa a8 9f 86 5b 59 77     ....~........[Yw
    d2e6:	92 b0 a9 8b 77 71 71 73 87 91 96 9a 95 93 91 75     ....wqqs.......u
    d2f6:	71 95 9e 9a 89 55 41 4f 68 82 86 7a 5d 56 58 5e     q....UAOh..z]VX^
    d306:	64 5e 69 70 77 82 78 4f 4a 62 80 87 7e 73 63 7c     d^ipw.xOJb..~sc|
    d316:	88 99 96 7d 71 82 90 87 87 5f 67 70 7c 89 9c 8f     ...}q...._gp|...
    d326:	69 81 81 77 79 72 6b 72 84 8b 88 7a 69 81 94 98     i..wyrkr...zi...
    d336:	95 72 6f 77 76 81 92 87 81 96 ad 96 73 69 43 5b     .rowv.......siC[
    d346:	7c 9a ad 8d 77 72 7e 92 ae 9a 93 86 77 78 89 8b     |...wr~.....wx..
    d356:	7b 9b a9 99 7e 73 60 72 a0 a9 a5 90 70 67 86 85     {...~s`r....pg..
    d366:	8b 7e 78 9a 94 a4 b1 8d 6b 7a a7 b3 b1 9d 63 56     .~x.....kz....cV
    d376:	6f 7c 95 9d 81 76 6b 51 4b 3d 46 6b 7e 86 84 69     o|...vkQK=Fk~..i
    d386:	46 5d 8e 8c 83 70 60 61 77 8b 79 81 6d 66 8f 8d     F]...p`aw.y.mf..
    d396:	89 72 48 4f 5a 6d 92 a0 82 84 94 89 78 79 7a 89     .rHOZm......xyz.
    d3a6:	a4 a0 9b 7e 69 64 8b 8b 85 76 56 72 7f 7c 75 7d     ...~id...vVr.|u}
    d3b6:	74 77 9c a6 8f 82 68 60 73 95 b4 a0 8c 69 72 6e     tw....h`s....irn
    d3c6:	5a 73 5e 84 93 7e 80 7e 6f 80 a3 b1 ae 93 7b 6f     Zs^..~.~o.....{o
    d3d6:	7a 8e a1 97 84 6d 7f 81 66 6e 59 76 8c 89 9b 98     z....m..fnYv....
    d3e6:	93 88 a1 b0 9d a1 89 7f 8c 9e aa 86 76 6d 7d 90     ............vm}.
    d3f6:	75 7c 5d 64 88 7d 8e 92 75 75 78 7f 6d 5d 60 5a     u|]d.}..uux.m]`Z
    d406:	62 6c 76 6c 5e 55 5b 7a 60 63 58 53 88 87 90 90     blvl^U[z`cXS....
    d416:	84 88 95 a3 9c 86 75 76 7d 90 9c 8f 77 67 69 7f     ......uv}...wgi.
    d426:	78 70 75 6a 87 84 77 7d 70 7f 98 98 97 6b 63 6f     xpuj..w}p....kco
    d436:	6d 8a 9a 9d 8e 72 6b 88 88 77 70 6e 8a 93 8d 8c     m....rk..wpn....
    d446:	76 7e 88 89 8e 6a 5b 79 75 8d 9e 92 85 7b 83 91     v~...j[yu....{..
    d456:	a0 71 66 62 76 88 91 97 81 8d 89 8b 8d 6e 6b 8a     .qfbv........nk.
    d466:	8c 96 af a2 91 83 7c 8c 8d 77 62 74 8f 94 9c 87     ......|..wbt....
    d476:	71 8b 8d 99 95 6e 50 56 6e 73 8a 94 80 6f 65 63     q....nPVns...oec
    d486:	5f 50 4f 6a 78 73 88 78 6e 82 87 8e 86 6e 5e 66     _POjxs.xn....n^f
    d496:	8d 91 8d 8c 85 89 8d 8b 89 74 56 5c 64 70 84 8f     .........tV\dp..
    d4a6:	8e a2 9a 94 86 6c 71 7e a5 a6 97 9a 83 7c 77 67     .....lq~.....|wg
    d4b6:	59 4b 4a 63 72 77 86 7d 82 94 97 9a 8d 7e 67 56     YKJcrw.}.....~gV
    d4c6:	75 84 7d a0 a9 a7 a7 7f 5e 40 4e 7f 98 a6 a6 8e     u.}.....^@N.....
    d4d6:	8e 8c 8c 8d 7b 76 6a 54 6e 85 74 82 8e 96 a0 8f     ....{vjTn.t.....
    d4e6:	81 67 73 85 7b 95 86 78 8b 9c aa 9e 6e 6a 6c 65     .gs.{..x....njle
    d4f6:	88 94 93 94 97 86 8a 72 5b 4a 53 7c 7a 95 8a 6d     .......r[JS|z..m
    d506:	7e 86 97 91 61 67 5f 5c 63 63 6d 7a a4 93 9c 89     ~...ag_\ccmz....
    d516:	61 51 53 80 86 a8 a0 82 9d 90 a8 8f 5d 5f 59 66     aQS.........]_Yf
    d526:	75 7f 7b 7c 9a a5 b4 a1 73 5b 63 7c 74 7f 7f 70     u.{|....s[c|t..p
    d536:	7e 7f 87 84 62 69 6a 81 8b 8a 8e 85 b3 b3 b3 93     ~...bij.........
    d546:	51 37 4d 66 79 83 77 79 7f 8f 8f 80 6c 68 69 7e     Q7Mfy.wy....lhi~
    d556:	85 89 95 88 a3 b0 ae a6 6f 5a 66 6a 72 70 69 78     ........oZfjrpix
    d566:	9c b2 9b 77 68 58 67 84 88 9a 8d 86 9d ae ae 9b     ...whXg.........
    d576:	64 5f 6b 6a 7a 6c 6d 7c 8a 92 87 6c 6c 53 69 92     d_kjzlm|...llSi.
    d586:	81 7f 75 79 9e b6 a9 89 55 53 54 52 7c 7e 85 92     ..uy....USTR|~..
    d596:	9a a8 92 72 66 4f 77 91 86 7f 77 86 98 a3 9e 82     ...rfOw...w.....
    d5a6:	59 6c 6b 70 95 72 6d 7b 95 b5 a1 8f 70 51 6a 75     Ylkp.rm{....pQju
    d5b6:	72 86 7d 84 94 9d 9a 6f 55 67 6a 71 91 82 73 83     r.}....oUgjq..s.
    d5c6:	99 a3 80 76 64 4e 80 8c 8b 7c 75 74 86 a3 a1 80     ...vdN...|ut....
    d5d6:	63 6d 60 6d 81 76 78 8e a8 b4 8c 7e 68 4b 6b 72     cm`m.vx....~hKkr
    d5e6:	78 84 85 89 9d a5 a5 71 5c 7a 78 96 a1 85 79 76     x......q\zx...yv
    d5f6:	91 9b 81 87 71 63 6f 65 6c 6a 71 86 a2 ae 9f 6c     ....qcoeljq....l
    d606:	51 6a 6c 81 87 86 94 91 a1 9f 75 6c 4f 4f 78 84     Qjl.......ulOOx.
    d616:	91 7d 6d 82 8d 97 9c 7f 6d 79 6f 74 7f 7f 96 9f     .}m.....myot....
    d626:	ae b1 81 6f 59 55 72 74 74 65 61 84 a2 a7 a3 70     ...oYUrttea....p
    d636:	59 70 75 90 97 97 9d 87 93 8b 74 7b 53 60 71 73     Ypu.......t{S`qs
    d646:	75 69 73 8d aa a2 9d 6e 5f 73 6d 82 76 7b 85 8c     uis....n_sm.v{..
    d656:	ab a3 7d 61 43 4f 6e 81 87 80 78 88 a3 9e ad 77     ..}aCOn...x....w
    d666:	61 70 62 7f 77 8d 96 97 b1 98 73 5b 50 67 77 79     apb.w.....s[Pgwy
    d676:	76 68 62 85 a9 b1 b8 7c 71 79 7a 8b 84 89 7c 8e     vhb....|qyz...|.
    d686:	a6 91 70 52 3e 4b 69 72 82 8b 83 99 a4 9e 96 6d     ..pR>Kir.......m
    d696:	6c 79 81 8e 7e 80 7a 9c ac 98 7d 5e 52 57 73 73     ly..~.z...}^RWss
    d6a6:	77 71 74 94 b2 be a5 7b 65 64 74 75 83 94 89 a4     wqt....{edtu....
    d6b6:	a6 8d 70 52 51 5f 7b 79 74 72 7a 91 a1 ab 94 7f     ..pRQ_{ytrz.....
    d6c6:	6d 70 84 76 7b 78 72 96 a1 96 86 5e 50 52 6f 6c     mp.v{xr....^PRol
    d6d6:	72 83 8a a2 a7 a7 7e 6c 62 63 86 7b 8e 8f 7f 90     r.....~lbc.{....
    d6e6:	97 8a 80 66 56 66 72 6d 6d 75 87 a7 ae b7 8d 7d     ...fVfrmmu.....}
    d6f6:	64 56 7b 6e 87 88 79 8b 9a 96 87 6d 54 62 6b 67     dV{n..y....mTbkg
    d706:	71 7c 8f a5 a5 ac 90 79 76 6b 86 78 85 82 6b 79     q|.....yvk.x..ky
    d716:	8b 95 8c 7b 5d 67 6a 71 71 6e 8b a8 a1 a5 92 78     ...{]gjqqn.....x
    d726:	72 6a 75 78 8d 81 7c 87 93 a2 8c 79 5f 65 62 65     rjux..|....y_ebe
    d736:	7e 6b 91 a9 99 9b 81 73 73 81 7e 76 88 71 74 84     ~k.....ss.~v.qt.
    d746:	88 a3 92 7b 67 5f 54 54 71 6b 91 ba a9 a1 89 7b     ...{g_TTqk.....{
    d756:	65 72 7c 67 7f 76 7c 8e 89 8a 8d 81 81 86 60 5a     er|g.v|.......`Z
    d766:	73 61 79 98 a1 98 83 85 6f 7d 85 61 68 73 88 9b     say.....o}.ahs..
    d776:	a4 91 83 83 71 83 6e 60 81 72 83 92 a0 99 72 80     ....q.n`.r....r.
    d786:	78 80 8b 6b 5e 5f 80 8c 91 90 82 87 76 7f 7c 60     x..k^_......v.|`
    d796:	6e 6c 8a 98 a9 a8 6d 75 7a 7b 8a 7f 73 6d 79 8a     nl....muz{..smy.
    d7a6:	90 94 81 76 6f 7d 8e 7c 6c 5f 79 8b a4 ae 80 77     ...vo}.|l_y....w
    d7b6:	75 75 84 79 76 69 70 82 93 92 83 6f 60 85 93 89     uu.yvip....o`...
    d7c6:	7b 60 72 8f 9b 9a 79 75 6d 71 8e 89 7f 72 5f 73     {`r...yumq...r_s
    d7d6:	89 9a 92 7e 64 76 8f 7e 84 6f 68 80 94 9f 80 7e     ...~dv.~.oh....~
    d7e6:	70 61 86 8f 88 82 71 70 91 90 8b 82 68 72 8f 8c     pa....qp....hr..
    d7f6:	8c 81 5d 6b 80 99 89 79 77 60 78 90 7b 81 7f 6c     ..]k...yw`x.{..l
    d806:	89 9a 93 92 73 61 79 8a 96 97 6e 6a 83 92 90 6f     ....say...nj...o
    d816:	6f 65 69 91 7f 77 7f 63 75 8f 8e 91 81 68 7b 98     oei..w.cu....h{.
    d826:	94 96 78 69 8a 8d 93 77 69 76 69 84 88 7d 87 6c     ..xi...wivi..}.l
    d836:	6d 94 93 8c 82 69 72 8f 89 8a 86 67 76 79 89 8e     m....ir....gvy..
    d846:	77 7d 6e 88 94 7e 7a 75 74 87 8c 78 7f 6e 66 88     w}n..~zut..x.nf.
    d856:	86 91 8c 6c 69 81 8c 99 8a 77 72 6d 83 85 79 87     ...li....wrm..y.
    d866:	77 77 88 7b 7d 75 67 7a 88 8f 97 87 70 86 96 8d     ww.{}ugz....p...
    d876:	8b 69 6b 7b 80 92 73 7b 84 67 8e 97 8f 83 66 66     .ik{..s{.g....ff
    d886:	77 88 82 84 6e 76 8e 87 8f 85 6b 72 72 80 85 73     w...nv....krr..s
    d896:	85 70 74 8d 80 85 82 7f 89 92 83 87 7d 63 80 92     .pt.........}c..
    d8a6:	8f 9f 7b 5a 71 66 7b 71 74 82 6d 83 7e 7a 8c 83     ..{Zqf{qt.m.~z..
    d8b6:	88 9a 9d a4 96 76 78 8f 95 95 9c 5c 52 61 52 74     .....vx....\RaRt
    d8c6:	79 8a 7c 7c 87 7e 82 80 74 7a 87 88 91 7b 83 81     y.||.~..tz...{..
    d8d6:	90 96 8c 89 52 65 61 5b 7c 77 7d 81 96 99 8e 85     ....Rea[|w}.....
    d8e6:	7c 71 8d 8f 8f 86 87 8a 87 90 86 91 89 62 76 7e     |q...........bv~
    d8f6:	70 6c 6f 75 6d 8f 84 74 95 8b 8c 90 8f 6d 76 6e     ploum..t.....mvn
    d906:	6a ab 8f 98 99 7b 5a 67 7f 87 66 7b 76 63 70 60     j....{Zg..f{vcp`
    d916:	74 77 84 75 82 5e 61 73 6f 67 75 86 6f 72 88 7e     tw.u.^asogu.or.~
    d926:	7e 68 6d a5 80 aa 9c 74 91 a8 d0 9a a5 9a 7d 8d     ~hm....t......}.
    d936:	8c 86 89 89 8b a7 9d 8f 6d 74 5f 60 72 70 83 6d     ........mt_`rp.m
    d946:	79 95 81 7d 6d 4c 6e 71 78 85 84 7b 74 85 6f 6d     y..}mLnqx..{t.om
    d956:	5d 4d 51 4f 5c 55 5a 69 88 a7 ae b2 a1 77 83 92     ]MQO\UZi.....w..
    d966:	9c b2 a1 ab b4 c0 bf a1 95 67 69 9c 94 9f 99 84     .........gi.....
    d976:	a4 9f a4 a4 7d 65 5d 61 63 62 58 58 68 6e 77 62     ....}e]acbXXhnwb
    d986:	46 33 09 2a 36 2d 4e 58 69 6c 67 67 54 54 5a 64     F3.*6-NXilggTTZd
    d996:	77 82 8d 94 9b a5 b5 b6 a8 a1 84 84 9a 8e 9f af     w...............
    d9a6:	aa bb cb c0 b7 b5 aa a7 a9 ab a7 ac ac b1 bd be     ................
    d9b6:	a3 91 7e 72 88 84 8f 9a 8b 80 83 67 60 69 5c 5b     ..~r.......g`i\[
    d9c6:	52 51 50 4c 52 4f 59 59 3f 45 43 23 33 44 58 66     RQPLROYY?EC#3DXf
    d9d6:	56 65 56 57 67 6c 7c 71 75 84 96 a7 b6 aa 9e a8     VeVWgl|qu.......
    d9e6:	97 97 98 75 74 90 9b b2 b4 af ab aa b3 a4 a8 8f     ...ut...........
    d9f6:	76 99 95 97 a4 8d 80 7e 76 65 70 50 4e 7b 7e 84     v......~vepPN{~.
    da06:	7d 5c 50 65 66 68 63 57 53 63 73 6c 7e 6c 61 84     }\PefhcWScsl~la.
    da16:	72 66 68 40 4b 70 7e 7d 68 5e 63 72 7f 75 6c 69     rfh@Kp~}h^cr.uli
    da26:	77 97 b2 ae a8 95 84 af a6 9e a5 82 95 99 93 9c     w...............
    da36:	73 82 96 b5 cc b0 a4 8d 99 a8 b3 b4 a3 92 97 bb     s...............
    da46:	ac a9 9a 81 98 a2 a5 99 7a 7b 83 81 85 72 64 63     ........z{...rdc
    da56:	69 73 72 6c 51 45 4f 6a 60 57 4c 3a 50 50 4f 3f     isrlQEOj`WL:PPO?
    da66:	2f 40 55 69 69 5e 5b 58 61 6c 7a 7c 73 77 7d 8d     /@Uii^[Xalz|sw}.
    da76:	6f 6d 5f 5c 73 7d 7c 6b 6e 7c 95 a7 aa 9a 9d 93     om_\s}|kn|......
    da86:	9c a5 9a 8a 85 92 a5 b0 97 95 88 8c 98 98 87 74     ...............t
    da96:	8a 9a aa a9 96 84 7a 80 9a a5 98 81 87 87 9d 9f     ......z.........
    daa6:	8b 86 6b 78 79 71 62 4a 58 64 6f 78 70 6a 5c 65     ..kxyqbJXdoxpj\e
    dab6:	79 74 62 57 70 86 a6 91 80 62 53 6d 71 70 59 4d     ytbWp....bSmqpYM
    dac6:	56 66 72 7c 87 85 79 8b 94 88 6e 6a 80 a6 b7 b1     Vfr|..y...nj....
    dad6:	ae 9b a0 b1 ae 97 89 8e 9c b2 b6 9e 9d 90 87 98     ................
    dae6:	a4 9e 84 87 89 a9 a1 99 92 72 7d 86 7c 5f 5d 5f     .........r}.|_]_
    daf6:	68 78 77 6f 75 71 72 79 77 63 52 60 7b 91 8a 83     hxwouqrywcR`{...
    db06:	6c 58 55 61 51 3b 4c 4d 61 78 74 78 76 6e 75 6e     lXUaQ;LMaxtxvnun
    db16:	6b 53 4d 54 70 7e 7c 82 72 6e 6e 79 66 56 64 69     kSMTp~|.rnnyfVdi
    db26:	6e 87 7b 7f 83 86 9b 95 90 79 82 8f ac b4 b8 ab     n.{......y......
    db36:	9e 9a 93 9b 80 7b 93 95 9a a3 92 89 8f 93 96 9d     .....{..........
    db46:	92 8a 98 a0 a9 ac a7 8c 9c 94 8c 8a 5e 5a 6a 71     ............^Zjq
    db56:	7d 8f 89 76 78 86 78 74 5b 4f 69 7c 84 95 92 79     }..vx.xt[Oi|...y
    db66:	9a 96 8b 89 6a 6b 81 86 87 8b 84 6e 85 97 8e 82     ....jk.....n....
    db76:	6a 5a 76 89 82 96 77 6a 84 7d 7e 60 51 54 61 78     jZv...wj.}~`QTax
    db86:	72 78 6d 5e 75 80 7b 6c 60 61 83 8f 90 92 6b 73     rxm^u.{l`a....ks
    db96:	86 8b 89 65 54 62 71 88 87 8c 7d 7d 92 99 97 80     ...eTbq...}}....
    dba6:	63 68 88 87 9f 96 75 93 99 a0 92 68 59 67 84 90     ch....u....hYg..
    dbb6:	8f 7d 6e 78 87 99 94 87 71 85 9e 99 a3 80 6d 8b     .}nx....q.....m.
    dbc6:	98 a4 93 68 5a 61 7a 88 89 7f 75 79 7e 85 73 5c     ...hZaz...uy~.s\
    dbd6:	56 73 87 8d 90 63 5d 75 7d 90 79 5b 51 5f 75 7e     Vs...c]u}.y[Q_u~
    dbe6:	72 55 63 60 70 83 6b 5a 50 66 6d 7a 7a 65 78 92     rUc`p.kZPfmzzex.
    dbf6:	a1 ab 98 7e 7b 88 a4 b2 a4 8b 99 8f 99 a6 93 8e     ...~{...........
    dc06:	95 a9 a8 a2 8d 78 86 98 a1 a6 94 7d 76 80 96 a5     .....x.....}v...
    dc16:	95 86 94 89 8e 8e 7e 7f 85 90 92 88 73 72 7e 91     ......~.....sr~.
    dc26:	9e 95 8c 78 6f 78 83 8f 7e 84 88 81 87 78 70 72     ...xox..~....xpr
    dc36:	7b 7d 7d 65 58 60 71 85 92 8d 82 78 67 63 64 68     {}}eX`q....xgcdh
    dc46:	53 5c 61 63 6e 6d 72 7e 8d 86 8a 6e 5f 6c 6f 82     S\acnmr~...n_lo.
    dc56:	88 7f 79 73 6e 6e 71 76 6e 74 6a 66 6c 6a 6f 7f     ..ysnnqvntjfljo.
    dc66:	8e 88 84 6e 5a 67 71 7b 83 84 7f 79 70 6b 70 74     ...nZgq{...ypkpt
    dc76:	79 7f 7d 74 71 6e 70 7c 89 82 87 76 62 77 88 91     y.}tqnp|...vbw..
    dc86:	a3 aa a9 a8 9d 8a 82 8c 8f 93 90 8e 91 9a a2 a8     ................
    dc96:	af 9f 97 88 6d 7a 8b 8a 97 9d 99 9d 93 7c 71 7b     ....mz.......|q{
    dca6:	7c 80 7d 78 78 81 98 93 a9 9d 87 85 5e 68 78 74     |.}xx.......^hxt
    dcb6:	7a 81 86 87 85 72 68 78 7b 80 7a 6a 6c 78 8a 83     z....rhx{.zjlx..
    dcc6:	98 86 6e 6f 54 52 6a 73 77 85 8e 8a 82 6a 5d 64     ..noTRjsw....j]d
    dcd6:	68 71 6d 65 63 76 84 7e 9b 92 77 84 6b 53 6f 74     hqmecv.~..w.kSot
    dce6:	74 91 9f 99 95 80 77 6d 75 7a 75 74 69 76 83 81     t.....wmuzutiv..
    dcf6:	90 94 86 8e 80 58 67 76 70 82 98 92 8e 84 7d 77     .....Xgvp.....}w
    dd06:	76 75 6e 74 6b 79 84 88 84 7f 84 7c 76 64 5f 76     vuntky.....|vd_v
    dd16:	7b 8a a7 a6 a2 96 97 8a 8f 8c 84 88 85 8a 93 98     {...............
    dd26:	96 88 8a 92 7e 6e 5c 5f 69 78 9e ad a4 9a 8e 86     ....~n\_ix......
    dd36:	7e 77 71 69 5f 68 79 84 8d 87 81 a0 9f 86 78 60     ~wqi_hy.......x`
    dd46:	55 5e 73 8c 8a 8a 7d 79 87 7c 72 68 64 6c 7f 8f     U^s...}y.|rhdl..
    dd56:	91 90 7d 8a a0 82 83 6b 50 5a 6f 88 8d 83 7c 74     ..}....kPZo...|t
    dd66:	77 7d 72 6b 69 6d 72 87 88 93 8f 87 a4 8e 84 7d     w}rkimr........}
    dd76:	58 5c 6b 85 9a a2 a8 a0 8a 81 74 64 4e 57 55 60     X\k.......tdNWU`
    dd86:	80 7e 97 94 a3 a9 9c 9f 7d 5f 5c 62 76 8a 93 92     .~......}_\bv...
    dd96:	81 75 78 6f 56 5b 55 4e 71 75 8b 95 8d a0 9e 9b     .uxoV[UNqu......
    dda6:	8e 6b 66 6c 73 84 96 94 8d 93 94 94 88 82 7b 73     .kfls.........{s
    ddb6:	7e 7f 7f 81 6f 7b 8b 89 8d 7d 6e 80 8b 8f a6 a3     ~...o{...}n.....
    ddc6:	91 89 83 76 71 70 66 68 6b 75 7f 88 86 90 a2 96     ...vqpfhku......
    ddd6:	8d 75 58 61 70 78 8b 91 84 87 88 7c 75 7a 6d 75     .uXapx.....|uzmu
    dde6:	7c 84 89 86 81 83 97 8f 8b 73 57 55 58 58 74 86     |........sWUXXt.
    ddf6:	84 93 9a 93 83 86 79 74 7c 7d 7e 79 71 79 95 92     ......yt|}~yqy..
    de06:	8c 79 69 6c 7e 80 89 96 85 87 89 81 73 71 6d 69     .yil~.......sqmi
    de16:	73 7e 79 7d 80 8a a7 a3 93 7f 6a 6c 77 7c 7e 8b     s~y}......jlw|~.
    de26:	86 82 8b 87 6b 62 61 60 69 7c 7b 80 86 87 a8 a4     ....kba`i|{.....
    de36:	94 80 6c 6a 73 75 71 85 90 99 a6 ab 95 83 7e 7b     ..ljsuq.......~{
    de46:	6c 70 60 5d 6f 71 a2 a3 91 85 72 79 88 8a 83 8b     lp`]oq....ry....
    de56:	8e 91 98 99 82 73 6c 72 64 63 60 5f 73 7e 9f a6     .....slrdc`_s~..
    de66:	91 81 70 6e 7a 7b 7a 7e 85 8e a0 9a 82 74 68 71     ..pnz{z~.....thq
    de76:	72 70 6b 74 75 80 a4 9f 94 78 61 68 6b 68 6a 70     rpktu....xahkhjp
    de86:	7f 8c ab ad 92 8a 7c 72 71 6e 5b 6b 6c 75 a1 9a     ......|rqn[klu..
    de96:	97 8a 6e 7c 88 85 77 78 7b 7b 9a a0 89 82 7e 75     ..n|..wx{{....~u
    dea6:	75 6d 61 69 72 84 a6 a3 97 85 6a 74 80 81 72 74     umair.....jt..rt
    deb6:	7b 84 97 9b 89 72 6c 6d 6d 67 65 69 6d 85 9f 9a     {....rlmmgeim...
    dec6:	95 84 70 71 77 77 6d 7d 83 95 ab b0 af 8e 7d 7e     ..pqwwm}......}~
    ded6:	72 62 55 5b 6a 78 8e 8b 89 85 7a 7f 8b 8b 7e 7d     rbU[jx....z...~}
    dee6:	80 82 94 a2 9b 94 83 7d 75 66 60 61 6b 76 79 76     .......}uf`akvyv
    def6:	80 7c 7a 82 88 82 7f 82 80 90 90 98 97 8d 81 7b     .|z............{
    df06:	78 74 6f 73 6f 72 7c 75 81 82 77 72 72 70 70 7a     xtosor|u..wrrppz
    df16:	85 8f 92 93 a3 9e 97 8f 80 72 64 5e 61 6c 7b 7f     .........rd^al{.
    df26:	85 8e 84 7e 7e 7f 7e 82 82 81 85 83 90 99 97 8b     ...~~.~.........
    df36:	7e 73 69 62 66 6d 72 78 7f 92 98 94 93 8d 87 84     ~sibfmrx........
    df46:	7a 74 76 75 7d 79 80 7d 71 75 76 72 78 7a 77 79     ztvu}y.}quvrxzwy
    df56:	83 8d 8f 8f 86 81 83 7a 7e 86 83 8a 97 92 8d 91     .......z~.......
    df66:	83 74 70 67 61 67 67 70 7f 85 8d 94 97 8d 9c 8e     .tpgaggp........
    df76:	7d 85 78 7f 8f 8b 83 87 80 70 62 5d 52 58 60 68     }.x......pb]RX`h
    df86:	84 86 91 9e a2 9e 95 91 79 75 72 72 7f 7c 79 83     ........yurr.|y.
    df96:	8b 8c 81 80 75 64 66 69 7b 81 81 91 86 84 7c 71     ....udfi{.....|q
    dfa6:	73 72 83 8a 92 9d 92 8f 91 91 89 7e 74 67 5f 6b     sr.........~tg_k
    dfb6:	77 7b 80 8b 91 8b 86 76 75 6e 78 83 86 9c 9b 96     w{.....vunx.....
    dfc6:	95 8a 75 6b 65 5f 60 71 7f 80 8a 96 94 94 8d 81     ..uke_`q........
    dfd6:	77 70 76 6f 6f 79 78 76 7f 8d 86 88 88 75 6a 72     wpvooyxv.....ujr
    dfe6:	7b 87 88 94 90 84 74 6a 6d 6b 81 85 87 92 8f 8b     {.....tjmk......
    dff6:	90 8d 88 80 7c 71 63 6f 72 7a 7c 7e 84 7f 79 7e     ....|qcorz|~..y~
    e006:	7b 7e 84 87 93 97 9c 94 89 88 78 6b 5e 50 4c 5e     {~........xk^PL^
    e016:	6f 7c 87 8b 99 94 91 94 82 7e 82 7c 86 86 81 79     o|.......~.|...y
    e026:	75 80 83 83 7c 76 71 78 80 89 88 85 83 7e 78 74     u...|vqx.....~xt
    e036:	6c 6e 78 83 87 91 90 86 89 8f 8e 8d 84 78 77 7b     lnx..........xw{
    e046:	7f 82 79 6b 77 72 76 79 6d 71 76 8c 92 9c 9b 8b     ..ykwrvymqv.....
    e056:	84 83 7c 75 6d 60 63 70 75 81 84 7e 8d 8b 8c 8c     ..|um`cpu..~....
    e066:	7f 7b 79 89 7f 7b 79 68 6a 7b 7b 83 85 75 81 8e     .{y..{yhj{{..u..
    e076:	8c 93 8e 81 88 87 80 7b 75 6c 6e 86 88 88 8b 78     .......{uln....x
    e086:	7d 89 84 83 87 76 7c 8e 84 7e 77 71 72 79 79 7c     }....v|..~wqryy|
    e096:	7d 75 7d 97 95 97 99 83 87 89 7b 71 72 61 65 79     }u}.......{qraey
    e0a6:	6f 6b 72 74 7c 8b 8f 8c 8d 81 85 91 8c 86 86 71     okrt|..........q
    e0b6:	70 7c 77 73 79 78 7a 8d 86 7c 7c 7c 7b 87 82 7a     p|wsyxz..|||{..z
    e0c6:	81 7c 7b 85 7e 81 8b 7b 7d 8c 80 80 8b 85 80 8d     .|{.~..{}.......
    e0d6:	7f 73 74 68 6f 7c 73 72 7c 79 7a 87 88 89 97 8f     .stho|sr|yz.....
    e0e6:	8a 94 81 79 80 73 6a 75 70 69 75 69 77 88 7f 82     ...y.sjupiuiw...
    e0f6:	92 89 88 8c 88 83 89 83 7f 86 79 7d 89 83 7f 83     ..........y}....
    e106:	83 7f 81 77 78 86 7e 7f 8a 7b 71 75 77 79 80 7d     ...wx.~..{quwy.}
    e116:	7d 7f 80 82 8b 92 83 88 86 7e 7d 6e 6b 73 74 6d     }........~}nkstm
    e126:	78 7c 78 7f 91 8a 91 8b 83 8b 88 7f 6f 93 6a 5b     x|x.........o.j[
    e136:	6f 64 60 55 71 82 8b 7f 77 80 99 ab 9c 85 74 83     od`Uq...w.....t.
    e146:	a6 a8 8c 7d 75 6d 78 89 90 8d 8c 89 83 7d 78 81     ...}umx......}x.
    e156:	89 7e 75 72 68 64 5b 5d 6c 6e 70 72 77 7b 77 7f     .~urhd[]lnprw{w.
    e166:	81 7d 85 72 6d 67 63 74 84 90 8c 92 8c 95 90 72     .}.rmgct.......r
    e176:	7c 91 a7 a1 9a a2 a0 9a 85 76 74 6d 7f 85 84 88     |........vtm....
    e186:	8a 8d 8e a4 97 99 90 8b 8e 86 84 82 8d 88 79 7d     ..............y}
    e196:	82 78 74 71 71 72 79 76 7e 83 70 6a 6e 75 79 7d     .xtqqryv~.pjnuy}
    e1a6:	71 63 61 61 60 6c 65 69 74 70 6a 6a 68 6d 77 6f     qcaa`leitpjjhmwo
    e1b6:	6d 7a 76 6f 77 66 62 70 72 76 6e 59 50 5e 6c 6a     mzvowfbprvnYP^lj
    e1c6:	7b 79 6b 76 86 91 a3 9c 98 a8 ae b3 b2 a9 95 a6     {ykv............
    e1d6:	ad b5 b0 9c 94 92 9a 93 94 8d 77 75 7e 77 7b 7e     ..........wu~w{~
    e1e6:	80 8c 8f 87 80 79 68 70 78 77 7a 76 77 7e 8f 8a     .....yhpxwzvw~..
    e1f6:	86 85 7c 72 78 73 74 7f 7e 88 92 8c 86 7a 6c 68     ..|rxst.~....zlh
    e206:	75 7f 8c 90 8a 92 a2 a1 89 7c 69 5d 68 78 75 78     u........|i]hxux
    e216:	79 72 7b 7c 75 76 74 7d 81 7f 82 78 74 7b 83 80     yr{|uvt}...xt{..
    e226:	76 6f 68 64 65 71 69 64 72 6f 76 7a 76 77 7c 7c     vohdeqidrovzvw||
    e236:	77 73 72 70 68 77 72 72 75 71 77 77 77 7f 80 74     wsrphwrruqwww..t
    e246:	7b 83 83 85 7e 72 75 79 7a 7f 78 71 69 7c 81 81     {...~ruyz.xqi|..
    e256:	91 89 8e 94 96 a2 a8 a2 a2 aa a8 ad a9 a6 ac b3     ................
    e266:	b9 b5 ae a8 a3 a7 a0 91 8b 7e 7d 7d 77 7b 7c 79     .........~}}w{|y
    e276:	7a 7c 7e 83 7e 7a 7a 80 7e 73 72 75 75 7c 7c 72     z|~.~zz.~sruu||r
    e286:	71 71 77 77 70 6d 68 6c 6e 75 80 7f 7e 76 71 6d     qqwwpmhlnu..~vqm
    e296:	73 6d 75 82 81 88 87 7a 70 70 6e 74 71 72 74 77     smu....zppntqrtw
    e2a6:	6e 66 6c 6b 68 6a 69 6c 7d 76 71 7a 77 7b 83 7b     nflkhjil}vqzw{.{
    e2b6:	79 78 78 6f 70 72 72 77 6a 6f 6f 6f 77 82 81 85     yxxoprrwjooow...
    e2c6:	8d 80 7b 7c 82 7e 86 83 73 79 77 7c 85 88 83 82     ..{|.~..syw|....
    e2d6:	7e 7d 7f 83 8b 88 82 86 91 84 7f 76 70 6f 76 7b     ~}.........vpov{
    e2e6:	84 98 9f a6 a9 ad b1 b2 ad a4 a0 9b a0 9d 9b a4     ................
    e2f6:	ac a8 a7 ae ab a5 a1 92 84 7c 75 78 7c 75 7d 79     .........|ux|u}y
    e306:	6f 65 65 6c 77 7c 76 7b 78 77 79 82 81 7e 84 7a     oeelw|v{xwy..~.z
    e316:	76 76 6f 6e 65 60 67 6c 70 71 6e 74 7c 83 7f 81     vvone`glpqnt|...
    e326:	7c 78 78 7e 7f 7a 7e 74 6f 73 70 6f 71 76 7a 7e     |xx~.z~tospoqvz~
    e336:	75 6a 5e 58 66 68 6d 71 71 71 71 78 76 75 71 75     uj^Xfhmqqqqxvuqu
    e346:	76 7c 7d 74 70 75 76 78 81 79 6a 5f 65 6c 77 7f     v|}tpuvx.yj_elw.
    e356:	80 83 85 8c 8f 91 83 80 7f 7f 7d 7a 74 7c 7d 7d     ..........}zt|}}
    e366:	86 87 81 7c 8a 89 8a 87 81 80 80 7f 7d 7f 72 70     ...|........}.rp
    e376:	7d 8b 92 9f 9e a1 ac ab b7 b9 b1 a7 9e 9c 97 98     }...............
    e386:	99 9a 99 9c 98 9d 96 8c 87 8b 86 85 84 7a 89 89     .............z..
    e396:	87 83 75 6a 60 6f 72 72 78 73 74 7b 83 8f 91 8b     ..uj`orrxst{....
    e3a6:	7a 73 6b 5d 5f 5a 63 6b 72 84 89 8c 7e 7b 7f 72     zsk]_Zckr...~{.r
    e3b6:	85 7f 7a 75 73 79 73 72 70 6f 73 6c 6e 69 71 75     ..zusysrposlniqu
    e3c6:	82 91 91 8b 6d 64 62 5f 6a 73 66 60 61 69 75 84     ....mdb_jsf`aiu.
    e3d6:	82 83 84 85 86 84 7d 74 78 7a 7a 78 65 5b 65 5e     ......}txzzxe[e^
    e3e6:	6c 7a 83 87 94 9c 9a 93 7e 78 77 7e 78 7b 75 71     lz......~xw~x{uq
    e3f6:	74 7f 8d 9b 90 8c 92 82 83 85 78 6a 71 74 7c 87     t.........xjqt|.
    e406:	84 7f 88 89 8c 96 a9 b0 bc bf b9 b6 9e 95 95 91     ................
    e416:	89 8f 80 74 7d 84 86 98 9a 92 9a 99 92 8f 8e 84     ...t}...........
    e426:	82 82 79 7f 75 68 69 64 66 71 76 7b 88 88 81 88     ..y.uhidfqv{....
    e436:	84 75 78 75 61 60 5d 5e 6c 77 87 91 93 80 80 7f     .uxua`]^lw......
    e446:	7a 7f 79 6e 73 70 6c 71 71 66 6b 70 6c 74 73 74     z.ynsplqqfkpltst
    e456:	7b 7c 83 8c 8a 86 84 7b 68 5f 57 54 5f 70 6f 7e     {|.....{h_WT_po~
    e466:	7f 7f 7f 89 88 8e 82 7a 81 78 73 70 6e 66 71 73     .......z.xspnfqs
    e476:	75 7c 7a 74 7d 8b 8e 91 8c 90 8c 83 78 6f 69 68     u|zt}.......xoih
    e486:	74 7e 7e 82 88 89 8f 90 8b 85 83 78 7a 7b 78 80     t~~........xz{x.
    e496:	7a 81 85 89 8a 8a 85 85 95 a7 b2 b8 ba b1 a3 9e     z...............
    e4a6:	93 8a 88 77 76 77 73 79 7e 85 97 a6 a0 9f 8b 7b     ...wvwsy~......{
    e4b6:	7c 82 81 7f 83 7d 76 7d 73 6c 6e 64 6b 7a 7e 88     |....}v}slndkz~.
    e4c6:	84 79 7e 7c 76 76 73 66 6e 74 71 73 7b 7f 87 9a     .y~|vvsfntqs{...
    e4d6:	95 8c 83 76 71 74 77 76 76 6b 73 72 6b 72 68 63     ...vqtwvvksrkrhc
    e4e6:	6d 83 8d 96 9b 94 8d 8b 84 74 6e 61 58 5a 5c 64     m........tnaXZ\d
    e4f6:	70 76 89 8f 8e 90 85 79 7a 81 84 86 7e 71 6c 76     pv.....yz...~qlv
    e506:	7a 78 73 6d 76 7b 81 8d 91 8d 92 8c 88 87 7f 70     zxsmv{.........p
    e516:	6a 6f 6a 78 76 7e 8c 91 91 8b 7c 73 76 76 78 84     jojxv~....|svvx.
    e526:	81 7c 85 7e 81 89 82 81 88 8e 9d a7 a3 a6 a3 99     .|.~............
    e536:	9e 98 87 7e 77 6c 68 76 77 7f 95 92 9a 96 86 80     ...~wlhvw.......
    e546:	79 7d 85 94 88 87 80 77 7c 78 5c 67 75 72 75 82     y}.....w|x\guru.
    e556:	83 85 84 6f 7d 7f 79 79 7c 6e 6f 7a 72 76 84 87     ...o}.yy|nozrv..
    e566:	8a 92 7d 7c 7f 79 7d 7c 79 76 80 79 7a 7e 76 74     ..}|.y}|yv.yz~vt
    e576:	72 6c 6a 86 81 8a 8b 88 8b 91 85 77 72 6f 70 6b     rlj........wropk
    e586:	73 7d 8d 87 8a 85 80 75 76 74 75 87 84 83 7e 75     s}.....uvtu...~u
    e596:	72 7a 78 70 79 83 84 89 8c 85 8a 7e 81 88 7f 7a     rzxpy......~...z
    e5a6:	7a 7a 68 71 76 73 80 86 83 89 8c 79 7c 80 78 83     zzhqvs.....y|.x.
    e5b6:	89 79 7f 81 7d 85 82 7b 7f 86 79 89 95 90 95 96     .y..}..{..y.....
    e5c6:	90 94 94 88 85 81 71 78 7f 74 86 8e 88 8b 8d 7a     ......qx.t.....z
    e5d6:	80 82 7c 87 8c 82 81 7d 79 7a 76 71 71 74 6c 7a     ..|....}yzvqqtlz
    e5e6:	85 7c 86 88 7d 83 89 7d 78 77 6e 6e 79 78 7d 88     .|..}..}xwnnyx}.
    e5f6:	84 8a 84 7b 7e 80 81 83 85 7c 7f 83 79 81 84 77     ...{~....|..y..w
    e606:	6f 6c 69 6d 7f 87 84 8a 86 8a 89 7f 82 7e 7b 78     olim.........~{x
    e616:	7d 7d 80 8a 82 87 89 79 77 78 74 75 7b 7e 78 7b     }}.....ywxtu{~x{
    e626:	77 81 84 79 77 74 77 81 8b 92 93 94 8c 89 88 7b     w..ywtw........{
    e636:	77 71 68 63 6a 75 79 7d 7f 88 8d 81 7d 82 80 80     wqhcjuy}....}...
    e646:	83 83 83 88 81 87 88 7f 76 71 6d 73 81 8c 91 91     ........vqms....
    e656:	8d 8a 8f 8c 82 84 80 75 76 77 7c 8a 8a 8f 92 86     .......uvw|.....
    e666:	7d 7b 79 74 7d 7e 88 84 83 80 80 7e 72 71 72 77     }{yt}~.....~rqrw
    e676:	7b 82 86 90 89 84 83 7c 79 74 74 6b 6d 6e 7b 86     {......|yttkmn{.
    e686:	8c 93 88 89 82 7e 7f 82 7c 83 83 82 86 80 7f 7b     .....~..|......{
    e696:	72 6a 6f 6d 70 78 87 8e 93 92 87 84 81 77 79 7c     rjompx.......wy|
    e6a6:	70 75 7a 81 93 8f 86 81 79 71 79 78 76 7b 7c 7a     puz.....yqyxv{|z
    e6b6:	81 83 7a 79 7b 71 74 7c 78 82 8a 91 9e 9b 8e 91     ..zy{qt|x.......
    e6c6:	83 71 71 69 62 67 70 76 86 8f 86 80 7a 75 77 84     .qqibgpv....zuw.
    e6d6:	80 81 89 84 90 91 88 90 8a 75 74 6d 6d 77 80 87     .........utmmw..
    e6e6:	8e 96 8c 89 81 7a 78 7a 77 74 7b 7f 8a 8d 8d 8e     .....zxzwt{.....
    e6f6:	8e 7d 77 7a 78 80 80 83 86 8b 8a 80 7c 73 6d 6c     .}wzx.......|sml
    e706:	71 77 82 87 8b 8c 8a 8b 88 7e 73 75 70 72 74 7b     qw.......~suprt{
    e716:	84 87 8f 86 83 82 78 73 7a 7a 7d 87 8b 89 8c 8a     ......xszz}.....
    e726:	84 7e 6d 69 69 6e 76 80 82 84 8c 84 87 8d 7f 7a     .~miinv........z
    e736:	7f 79 7a 85 84 83 88 84 81 80 72 6a 6a 6a 79 81     .yz.......rjjjy.
    e746:	82 88 8d 82 7f 7e 6d 6e 79 7c 81 91 8f 89 8b 89     .....~mny|......
    e756:	87 84 76 6c 6e 6a 6e 78 7a 82 91 8a 8c 87 73 62     ..vlnjnxz.....sb
    e766:	68 69 74 88 8c 94 9e 98 94 8f 82 76 7d 7a 7a 7f     hit........v}zz.
    e776:	74 74 85 81 7f 86 7d 77 7c 7f 7b 82 82 88 90 91     tt....}w|.{.....
    e786:	90 91 7d 6f 76 6f 70 80 7b 7e 92 8b 84 88 81 74     ..}ovop.{~.....t
    e796:	7c 7d 7b 81 7d 83 85 7d 7b 77 6b 69 77 7b 81 8c     |}{.}..}{wkiw{..
    e7a6:	8c 8f 9c 9b 93 8e 7f 67 68 68 62 68 6e 7a 8b 92     .......ghhbhnz..
    e7b6:	95 94 8a 81 82 81 78 79 7a 75 7a 80 7a 75 7a 79     ......xyzuz.zuzy
    e7c6:	7f 87 87 86 85 87 8d 8e 89 83 7d 76 71 71 65 62     ..........}vqqeb
    e7d6:	6f 6e 78 8b 90 84 85 84 87 8e 8e 8a 8c 8b 88 82     onx.............
    e7e6:	74 68 64 66 67 76 76 7b 8c 8f 90 9f 99 89 80 76     thdfgvv{.......v
    e7f6:	71 67 5e 5a 66 7a 8a 98 9b 9a 98 92 8b 91 86 7a     qg^Zfz.........z
    e806:	83 77 73 76 6f 65 6a 75 7a 80 79 7c 81 85 8f 94     .wsvoejuz.y|....
    e816:	97 98 96 8a 7f 7d 6c 59 68 6d 75 7e 83 7d 83 8d     .....}lYhmu~.}..
    e826:	8b 91 8e 8f 8d 85 81 74 6e 69 67 67 69 76 77 73     .......tniggivws
    e836:	86 96 99 9e 9f 94 8e 8b 74 6c 61 5e 64 6c 79 7c     ........tla^dly|
    e846:	85 8a 8c 90 90 8b 89 7a 79 83 77 76 7a 74 79 82     .......zy.wvzty.
    e856:	7e 7e 83 81 86 86 8e 87 89 8a 87 8a 7e 79 72 67     ~~..........~yrg
    e866:	64 69 64 64 71 75 80 8e 95 9a a1 9c 97 92 8a 7d     diddqu.........}
    e876:	73 6d 6b 6a 68 6b 75 7b 82 8d 92 91 91 8a 81 82     smkjhku{........
    e886:	79 72 6e 6b 6c 72 77 7d 83 8c 9a 96 94 91 89 7a     yrnklrw}.......z
    e896:	7c 7b 7b 78 76 77 71 7a 76 7a 7e 82 88 84 87 89     |{{xvwqzvz~.....
    e8a6:	88 8b 92 90 8b 8b 80 6f 6d 6c 66 67 67 74 7b 8c     .......omlfggt{.
    e8b6:	8d 90 94 92 98 89 85 79 6b 67 66 67 6b 79 7a 7a     .......ykgfgkyzz
    e8c6:	8e 95 95 96 94 8e 8b 87 7b 78 73 73 79 72 72 73     ........{xssyrrs
    e8d6:	75 7d 85 87 86 8a 81 77 86 7b 72 75 70 74 7e 84     u}.....w.{rupt~.
    e8e6:	7f 8a 8f 92 95 8e 86 8d 8c 8e 97 87 7f 7d 6f 64     .............}od
    e8f6:	6a 61 50 5b 5f 61 74 7d 7f 8f 9e 9f a7 98 83 7d     jaP[_at}.......}
    e906:	6f 6f 70 6a 6c 7c 80 85 92 8f 8c 97 9c 99 9b 87     oopjl|..........
    e916:	7b 78 76 83 80 7b 77 7b 78 79 80 70 72 7c 71 72     {xv..{w{xy.pr|qr
    e926:	76 68 62 66 6b 6e 76 6f 71 79 83 8f 92 8f 95 97     vhbfknvoqy......
    e936:	9f ac b2 a7 a7 a7 96 8d 82 6d 61 5f 5e 66 6b 6e     .........ma_^fkn
    e946:	6f 83 8d 82 89 77 5f 60 4f 51 5e 6e 72 80 91 8a     o....w_`OQ^nr...
    e956:	9c 9f 8e 8f 97 8c 83 82 79 78 8c 83 83 95 86 92     ........yx......
    e966:	95 90 87 91 75 98 89 72 67 5d 6b 4d 61 4b 6c 5d     ....u..rg]kMaKl]

0000e976 <astley1_data>:
    e976:	a0 ac a7 a7 94 94 7d 6e 58 49 5d 3f 54 3d 44 34     ......}nXI]?T=D4
    e986:	58 40 52 66 5f 8e 7b b2 a0 cc b4 bb dd b3 cd c4     X@Rf_.{.........
    e996:	b7 9c 95 79 6d 69 6b 4a 6c 86 64 79 77 71 76 6a     ...ymikJl.dywqvj
    e9a6:	68 6d 5d 72 67 6e 5b 64 66 54 62 5d 66 75 88 84     hm]rgn[dfTb]fu..
    e9b6:	8e 9d a5 b8 a4 8f ad a1 93 82 a1 aa 7e 9f 9a 99     ............~...
    e9c6:	97 74 98 7e 76 76 61 60 64 59 41 58 48 4e 4e 4e     .t.~vva`dYAXHNNN
    e9d6:	51 63 7a 74 80 85 a1 8c 9e b2 97 ba bd ab bd b5     Qczt............
    e9e6:	ad bd 95 9a af a9 a1 a8 90 91 97 78 61 53 4c 55     ...........xaSLU
    e9f6:	56 3b 30 1b 35 2f 30 36 1d 37 52 51 58 55 7a 85     V;0.5/06.7RQXUz.
    ea06:	a3 8e 87 b9 a3 ac b0 9b a9 c5 b9 c6 b1 b1 bd c1     ................
    ea16:	b0 c5 be a5 99 84 82 94 85 70 55 5c 84 71 77 69     .........pU\.qwi
    ea26:	72 95 98 7a 6c 6e 76 77 8c 79 66 59 4b 5b 5e 46     r..zlnvw.yfYK[^F
    ea36:	63 6e 79 76 65 79 76 72 5c 5f 63 6a 55 5a 5b 66     cnyveyvr\_cjUZ[f
    ea46:	6f 4b 89 93 5b 8a 86 8c 99 7e 70 88 99 7d 82 7d     oK..[....~p..}.}
    ea56:	89 98 a0 8e 93 a7 a8 b1 c1 b3 a4 bc 9f 94 a6 8d     ................
    ea66:	90 99 7b 86 93 91 81 8a a9 a2 95 ab 93 87 96 64     ..{............d
    ea76:	73 7e 73 65 8b 6b 57 75 5e 52 6c 72 60 56 57 58     s~se.kWu^Rlr`VWX
    ea86:	65 54 4d 66 45 42 33 36 20 46 57 4c 59 5e 69 78     eTMfEB36 FWLY^ix
    ea96:	76 5a 96 8f 86 85 95 96 8a ad b3 a2 bd c1 ac ca     vZ..............
    eaa6:	c5 d9 e7 ce d4 ed b0 b3 bc 9b 9c a1 86 74 7d 7c     .............t}|
    eab6:	73 69 99 82 89 88 54 73 6e 54 4e 57 4d 42 61 5f     si....TsnTNWMBa_
    eac6:	48 5a 6d 56 6d 6b 7c 81 6f 7f 83 70 6b 6c 61 5c     HZmVmk|.o..pkla\
    ead6:	50 46 4e 6b 6c 71 7c 7c 85 8d 5c 69 7d 76 62 67     PFNklq||..\i}vbg
    eae6:	7b 62 8b 90 78 8d 9a 8f 92 a1 98 a2 bf ba c2 b3     {b..x...........
    eaf6:	ab 98 93 9e 87 8a 8a 97 9d 9b 9e 93 9b aa 98 7d     ...............}
    eb06:	7c 80 74 70 7b 7b 8c 84 76 8a 6d 72 62 73 88 6f     |.tp{{..v.mrbs.o
    eb16:	79 80 7f 8b 6d 61 5d 54 58 53 45 3d 4c 52 74 4b     y...ma]TXSE=LRtK
    eb26:	70 7c 5f 62 51 49 52 6f 6b 6a 83 7f 7a 92 8d 76     p|_bQIRokj..z..v
    eb36:	7e a5 9e a1 b1 b5 c2 d9 ae ab a5 8e 82 74 7b 84     ~............t{.
    eb46:	88 8d 8e 9f a4 92 8d 91 82 82 77 81 76 6e 9b 7c     ..........w.vn.|
    eb56:	83 9f 7c 5f 8b 97 84 8f 9c 95 a9 a1 81 79 74 77     ..|_.........ytw
    eb66:	63 56 55 4d 69 57 58 85 73 70 57 5e 61 46 52 6b     cVUMiWX.spW^aFRk
    eb76:	5b 53 65 64 83 8c 65 67 7d 85 85 9c 90 8e a4 b0     [Sed..eg}.......
    eb86:	90 76 83 78 68 71 68 86 86 66 82 90 b0 8e 86 8b     .v.xhqh..f......
    eb96:	8f 83 78 7c 98 a5 97 a5 95 93 80 a5 a8 8a a3 b6     ..x|............
    eba6:	b7 aa 8e 9d 8f 88 94 74 61 54 61 76 80 55 4d 7a     .......taTav.UMz
    ebb6:	89 77 5e 5c 75 85 73 8b 7b 6c 7a 91 86 73 7e 7e     .w^\u.s.{lz..s~~
    ebc6:	8b 88 85 81 a7 9b 82 98 87 69 63 5e 54 57 51 63     .........ic^TWQc
    ebd6:	6c 40 3e 5a 6d 67 5e 62 6c 7b 5c 64 6c 79 7f 81     l@>Zmg^bl{\dly..
    ebe6:	73 7c 8e 72 93 9c 9c a8 bf b1 97 b4 9c 8e 92 80     s|.r............
    ebf6:	91 8b 89 7d 7c 86 6f 89 80 7c 75 7b 84 91 88 73     ...}|.o..|u{...s
    ec06:	8d 86 89 75 71 9a 87 88 9f 99 9c 97 a7 a1 9b a3     ...uq...........
    ec16:	98 86 7b 85 7a 82 8a 80 87 6a 60 6f 64 6c 6d 74     ..{.z....j`odlmt
    ec26:	83 89 77 6e 75 7f 6f 64 77 6a 5e 7a 72 78 7d 8b     ..wnu.odwj^zrx}.
    ec36:	91 78 7c 6b 70 69 56 66 6d 76 70 6f 6d 71 73 69     .x|kpiVfmvpomqsi
    ec46:	69 78 73 6f 7b 7f 78 77 80 73 73 81 72 74 8a 83     ixso{.xw.ss.rt..
    ec56:	8c 8e 8b 94 a8 a0 8f 93 80 8e 7f 7e 75 7c 95 76     ...........~u|.v
    ec66:	7a 82 78 6f 7b 8a 7a 76 87 87 87 92 8a 79 8f 92     z.xo{.zv.....y..
    ec76:	8b 8e 83 92 95 9b 94 9b ad a7 a3 99 8f 9f a2 94     ................
    ec86:	87 8c 8f 7d 81 7c 77 70 6c 78 69 6b 6d 6c 7d 73     ...}.|wplxikml}s
    ec96:	6b 6f 5a 65 69 64 7d 71 6b 80 80 81 82 8d 8a 82     koZeid}qk.......
    eca6:	82 83 83 70 7a 7c 76 70 64 65 68 6f 74 63 72 7d     ...pz|vpdehotcr}
    ecb6:	75 7a 75 63 68 76 6f 71 66 72 78 76 86 81 85 8c     uzuchvoqfrxv....
    ecc6:	81 9f 94 8f 96 8b 93 8b 79 76 82 7f 6e 67 7b 7e     ........yv..ng{~
    ecd6:	7b 79 8e 7f 74 88 7e 78 7e 8d 8a 81 89 8c 88 9c     {y..t.~x~.......
    ece6:	99 96 a1 9e a0 a2 97 93 96 95 a2 8c 7e 80 92 8e     ............~...
    ecf6:	7e 83 8f 81 72 7b 6a 75 7b 76 66 6b 7e 74 75 73     ~...r{ju{vfk~tus
    ed06:	6b 72 88 88 73 6e 7b 82 82 82 95 87 76 85 85 83     kr..sn{.....v...
    ed16:	7a 7c 81 7a 7b 7f 7b 79 79 81 7d 7b 69 4d 5c 6e     z|.z{.{yy.}{iM\n
    ed26:	68 6d 75 74 65 72 80 76 7d 7e 75 75 6c 7a 84 8c     hmuter.v}~uulz..
    ed36:	91 a2 a1 82 75 7a 87 7c 7a 7c 79 8a 8e 80 85 81     ....uz.|z|y.....
    ed46:	7c 6e 72 72 75 79 87 7c 82 94 8f 89 7d 8e 8d 9a     |nrruy.|....}...
    ed56:	a6 90 86 8f 95 9c 9a 93 73 7d 86 8b 8b 7d 7d 7c     ........s}...}}|
    ed66:	82 78 78 74 66 6b 70 76 78 6b 6e 66 7a 7f 7c 8d     .xxtfkpvxknfz.|.
    ed76:	80 6f 97 98 8a a0 89 7c 84 9f a4 9b 8f 73 66 80     .o.....|.....sf.
    ed86:	8f 7d 82 7a 63 7f 7b 6a 64 65 5f 62 6c 5e 5b 74     .}.zc.{jde_bl^[t
    ed96:	83 7b 7f 61 6c 81 8d 92 8f 76 77 93 92 a3 a9 99     .{.al....vw.....
    eda6:	85 85 8b 83 7e 87 73 79 7b 73 79 78 6b 72 7c 76     ....~.sy{syxkr|v
    edb6:	70 76 78 68 60 6c 87 76 92 99 7d 71 6b 84 8f 99     pvxh`l.v..}qk...
    edc6:	95 8b 92 92 97 aa 9a 8b 93 7e 6f 5e 67 6a 67 7a     .........~o^gjgz
    edd6:	88 a8 9a 83 75 6f 7a 7e 77 7b 6f 7e 74 76 8d 9d     ....uoz~w{o~tv..
    ede6:	a7 95 99 8a 81 86 96 92 97 9e 8b 81 71 5f 5f 6b     ............q__k
    edf6:	6b 74 7c 76 6f 6b 6a 7a 69 70 62 62 76 71 71 71     kt|vokjzipbbvqqq
    ee06:	7c 73 82 8b 86 80 87 8a 8b 94 96 8a 89 7b 78 7c     |s...........{x|
    ee16:	85 88 8c 86 71 7d 79 84 79 87 7a 72 75 73 77 7c     ....q}y.y.zrusw|
    ee26:	78 66 6c 7d 8a 7e 8f 8c 8f 93 88 79 7c 76 6f 6e     xfl}.~.....y|von
    ee36:	81 98 96 9b 8b 84 91 91 7b 76 73 74 72 7d 7f 81     ........{vstr}..
    ee46:	8b 7a 66 65 76 7b 83 8c 87 90 8c 7f 7f 79 6e 74     .zfev{.......ynt
    ee56:	81 8d 9c 99 a0 97 ae 9f 92 87 67 62 69 71 72 87     ..........gbiqr.
    ee66:	77 7e 74 7f 8e 63 7c 71 72 79 77 7a 7e 7a 59 63     w~t..c|qrywz~zYc
    ee76:	72 7a 84 88 83 7e a7 ae 92 8d 75 60 65 71 74 81     rz...~....u`eqt.
    ee86:	75 7d 73 80 8c 75 94 89 82 86 85 79 6f 76 58 4d     u}s..u.....yovXM
    ee96:	60 70 68 8b 8c 86 b1 9b 91 91 93 68 70 7d 61 74     `ph........hp}at
    eea6:	83 8b 84 a0 8b 76 91 81 77 76 7d 7b 79 75 66 69     .....v..wv}{yufi
    eeb6:	70 6e 5c 5a 79 96 9d 94 9e 92 81 84 87 80 83 82     pn\Zy...........
    eec6:	78 7e 87 a3 8d 88 8e 74 7b 7e 75 7a 89 77 68 76     x~.....t{~uz.whv
    eed6:	89 6a 70 81 7e 9b a4 9a 8d a2 93 8d 86 6d 5f 5a     .jp.~........m_Z
    eee6:	63 5d 85 a5 9a 99 89 77 78 73 53 78 7c 5d 6a 75     c].....wxsSx|]ju
    eef6:	79 5f 71 7d 90 bb b2 8a 86 98 87 99 91 72 67 66     y_q}.........rgf
    ef06:	61 4a 8d ad 8f 8a 95 82 7f 8d 64 66 66 6f 58 72     aJ........dffoXr
    ef16:	86 58 57 5d 82 7d 93 85 73 86 97 a8 78 91 73 63     .XW].}..s...x.sc
    ef26:	5d 65 8f a1 b1 b0 a9 85 a5 86 70 83 72 6c 58 7c     ]e........p.rlX|
    ef36:	6b 53 5f 61 72 76 83 55 57 7e 97 8a 81 8a 6c 76     kS_arv.UW~....lv
    ef46:	62 79 78 92 b2 a6 ad af ab 87 8b 75 7e 75 73 77     byx........u~usw
    ef56:	69 86 6e 75 86 9a 76 61 7e 77 97 80 93 6f 6e 7b     i.nu..va~w...on{
    ef66:	52 79 73 8b 91 90 91 93 7f 7b 81 6c 7f 71 77 61     Rys......{.l.qwa
    ef76:	74 7e 6f 80 82 96 78 84 93 96 a1 a4 a3 90 96 76     t~o...x........v
    ef86:	7a 73 77 83 7a 91 97 9f 87 80 7d 74 70 68 61 44     zsw.z.....}tphaD
    ef96:	62 6c 5f 65 72 7b 6b 78 8f 92 7f a7 a1 8d 86 84     bl_er{kx........
    efa6:	8e 81 90 86 7b 89 ad a5 83 83 87 7e 7a 82 62 4f     ....{......~z.bO
    efb6:	67 7e 6f 6d 7a 6a 6a 6d 78 7b 6c 79 81 8c 77 7c     g~omzjjmx{ly..w|
    efc6:	82 74 71 6e 75 78 9f 9b 90 7f 92 9b 8a 8a 76 69     .tqnux........vi
    efd6:	69 8c 75 6b 81 7c 6e 76 93 8f 81 8b 95 89 7a 8f     i.uk.|nv......z.
    efe6:	8f 7e 7d 80 7e 73 9a 9b 80 80 8a 8c 9a 73 58 5e     .~}.~s.......sX^
    eff6:	5c 5e 57 61 78 66 71 87 7b 84 89 94 82 8b 92 93     \^Waxfq.{.......
    f006:	89 8e 83 75 8c 8b 97 a4 93 83 96 a1 99 7c 7e 82     ...u.........|~.
    f016:	75 73 70 66 78 74 76 7b 75 77 75 7b 77 73 72 89     uspfxtv{uwu{wsr.
    f026:	7f 73 83 79 63 72 86 87 78 81 93 89 88 80 68 6a     .s.ycr..x.....hj
    f036:	73 69 6b 69 77 8a 88 98 91 82 93 92 92 94 95 8b     sikiw...........
    f046:	90 9c 90 77 78 8f 8d 89 93 7f 8c 9c 7e 6e 69 71     ...wx.......~niq
    f056:	67 5c 64 63 48 5b 67 70 7c 7c 77 73 81 77 67 6c     g\dcH[gp||ws.wgl
    f066:	87 87 78 84 82 8e a8 9c 97 a6 a9 a5 af a2 93 88     ..x.............
    f076:	8e 97 84 89 80 7b 74 72 6e 65 6d 78 61 5b 64 5f     .....{trnemxa[d_
    f086:	66 6f 69 5b 68 71 75 77 88 8e 83 82 95 8a 84 98     foi[hquw........
    f096:	8c 82 80 87 8b 87 91 98 7b 83 96 8c 8f 7a 67 74     ........{....zgt
    f0a6:	74 68 6e 7c 8b 7e 79 88 94 9b 8f 8a 89 7d 82 76     thn|.~y......}.v
    f0b6:	7c 90 83 71 75 83 81 81 84 76 72 84 8d 75 67 78     |..qu....vr..ugx
    f0c6:	6a 61 6a 6d 78 84 81 7b 81 8d 84 82 7f 7a 78 7a     jajmx..{.....zxz
    f0d6:	89 91 99 96 86 88 98 92 8b 7f 91 92 83 7b 88 85     .............{..
    f0e6:	7a 7f 6d 62 6d 74 67 6d 76 77 6f 7b 69 67 75 7a     z.mbmtgmvwo{iguz
    f0f6:	77 76 85 8f 88 97 a2 89 85 87 91 94 8b 88 81 77     wv.............w
    f106:	7a 82 84 7e 81 7c 7e 7f 73 79 76 67 61 5e 61 68     z..~.|~.syvga^ah
    f116:	6b 78 7a 78 87 94 97 9b 96 8e 92 9b 9a 91 94 83     kxzx............
    f126:	75 7c 8d 7b 7a 8a 83 88 88 8c 8c 8d 7a 6d 68 65     u|.{z.......zmhe
    f136:	76 70 6b 6b 6e 78 7a 75 79 7e 78 79 79 87 85 80     vpkknxzuy~xyy...
    f146:	86 83 7c 78 7d 7d 78 8b 8d 83 86 8f 8d 8b 8b 7e     ..|x}}x........~
    f156:	7a 7b 82 86 8b 8b 85 7e 82 81 7c 7a 83 7c 77 7a     z{.....~..|z.|wz
    f166:	86 8a 88 7e 72 70 79 78 75 7f 71 6b 7a 76 72 83     ...~rpyxu.qkzvr.
    f176:	81 79 74 7b 82 82 81 7c 85 84 7e 85 86 83 85 81     .yt{...|..~.....
    f186:	82 83 86 8a 86 8b 84 83 8d 8d 7c 79 83 6a 66 6a     ..........|y.jfj
    f196:	79 6f 7b 7c 7c 8a 7f 87 94 9c 7e 74 8c 94 98 96     yo{||.....~t....
    f1a6:	88 81 8c 84 7a 76 7f 70 75 77 78 7e 73 6a 4d 49     ....zv.puwx~sjMI
    f1b6:	56 62 73 83 85 89 82 80 9d 9b 97 99 95 98 7a a4     Vbs...........z.
    f1c6:	a6 a9 99 7f 90 78 79 7a 71 60 41 61 77 6c 88 89     .....xyzq`Aawl..
    f1d6:	78 66 6d 5f 6b 69 75 6b 6d 82 9c ab 91 a6 84 8c     xfm_kiukm.......
    f1e6:	7e 6d 69 7a 84 92 94 94 a8 90 af 91 7c 53 5c 66     ~miz........|S\f
    f1f6:	55 47 57 71 81 8e 85 9c 7a 89 84 8d 86 65 6a 88     UGWq....z....ej.
    f206:	8e 7d 93 9c 9f 98 a8 8d 79 7a 76 75 68 66 5c 58     .}......yzvuhf\X
    f216:	6b 9b 87 8e 86 70 93 85 94 5a 4d 70 5d 77 73 82     k....p...ZMp]ws.
    f226:	85 8f b0 95 72 76 8a 7b 86 75 7a 8a 9e c6 b0 c3     ....rv.{.uz.....
    f236:	98 8a 8f 8e 79 59 6a 6f 7a 87 8f 84 81 90 81 71     ....yYjoz......q
    f246:	6b 69 65 64 6d 5d 6d 7f 97 ad ab 8e 6e 62 63 6b     kiedm]m.....nbck
    f256:	58 5e 62 62 6f 6e 70 79 7a 7f 70 73 7a 75 72 62     X^bbonpyz.pszurb
    f266:	5f 64 71 91 97 a2 9c 86 86 84 95 87 7d 69 62 75     _dq.........}ibu
    f276:	6f 79 7f 7e 74 69 65 6e 77 7b 78 6c 64 64 8a 95     oy.~tienw{xldd..
    f286:	ad af 8f 86 82 90 8e 91 97 7f 86 95 9b aa a6 a2     ................
    f296:	9c 95 97 a2 96 96 7f 8d 83 95 b7 a7 c2 a2 85 7c     ...............|
    f2a6:	71 80 7f 80 79 65 7e 6e 8b 91 86 7a 6b 6a 6c 6b     q...ye~n...zkjlk
    f2b6:	60 68 49 66 5f 84 90 98 ac 7a 80 6b 5d 68 63 57     `hIf_....z.k]hcW
    f2c6:	50 57 63 61 80 74 7b 74 5e 61 72 60 60 59 41 65     PWca.t{t^ar``YAe
    f2d6:	5e 88 88 a7 9f 7e 9d 89 81 93 90 91 88 98 8f 9c     ^....~..........
    f2e6:	a2 8c 99 78 75 70 74 60 76 57 5e 78 6d 98 85 95     ...xupt`vW^xm...
    f2f6:	6c 5d 79 50 5c 71 68 73 6c 7f 78 97 96 9e 9d 7e     l]yP\qhsl.x....~
    f306:	8d 86 77 7a 93 75 95 97 ac b9 b2 c7 90 98 9e 61     ..wz.u.........a
    f316:	80 74 72 80 75 8e 87 93 7e 86 68 59 6c 5e 4d 5d     .tr.u...~.hYl^M]
    f326:	51 4d 6f 75 96 9a ba b5 85 ab 8f 74 98 80 8f 8d     QMou.......t....
    f336:	8c 9b a3 aa a1 b0 96 96 9b 7e 76 79 6a 7a 7b 88     .........~vyjz{.
    f346:	94 8d a7 8a 74 8c 65 5b 72 6c 76 6f 88 88 94 8f     ....t.e[rlvo....
    f356:	83 90 68 72 6d 50 68 5f 63 83 79 9e 96 8b 9c 86     ..hrmPh_c.y.....
    f366:	60 75 5a 35 61 3d 53 5b 54 61 71 68 72 80 5b 6f     `uZ5a=S[Taqhr.[o
    f376:	66 4b 57 53 67 6d 66 90 83 91 ab 98 76 96 7e 5c     fKWSgmf.....v.~\
    f386:	a9 6d 8a 9e 83 9c 8c 8a 9e 99 83 88 6a 68 61 67     .m..........jhag
    f396:	76 73 7e 7e 8b 9c 99 99 85 7b 78 4d 7f 6b 69 97     vs~~.....{xM.ki.
    f3a6:	6c 8c 82 7e a0 9a 84 83 76 77 7c 6e 89 7c 95 92     l..~....vw|n.|..
    f3b6:	9f ae a5 a8 ac aa 83 77 6d 90 94 98 99 9c 90 89     .......wm.......
    f3c6:	a0 9f 92 6c 6d 58 68 52 65 68 5b 87 75 8c 90 89     ...lmXhReh[.u...
    f3d6:	94 a3 8b 62 63 6f 82 8f 81 9a 8d 85 99 a1 ab a3     ...bco..........
    f3e6:	9b 81 8c 6e 64 95 70 7d 87 7a 9b 8f 9d af 95 96     ...nd.p}.z......
    f3f6:	80 60 7a 54 68 7c 70 7c 64 78 80 87 80 7a 61 54     .`zTh|p|dx...zaT
    f406:	4f 53 79 75 61 7a 77 86 8c 7d a3 84 7d 76 54 5d     OSyuazw..}..}vT]
    f416:	5d 7d 81 73 73 5d 78 78 71 87 70 68 53 49 53 5a     ]}.ss]xxq.phSISZ
    f426:	5e 5f 5f 6d 72 7b 87 93 8e 8c 85 80 76 71 8a 8c     ^__mr{......vq..
    f436:	8d 7f 8d 88 8c a0 9e a1 8f 81 77 72 81 85 7b 81     ..........wr..{.
    f446:	6a 82 86 84 9b 8a 98 91 85 78 7d 86 87 93 81 8a     j........x}.....
    f456:	85 72 89 87 88 87 6f 78 75 6d 7e 8a 79 86 80 7b     .r....oxum~.y..{
    f466:	89 7b 8a 8e 89 91 91 8e 90 98 94 a1 a2 8b 8c 94     .{..............
    f476:	8f 95 81 86 8b 73 75 82 8b 90 7f 77 8b 7d 8a 8b     .....su....w.}..
    f486:	7f 8a 7f 85 8c 7c 8a 96 8f 8e 80 7c 6a 79 6e 67     .....|.....|jyng
    f496:	79 61 6e 75 77 7c 7d 87 7e 80 80 73 79 76 84 82     yanuw|}.~..syv..
    f4a6:	84 8f 8a 91 97 a5 ac ad 98 92 8a 76 7f 68 57 64     ...........v.hWd
    f4b6:	67 6a 67 75 77 6c 73 56 61 64 5b 50 45 66 46 55     gjguwlsVad[PEfFU
    f4c6:	74 61 61 70 78 73 74 7b 75 72 6f 74 6e 5b 79 60     taapxst{urotn[y`
    f4d6:	68 78 67 79 78 7f 82 8e a0 97 a1 8e 96 ad 92 99     hxgyx...........
    f4e6:	a2 95 8c 9f a2 93 a5 95 86 94 7e 88 87 65 6d 55     ..........~..emU
    f4f6:	56 70 5b 67 71 5f 76 83 6c 7b 87 67 8b 96 73 92     Vp[gq_v.l{.g..s.
    f506:	85 8c 94 9f ab ac a9 99 9b 95 a0 97 77 78 6e 64     ............wxnd
    f516:	83 7b 87 93 7f 8f a1 83 89 94 7b 5f 8b 8b 75 9d     .{........{_..u.
    f526:	81 91 8d 99 a0 9c 90 7f 96 75 7e 8a 6a 6c 72 53     .........u~.jlrS
    f536:	75 5f 65 85 73 7d 91 8e 73 83 81 55 88 a1 66 a3     u_e.s}..s..U..f.
    f546:	86 8c ab a8 a9 a7 95 76 a4 7a 7c 8c 68 64 7f 64     .......v.z|.hd.d
    f556:	78 79 62 7b 6c 75 7c 7d 65 6c 70 54 5c 99 73 89     xyb{lu|}elpT\.s.
    f566:	92 72 94 8e a7 7d 7b 5e 56 63 35 53 67 47 61 5f     .r...}{^Vc5SgGa_
    f576:	4e 61 5a 78 59 57 5f 65 78 5d 62 67 58 9d 92 84     NaZxYW_ex]bgX...
    f586:	b7 90 b5 b2 c6 ab 98 ad 87 a9 7e 7a a9 7c 90 88     ..........~z.|..
    f596:	6c 8d 65 82 80 5a 7e 83 7b 89 61 64 65 80 89 6b     l.e..Z~.{.ade..k
    f5a6:	96 7b 9c 93 90 85 78 89 6f 7c 74 63 8e 87 7b 9b     .{....x.o|tc..{.
    f5b6:	70 82 8f 69 77 79 72 8e 97 86 8e 8b 86 ad 91 94     p..iwyr.........
    f5c6:	a2 93 9b a4 91 74 a1 7e 7a 6c 61 86 79 7a 74 72     .....t.~zla.yztr
    f5d6:	77 88 90 83 6f 70 8b 5c 75 8b 74 8b 81 8e 83 a5     w...op.\u.t.....
    f5e6:	a2 95 84 87 97 7f 98 7f 68 76 61 85 8f 77 9b 8d     ........hva..w..
    f5f6:	6d 72 8d 74 85 77 7a 79 51 86 8d 6b 87 7e 73 96     mr.t.wzyQ..k.~s.
    f606:	7e 7a 8d 83 88 8b 72 76 74 84 69 65 6b 4f 7e 84     ~z....rvt.iekO~.
    f616:	67 78 7d 74 74 6d 60 74 6d 64 96 47 71 85 6a 87     gx}ttm`tmd.Gq.j.
    f626:	7c 72 7c 80 69 98 7e 6e 83 68 6a 41 40 59 51 7f     |r|.i.~n.hjA@YQ.
    f636:	4f 60 7a af a4 86 97 7f 8d 6e 9e 83 8f a4 9f 97     O`z......n......
    f646:	a6 b4 a8 b7 72 82 9b 6d 70 66 6e 68 56 70 5d 73     ....r..mpfnhVp]s
    f656:	5d 53 68 75 82 66 7a 55 65 7f 74 93 bc cb ba b7     ]Shu.fzUe.t.....
    f666:	98 b6 c6 b6 bd b0 87 7e 90 83 85 67 49 7b 8b 69     .......~...gI{.i
    f676:	5e 50 6a 9d 7e 6c 7e 84 b1 a4 85 78 84 c2 ce ac     ^Pj.~l~....x....
    f686:	9a 95 be b7 8a 86 64 88 80 6d 6c 52 49 62 69 44     ......d..mlRIbiD
    f696:	48 5b 69 65 78 64 63 60 68 5c 58 73 8e 9e 88 8b     H[iexdc`h\Xs....
    f6a6:	a1 b4 bf ad 94 ae 81 8b 85 93 87 68 96 6e a0 7b     ...........h.n.{
    f6b6:	92 77 64 7c 4a 56 54 65 5e 5c 52 79 73 7a 7a 70     .wd|JVTe^\Ryszzp
    f6c6:	74 67 72 7d 74 79 63 5c 77 79 93 87 90 73 83 8a     tgr}tyc\wy...s..
    f6d6:	61 60 86 86 43 73 78 69 67 82 82 5e 71 71 88 77     a`..Csxig..^qq.w
    f6e6:	8c 8b 83 9c 96 a2 a4 9c 87 7c 7d 63 8d a0 97 93     .........|}c....
    f6f6:	85 91 8f 9a 9c ac a1 8e 7c 7e 7f 6f 8d 99 a2 a5     ........|~.o....
    f706:	a8 b5 aa a6 9e 8c 87 75 75 7c 7a 6c 6a 72 78 90     .......uu|zljrx.
    f716:	7d 73 8e 8a 78 6d 7a 76 60 75 68 68 8f 8b 94 83     }s..xmzv`uhh....
    f726:	83 98 76 98 93 7e 83 6c 63 54 5d 87 6d 62 6b 66     ..v..~.lcT].mbkf
    f736:	69 7f 80 80 81 72 90 87 79 77 8c 7f 7c 74 76 97     i....r..yw..|tv.
    f746:	7e 8d 8a 73 83 77 6e 6c 68 7e 55 69 79 6c 74 86     ~..s.wnlh~Uiylt.
    f756:	7e 5f 84 87 84 77 7f 72 5b 66 75 7e 64 77 83 91     ~_...w.r[fu~dw..
    f766:	61 66 85 73 84 64 7a 7a 80 74 74 88 7e 96 89 9b     af.s.dzz.tt.~...
    f776:	7b 89 90 84 91 82 a4 7b 7f 89 66 6c 7b 9b 87 8d     {......{..fl{...
    f786:	94 92 89 a4 c4 9e 9b 97 9e ab 7e 76 9b a4 9d 8e     ..........~v....
    f796:	86 a3 8a 85 a5 9b 9b 87 8f 86 86 85 83 88 7c 84     ..............|.
    f7a6:	87 8a 8c 8e 8c 98 74 82 88 68 66 4e 6b 65 63 5c     ......t..hfNkec\
    f7b6:	5f 71 64 62 5f 6f 69 67 52 5f 77 62 6c 63 72 68     _qdb_oigR_wblcrh
    f7c6:	8f 82 79 9f 94 a0 76 99 a1 84 80 68 65 73 6b 6e     ..y...v....heskn
    f7d6:	73 84 88 61 7e 83 79 72 7c 95 7f 7d 80 64 7d 73     s..a~.yr|..}.d}s
    f7e6:	70 73 6c 6a 5c 53 5b 74 68 75 69 72 86 82 68 73     pslj\S[thuir..hs
    f7f6:	88 7a 82 6f 89 86 83 99 8e 9e 91 90 80 74 79 78     .z.o.........tyx
    f806:	73 7a 90 8b 91 7e 89 85 9c 93 7e 9e 86 82 8b ae     sz...~....~.....
    f816:	bd ad af 9d 99 9f 95 8d 86 93 86 65 69 8d 80 75     ...........ei..u
    f826:	7e 7b 82 85 87 7a 8c 77 75 7a 87 9f 8e 9c 91 8e     ~{...z.wuz......
    f836:	94 a1 a6 8b 7e 84 7a 67 8c 84 68 6a 78 72 6e 7d     ....~.zg..hjxrn}
    f846:	73 6a 71 75 58 50 64 83 88 7f 7c 6d 6e 74 75 6c     sjquXPd...|mntul
    f856:	64 5d 54 68 80 7a 7f 89 88 81 7d 79 70 69 76 7a     d]Th.z....}ypivz
    f866:	6a 83 8b 8c 9c 98 8d 79 6d 7f 7a 71 65 62 63 73     j......ym.zqebcs
    f876:	76 69 64 5f 68 69 73 6d 6d 70 78 78 8a 98 9d a7     vid_hismmpxx....
    f886:	a0 a2 92 83 81 79 82 82 75 7e 79 8a 6a 76 85 7b     .....y..u~y.jv.{
    f896:	85 78 7b 7a 88 76 77 84 84 82 8f 94 93 93 97 99     .x{z.vw.........
    f8a6:	a6 a8 97 95 91 97 8b 97 98 9b 8d 93 96 8e 8d 93     ................
    f8b6:	96 83 85 8a 8a 8d 9d 9a 8a 7c 7c 75 71 77 6f 72     .........||uqwor
    f8c6:	7d 77 79 76 74 7a 78 7a 70 69 6b 6a 63 68 6c 76     }wyvtzxzpikjchlv
    f8d6:	85 85 8a 7b 6e 70 68 66 70 6f 6e 72 73 72 7d 83     ...{nphfponrsr}.
    f8e6:	86 8a 75 6f 6f 7e 7a 6c 7b 7c 88 8c 92 91 8b 91     ..uoo~zl{|......
    f8f6:	81 95 7f 77 6f 6b 81 79 77 71 7b 72 82 71 6c 72     ...wok.ywq{r.qlr
    f906:	6d 74 69 70 6e 67 6e 6b 75 7b 7b 76 72 76 66 70     mtipngnku{{vrvfp
    f916:	71 80 89 7f 74 7e 85 8e 8d 87 90 7d 86 7d 84 91     q...t~.....}.}..
    f926:	90 91 94 a0 a6 af 9d 95 93 86 67 75 89 7c 86 87     ..........gu.|..
    f936:	93 98 91 91 83 8a 88 74 6d 64 7d 83 82 92 93 a1     .......tmd}.....
    f946:	a4 9f a3 8f 83 74 73 85 71 79 73 7a 7f 81 83 8c     .....ts.qysz....
    f956:	80 7a 6f 68 69 72 88 75 83 89 95 9f 8b 95 8f 8b     .zohir.u........
    f966:	80 55 66 6d 74 75 6b 78 7a 7a 7c 84 7c 6e 68 6c     .Ufmtukxzz|.|nhl
    f976:	6b 7e 73 68 75 73 8d 84 88 87 6a 76 6e 71 7d 80     k~shus....jvnq}.
    f986:	8d 80 88 8a 75 7c 83 83 70 5f 65 66 71 84 7f 7f     ....u|..p_efq...
    f996:	81 8a 8f 8c 93 7e 74 71 62 66 6e 7a 82 87 8c 7e     .....~tqbfnz...~
    f9a6:	8d 95 89 8d 6d 72 7a 6e 87 88 83 90 8c 93 8e 90     ....mrzn........
    f9b6:	8a 82 82 6c 75 76 78 7d 7e 85 84 87 8e 87 85 7b     ...luvx}~......{
    f9c6:	73 76 76 7c 80 84 86 8b 83 95 86 8c 8d 8d 91 8a     svv|............
    f9d6:	90 82 8f 95 8e 9c 8f 8d 95 8a 87 76 71 5f 76 73     ...........vq_vs
    f9e6:	6a 6f 6e 77 74 6f 6f 70 70 6a 76 73 7a 78 7a 85     jonwtooppjvszxz.
    f9f6:	80 7b 83 8e 81 89 77 7e 8e 92 7f 8e 85 96 a2 8e     .{....w~........
    fa06:	95 8e 85 81 8c 75 77 75 84 6d 63 6b 73 84 76 6d     .....uwu.mcks.vm
    fa16:	7e 7b 6d 84 8c 80 72 68 70 6f 91 6c 94 92 90 86     ~{m...rhpo.l....
    fa26:	89 77 8a 7e 50 a5 6d 91 89 97 7d 83 78 68 71 45     .w.~P.m...}.xhqE
    fa36:	75 6e 58 75 63 51 69 51 5c 85 76 a9 b3 9a af a9     unXucQiQ\.v.....
    fa46:	9c 9d d3 bc ab 9b 95 9c 89 67 7c 88 63 6f 55 43     .........g|.coUC
    fa56:	5c 66 50 53 65 4d 6c 67 83 86 81 84 77 60 44 69     \fPSeMlg....w`Di
    fa66:	45 4a 72 4c 7f 84 78 b1 a0 9f a3 c7 a2 b2 b8 c1     EJrL..x.........
    fa76:	b8 b4 b4 ae a4 73 aa 8b 7b 9e 7f 6e 7d 5a 6a 75     .....s..{..n}Zju
    fa86:	63 63 7a 68 83 79 88 84 74 93 6f 68 48 6b 4d 3c     cczh.y..t.ohHkM<
    fa96:	5c 4e 59 56 65 6d 79 83 91 9a a5 bb ba d3 c5 bc     \NYVemy.........
    faa6:	ca bf bd 96 a6 8f 6e 95 7e 70 86 86 84 97 90 a4     ......n.~p......
    fab6:	96 81 92 81 80 6a 70 60 64 3d 3e 50 1e 30 3b 42     .....jp`d=>P.0;B
    fac6:	35 3b 3e 36 3f 4b 71 56 7b 7e 79 7d 75 7e 7f 79     5;>6?KqV{~y}u~.y
    fad6:	52 92 52 5b 70 78 83 71 90 89 a0 96 b5 a8 ac b6     R.R[px.q........
    fae6:	b7 c4 a6 bc a4 90 a3 8d 8d 84 9c 95 93 a2 8b bd     ................
    faf6:	ad b5 bd b7 c2 ad c4 a4 a0 9c 8e 86 8a 85 57 71     ..............Wq
    fb06:	6f 6a 56 6b 67 4c 54 3d 5a 41 52 57 57 56 64 56     ojVkgLT=ZARWWVdV
    fb16:	49 6b 45 41 3e 48 51 46 45 5c 7d 6a 75 9c 99 96     IkEA>HQFE\}ju...
    fb26:	9f af a1 a2 92 84 92 98 7b 84 8d 8f 94 7e 8b b3     ........{....~..
    fb36:	b0 83 a8 ba b1 a3 aa b6 ba aa 8d 90 95 8b 64 7a     ..............dz
    fb46:	6d 79 7b 5b 8c a8 7c 81 99 9b 90 75 78 7c 7b 5d     my{[..|....ux|{]
    fb56:	44 5c 65 33 4e 51 54 59 22 52 64 53 4f 4d 62 67     D\e3NQTY"RdSOMbg
    fb66:	5e 5b 78 86 76 5b 6c 8c 69 5a 71 75 8e 70 71 af     ^[x.v[l.iZqu.pq.
    fb76:	a1 96 98 ab bc a3 93 a8 b3 b4 84 87 b0 a5 84 8c     ................
    fb86:	a2 a0 98 6f 8f a5 77 7e 87 a2 a8 80 8c a5 bd 87     ...o..w~........
    fb96:	73 aa 8e 7f 71 7b 85 72 59 63 84 73 5f 50 85 84     s...q{.rYc.s_P..
    fba6:	65 64 70 80 5f 3d 4d 67 4a 41 47 5b 61 49 64 83     edp._=MgJAG[aId.
    fbb6:	8c 89 5e 95 9b 85 8b 7c aa 9a 87 89 9f 92 81 98     ..^....|........
    fbc6:	95 a7 9b 97 b1 b4 b8 88 9b ca a0 97 8a a5 9d 7d     ...............}
    fbd6:	87 98 95 7f 8c 8d 9a 88 7f 8f 96 90 6a 6f 8f 83     ............jo..
    fbe6:	62 51 82 75 4a 57 5b 69 61 4c 5b 6c 5e 4e 51 71     bQ.uJW[iaL[l^NQq
    fbf6:	7b 5a 4c 70 92 64 49 7d 89 66 60 72 7b 7a 62 5f     {ZLp.dI}.f`r{zb_
    fc06:	86 82 68 5b 75 8e 68 56 6f 9c 88 6a 91 a7 91 6e     ..h[u.hVo..j...n
    fc16:	86 8f 7e 74 5c 80 88 6e 6f 89 b2 8d 82 8e a9 ba     ..~t\..no.......
    fc26:	82 84 aa 9e 7d 7c 9a 86 78 72 73 96 83 66 79 b1     ....}|..xrs..fy.
    fc36:	a9 7c 8d ab c1 94 79 a0 a5 86 65 93 89 7a 80 65     .|....y...e..z.e
    fc46:	99 8c 6d 73 95 ae 6e 76 96 a5 95 68 95 9e 88 6d     ..ms..nv...h...m
    fc56:	86 91 6e 7d 52 6c 84 49 48 64 82 5c 4d 73 80 94     ..n}Rl.IHd.\Ms..
    fc66:	5f 72 8c 77 5e 55 79 5a 63 5b 51 8b 7a 65 79 a1     _r.w^UyZc[Q.zey.
    fc76:	a2 72 7d 9b b9 7d 81 a4 8c 9b 74 96 95 80 8f 76     .r}..}....t....v
    fc86:	a2 ad 7d 91 a8 b3 93 74 99 97 86 67 88 7e 85 8b     ..}....t...g.~..
    fc96:	7d 93 79 81 7b 6a 8d 60 50 82 74 74 4f 70 8a 8b     }.y.{j.`P.ttOp..
    fca6:	74 78 99 7e 88 72 77 73 5f 72 53 6c 75 40 72 82     tx.~.rws_rSlu@r.
    fcb6:	8a 78 75 94 aa 99 6a a6 90 8c 7b 73 91 65 7b 74     .xu...j...{s.e{t
    fcc6:	60 8b 56 57 84 7a 73 50 78 80 92 65 78 9d 74 88     `.VW.zsPx..ex.t.
    fcd6:	66 82 78 68 84 67 82 7d 5f 81 85 8a 5e 70 8e 88     f.xh.g.}_...^p..
    fce6:	85 65 94 7b 78 75 61 75 5d 59 74 73 86 77 7b a2     .e.{xuau]Yts.w{.
    fcf6:	a7 96 80 ab aa a6 76 88 aa 74 8b 78 85 84 74 94     ......v..t.x..t.
    fd06:	95 9c 8f 83 9d 9d 8c 7b 83 8a 8f 83 62 9e 8e 84     .......{....b...
    fd16:	98 8e 99 89 97 a3 97 96 7f 7d 90 80 76 72 8f 91     .........}..vr..
    fd26:	a2 86 a3 bd 84 9e 99 7d 68 6d 6b 6b 6c 64 69 7d     .......}hmkkldi}
    fd36:	89 62 6d 80 7c 91 7b 71 96 7d 60 8b 88 6d 72 79     .bm.|.{q.}`..mry
    fd46:	93 89 6e 7d 91 95 77 6a 85 7a 7e 8b 70 76 91 58     ..n}..wj.z~.pv.X
    fd56:	5a 84 5e 45 49 68 72 53 60 76 86 82 54 74 8a 7b     Z.^EIhrS`v..Tt.{
    fd66:	77 6f 7c 83 77 48 84 81 3d 4e 5b 80 68 5b 78 88     wo|.wH..=N[.h[x.
    fd76:	a4 6f 74 ab 9f 94 86 96 9f 8c 6c 5d a7 86 60 7e     .ot.......l]..`~
    fd86:	a8 cb 83 93 a8 af 9a 53 87 7d 72 64 4c 96 8a 86     .......S.}rdL...
    fd96:	6c a7 cc 73 8c 87 b8 97 63 79 88 a5 5a 4d 8e 85     l..s....cy..ZM..
    fda6:	7f 5c 84 ae 82 73 6d b2 8f 5b 6c 7b a1 69 5e 76     .\...sm..[l{.i^v
    fdb6:	9c 7e 40 77 8c 7b 76 58 92 90 6a 56 6c a2 5e 52     .~@w.{vX..jVl.^R
    fdc6:	63 96 90 52 73 95 a7 6a 6e 9f 95 96 6d 7d b5 8a     c..Rs..jn...m}..
    fdd6:	73 7f af 96 65 6b 74 a2 75 61 7d 98 8a 49 75 96     s...ekt.ua}..Iu.
    fde6:	9a 8b 64 b1 aa 7f 84 81 a8 6c 63 5b 8e a4 60 7c     ..d......lc[..`|
    fdf6:	92 aa 70 69 9d 97 9f 6e 79 aa 82 78 6d 97 98 7a     ..pi...ny..xm..z
    fe06:	78 8b cb a0 89 94 b5 9f 68 83 87 92 75 49 7a 85     x.......h...uIz.
    fe16:	6e 66 76 9e 84 78 74 95 9f 75 76 75 8d 63 4d 66     nfv..xt..uvu.cMf
    fe26:	72 80 53 61 8c 70 63 56 6e 6e 57 53 53 86 6f 5f     r.Sa.pcVnnWSS.o_
    fe36:	5d 80 83 4c 6c 82 8f 7f 69 87 8b 72 64 6e 80 78     ]..Ll...i..rdn.x
    fe46:	61 5b 81 93 7b 79 88 a6 82 6f 8a 8d 9a 7a 6d 96     a[..{y...o...zm.
    fe56:	82 74 6d 82 99 85 7e 7c a9 97 84 84 94 96 58 65     .tm...~|......Xe
    fe66:	72 7d 7d 5e 82 a3 85 86 90 a2 a3 98 82 9a b0 98     r}}^............
    fe76:	7a 7d 9e 79 5e 79 7e 8f 7a 65 8d 7b 68 72 79 84     z}.y^y~.ze.{hry.
    fe86:	85 76 75 94 9a 87 76 99 94 5f 63 7b 77 7f 5f 77     .vu...v.._c{w._w
    fe96:	87 6f 83 79 90 94 87 77 7e ae 89 77 8c 99 88 60     .o.y...w~..w...`
    fea6:	89 83 89 89 6c 93 8f 7f 80 80 8a 81 5a 60 80 87     ....l.......Z`..
    feb6:	6d 57 84 78 5b 60 7c 82 92 88 82 b2 a7 a3 95 97     mW.x[`|.........
    fec6:	9b 71 68 63 97 93 67 82 95 91 71 92 8d 91 96 6c     .qhc..g...q....l
    fed6:	8f 85 7d 6a 79 86 7b 77 66 9d a1 82 6b 84 8a 5f     ..}jy.{wf...k.._
    fee6:	64 5a 4c 70 4a 52 74 77 67 63 70 72 6c 5b 81 9a     dZLpJRtwgcprl[..
    fef6:	a4 76 96 b4 90 86 82 81 81 7b 61 7d 82 5e 65 66     .v.......{a}.^ef
    ff06:	7b 7f 6c 81 96 ac 82 75 92 90 7a 70 5e 7c 91 5f     {.l....u..zp^|._
    ff16:	70 7a 87 53 67 84 7a 7f 61 89 8b 9a 8b 93 b8 8d     pz.Sg.z.a.......
    ff26:	8e 68 67 8a 67 61 6f 8c 82 7e 99 8f a9 8b 90 97     .hg.gao..~......
    ff36:	b1 9e 6b 9d 70 68 69 53 7a 82 7d 85 91 8f 75 89     ..k.phiSz.}...u.
    ff46:	89 84 7e 7d 85 8b 98 65 82 8d 77 82 70 7a 8d 6b     ..~}...e..w.pz.k
    ff56:	53 72 8e 72 82 a0 8d 92 73 81 7c 95 7e 68 94 7f     Sr.r....s.|.~h..
    ff66:	89 61 69 94 82 69 79 98 7c 75 90 6c 6c 7b 70 72     .ai..iy.|u.ll{pr
    ff76:	a0 b1 72 9b 9a 8d 8b 63 88 90 79 80 7d 9d 69 92     ..r....c..y.}.i.
    ff86:	96 67 99 72 7a 63 89 68 59 97 7b 98 7f 88 90 79     .g.rzc.hY.{....y
    ff96:	87 74 96 6e 73 9a 61 6f 62 66 74 8a 98 7c 9d 99     .t.ns.aobft..|..
    ffa6:	81 71 52 81 65 75 71 79 8a 49 9d 5c 57 76 51 75     .qR.euqy.I.\WvQu
    ffb6:	65 97 69 74 92 84 9f 6a 9c 8f 89 89 66 92 50 7b     e.it...j....f.P{
    ffc6:	8d 4f 74 7d 7f 79 92 94 8f a0 9d a5 8e 88 87 73     .Ot}.y.........s
    ffd6:	8d 73 96 83 60 a0 77 5b 64 77 76 81 94 8a 90 92     .s..`.w[dwv.....
    ffe6:	9d 7b 6c 8e 75 72 63 6d 81 48 73 8a 65 74 97 8b     .{l.urcm.Hs.et..
    fff6:	9b a0 93 83 7d a4 96 77 87 83 76 79 71 85 77 83     ....}..w..vyq.w.
   10006:	9d 78 6f 84 76 71 85 80 86 83 93 9f 89 88 79 6d     .xo.vq........ym
   10016:	7c 79 82 6b 70 78 83 6d 53 8a 79 85 7a 8b 91 71     |y.kpx.mS.y.z..q
   10026:	9c 86 79 7e 71 79 72 7f 74 75 80 80 8d 60 82 81     ..y~qyr.tu...`..
   10036:	80 7e 79 91 6b 9c a3 7b 7c 73 7a 67 83 8b 73 97     .~y.k..{|szg..s.
   10046:	8e 8d 77 6d 8b 72 76 7c 8e 80 7b b1 88 87 82 84     ..wm.rv|..{.....
   10056:	95 80 9e 6d 7a 88 60 6a 62 79 63 77 73 80 95 74     ...mz.`jbycws..t
   10066:	a6 89 80 80 6c 7d 5f 7c 75 5b 81 7e 64 6a 81 74     ....l}_|u[.~dj.t
   10076:	7b 76 70 88 76 9d a2 87 9f 8a 96 86 85 81 76 94     {vp.v.........v.
   10086:	7f 7b 56 6a 74 5b 7e 61 77 78 7b ae 7a 93 95 96     .{Vjt[~awx{.z...
   10096:	ae 94 a2 7d 91 92 8b 68 5a 84 5b 6b 5c 59 73 59     ...}...hZ.[k\YsY
   100a6:	aa 9e 89 9d 8b 9b 8b 92 76 7e 8f 7b 6b 62 6d 60     ........v~.{kbm`
   100b6:	7d 73 64 78 6b 89 9d 95 9a 8e 96 92 89 85 7f 92     }sdxk...........
   100c6:	89 8c 70 5e 70 5a 66 66 70 7c 6f 9a 9f 88 83 89     ..p^pZffp|o.....
   100d6:	8e 88 95 81 88 8c 88 7f 75 7f 6f 6a 66 61 6b 6d     ........u.ojfakm
   100e6:	74 86 8d 79 7a 7e 82 88 83 8e 89 92 8d 86 82 88     t..yz~..........
   100f6:	80 65 7b 7b 6d 77 7d 7e 78 6d 7c 80 76 8b 89 94     .e{{mw}~xm|.v...
   10106:	ad a4 a5 95 91 97 75 6d 73 78 77 6a 78 72 70 73     ......umsxwjxrps
   10116:	7d 8a 86 81 86 a4 9b 88 8f 8a 8b 83 71 74 63 72     }...........qtcr
   10126:	6a 6b 6c 57 65 64 7a 7b 79 83 8e a8 98 90 85 7e     jklWedz{y......~
   10136:	88 6f 6f 76 7c 77 74 8a 82 73 78 8b 89 81 80 7d     .oov|wt..sx....}
   10146:	9a 8e 83 8a 78 78 78 6c 6b 6d 74 76 7a 7e 82 7f     ....xxxlkmtvz~..
   10156:	77 8d 94 9b 8a 8e a1 80 7a 7a 7e 82 67 69 6d 74     w.......zz~.gimt
   10166:	78 73 88 7f 7a 79 75 82 87 86 86 8d 8d 84 83 87     xs..zyu.........
   10176:	88 85 74 73 7d 7f 7b 7b 83 84 81 82 85 93 83 74     ..ts}.{{.......t
   10186:	85 8f 76 6f 7f 86 80 78 75 79 88 89 86 8c 84 7a     ..vo...xuy.....z
   10196:	69 6f 7a 77 72 6a 81 8b 82 7f 88 a1 97 7f 87 96     iozwrj..........
   101a6:	9c 81 80 80 7a 70 56 6a 74 6e 63 6a 92 80 7c 8b     ....zpVjtncj..|.
   101b6:	8e a2 89 88 87 93 90 76 7c 7b 82 72 66 74 77 75     .......v|{.rftwu
   101c6:	6b 83 90 8c 88 88 9b 8f 77 7d 8c 8d 88 7f 82 7d     k.......w}.....}
   101d6:	73 65 6c 7f 83 7e 8b 99 89 89 89 97 91 7b 7b 74     sel..~.......{{t
   101e6:	83 77 68 6d 65 6a 65 6b 7a 7f 81 7d 8c 91 88 82     .whmejekz..}....
   101f6:	7f 95 80 6c 71 77 7f 6b 71 75 6d 7b 74 78 87 89     ...lqw.kqum{tx..
   10206:	81 91 93 92 88 7b 86 79 70 76 6f 80 81 7f 87 7a     .....{.ypvo....z
   10216:	8b 84 7a 92 88 87 87 86 7c 70 73 6d 80 74 76 7e     ..z.....|psm.tv~
   10226:	77 7d 75 7f 82 76 86 84 87 8c 81 87 86 84 83 7c     w}u..v.........|
   10236:	74 7c 75 6c 72 74 73 7d 83 89 7e 8b 88 80 8a 80     t|ulrts}..~.....
   10246:	7f 80 86 7c 7c 7c 7f 7e 84 8e 8e 8d 8b 91 93 83     ...|||.~........
   10256:	81 87 7f 89 7c 76 80 77 7f 6f 71 79 6b 75 80 8c     ....|v.w.oqyku..
   10266:	82 83 80 92 93 87 88 7e 86 7c 6f 6d 64 6c 82 72     .......~.|omdl.r
   10276:	80 85 82 7f 83 75 7c 88 86 97 7e 6c 64 6f 86 90     .....u|...~ldo..
   10286:	9a 9f 90 84 6c 72 7f 99 96 98 8b 7a 77 6f 74 7a     ....lr.....zwotz
   10296:	85 76 7d 80 7c 6e 6b 72 7c 70 80 85 88 83 73 88     .v}.|nkr|p....s.
   102a6:	80 73 6a 62 6a 63 65 65 70 81 75 80 83 91 89 82     .sjbjceep.u.....
   102b6:	7e 89 87 7c 84 97 9a 97 94 90 a5 8e 82 8a 91 82     ~..|............
   102c6:	82 75 74 8b 7b 7f 7d 80 85 84 9f 99 92 80 75 8b     .ut.{.}.......u.
   102d6:	89 7f 71 88 84 83 81 7f 94 84 79 78 77 75 67 6a     ..q.......yxwugj
   102e6:	81 83 81 7a 77 7e 7b 7a 78 72 68 67 6e 7e 7a 6f     ...zw~{zxrhgn~zo
   102f6:	6d 72 78 7e 6f 76 77 74 68 61 76 6f 6d 67 7f 79     mrx~ovwthavomg.y
   10306:	71 75 7c 88 7e 74 6e 72 81 65 6a 76 87 80 7b 88     qu|.~tnr.ejv..{.
   10316:	7e 7f 75 85 7b 8a 79 6e 85 88 8b 82 85 8e 7b 7d     ~.u.{.yn......{}
   10326:	7f 79 8c 89 89 87 95 88 91 8b 98 81 76 87 7c 7d     .y..........v.|}
   10336:	81 80 89 9c 9f 9a 91 a2 7e 94 7e 8e 7a 77 92 87     ........~.~.zw..
   10346:	a4 97 a4 9f a2 ad a2 97 a8 9c 9a 94 a7 90 a8 9c     ................
   10356:	94 8f 88 94 86 a2 8d 82 71 6c 6b 68 5b 6b 67 77     ........qlkh[kgw
   10366:	71 7c 67 72 6e 53 5f 51 57 57 66 60 67 5d 67 52     q|grnS_QWWf`g]gR
   10376:	6c 66 53 58 5f 6b 5d 6b 6d 6b 73 78 70 62 7a 64     lfSX_k]kmksxpbzd
   10386:	69 6b 7c 7c 76 8b 8b 9c 80 9a 8c 91 8c 7b 72 62     ik||v........{rb
   10396:	6b 5a 6d 6e 6f 71 85 98 9e a0 98 9d a7 97 90 93     kZmnoq..........
   103a6:	98 91 8a 85 7f 8b 7c 78 7d 71 71 6c 79 8d 8e 86     ......|x}qqly...
   103b6:	84 98 97 88 91 91 88 88 73 82 82 85 82 83 9a 85     ........s.......
   103c6:	8c 80 8e 93 89 7a 71 8f 7d 73 87 7e 8b 7d 7f 7c     .....zq.}s.~.}.|
   103d6:	82 8b 76 8d 88 78 77 7c 90 8e 87 81 80 89 72 7b     ..v..xw|......r{
   103e6:	77 73 81 81 8a 92 98 93 8e 9b 81 80 75 70 78 68     ws..........upxh
   103f6:	70 62 79 7b 77 8d 7e 75 79 6e 6f 6b 71 64 6b 7a     pby{w.~uynokqdkz
   10406:	73 7f 7e 91 8d 89 87 8a 91 84 8f 8d 93 9f a8 a1     s.~.............
   10416:	9c a5 8a 8a 8e 8a 7e 77 6f 6e 70 6d 69 66 70 6f     ......~wonpmifpo
   10426:	7a 65 74 7a 6a 69 6b 70 59 69 67 64 6b 5f 65 62     zetzjikpYigdk_eb
   10436:	72 5d 56 68 62 6e 68 72 76 77 78 71 73 6d 6d 69     r]Vhbnhrvwxqsmmi
   10446:	6f 74 7d 7d 89 9e 9a 93 90 90 93 92 81 7d 88 75     ot}}.........}.u
   10456:	64 6d 78 70 79 90 90 9b 9c 96 9d a5 a5 94 97 a0     dmxpy...........
   10466:	9a 9b 8c 98 8b 7c 78 79 82 77 80 76 92 99 92 9d     .....|xy.w.v....
   10476:	a5 9b 82 7c 80 85 88 83 84 86 89 84 8c 95 89 89     ...|............
   10486:	90 85 86 84 72 76 75 7b 6f 74 82 88 86 7c 86 8a     ....rvu{ot...|..
   10496:	85 81 87 8f 81 8b 8a 8b 88 6c 6f 76 72 5f 66 6e     .........lovr_fn
   104a6:	6f 73 75 82 85 8d 92 87 8b 89 80 79 74 81 74 66     osu........yt.tf
   104b6:	6f 77 72 75 76 80 8a 83 76 73 6f 65 56 61 72 65     owruv...vsoeVare
   104c6:	79 83 7c 82 75 76 7b 8c 8e 8b 89 8e a2 96 a3 a0     y.|.uv{.........
   104d6:	9b 97 7f 75 77 7f 71 71 7c 7b 65 76 89 79 78 77     ...uw.qq|{ev.yxw
   104e6:	74 77 7c 75 6d 79 79 6b 71 7a 79 6d 7a 69 6a 6c     tw|umyykqzymzijl
   104f6:	67 6d 60 69 60 55 77 83 7a 6f 76 74 62 72 7c 83     gm`i`Uw.zovtbr|.
   10506:	87 92 8f 99 a7 8b 90 98 95 84 81 83 7b 7b 78 78     ............{{xx
   10516:	7f 87 82 76 7d 87 87 92 98 a7 99 8f 99 8c 92 8a     ...v}...........
   10526:	82 84 8b 8a 72 84 82 73 7e 82 83 7e 8c 93 8d 91     ....r..s~..~....
   10536:	88 8a 81 81 81 71 85 83 88 94 89 96 81 82 84 82     .....q..........
   10546:	88 88 88 77 7e 68 61 6d 6f 76 6f 80 84 83 95 96     ...w~hamovo.....
   10556:	97 9c 97 8c 8f 82 80 82 81 7d 75 73 71 68 61 68     .........}usqhah
   10566:	6d 70 7d 89 8b 81 81 76 77 7c 80 7b 76 87 6f 72     mp}....vw|.{v.or
   10576:	76 7c 7f 80 86 7b 89 8d 86 7e 79 6b 56 56 5e 64     v|...{...~ykVV^d
   10586:	61 72 75 7d 90 8c 94 9a 9c 97 94 9f 9b 89 93 8c     aru}............
   10596:	72 79 75 76 74 7d 74 7b 86 8b 8f 7c 8b 7d 74 75     ryuvt}t{...|.}tu
   105a6:	7b 82 76 79 77 6b 69 64 60 78 85 7b 7f 94 8c 81     {.vywkid`x.{....
   105b6:	79 70 74 61 69 5b 5c 61 5b 6a 72 82 81 7e 8f 9b     yptai[\a[jr..~..
   105c6:	93 8c a5 8c 91 8d 79 7a 77 7f 69 79 85 6c 6f 86     ......yzw.iy.lo.
   105d6:	87 79 7d 8e 8f 90 8e 99 95 8f 96 78 7f 7f 73 71     .y}........x..sq
   105e6:	74 90 7c 8b 9f 9a 90 82 7d 73 8b 72 6b 73 72 76     t.|.....}s.rksrv
   105f6:	6c 83 92 8e 97 96 9d 9b 91 97 96 90 7b 6c 74 7a     l...........{ltz
   10606:	6d 5e 74 6a 76 85 79 7e 7e 8d 82 8d a4 8f 88 91     m^tjv.y~~.......
   10616:	93 7c 74 7e 7e 7c 74 77 73 85 8e 82 83 83 77 6d     .|t~~|tws.....wm
   10626:	7c 7f 75 6d 86 7f 7c 78 7b 81 8c 8f 87 8c 8b 8d     |.um..|x{.......
   10636:	7a 81 78 76 73 77 77 76 6a 6c 7a 7a 7a 67 6d 82     z.xvswwvjlzzzgm.
   10646:	7e 77 83 86 8d 82 87 87 7c 7d 7c 7e 85 7a 71 83     ~w......|}|~.zq.
   10656:	88 82 77 7b 86 87 7e 81 71 83 84 7d 84 82 82 81     ..w{..~.q..}....
   10666:	74 7f 85 69 76 88 86 72 6a 71 7b 75 6d 70 73 78     t..iv..rjq{umpsx
   10676:	6c 78 78 86 7b 74 a9 7c 8b 8c 7b ab 84 8d 84 82     lxx.{t.|..{.....
   10686:	9a 94 80 78 9d 7e 7a 8f 88 95 71 73 94 58 63 6c     ...x.~z...qs.Xcl
   10696:	54 83 69 4f 8f a2 7f 76 7d 7a 7a 70 7e 92 83 8b     T.iO...v}zzp~...
   106a6:	74 6d 86 56 53 7e 75 95 74 71 99 7d 83 8c ae ba     tm.VS~u.tq.}....
   106b6:	a2 7d 94 94 73 75 7b 7c 90 5e 5b 7e 55 70 6c 67     .}..su{|.^[~Uplg
   106c6:	8b 70 54 63 88 92 8d 95 95 9c 90 91 87 72 84 6d     .pTc.........r.m
   106d6:	53 7d 61 6e 7c 79 94 71 90 96 a5 b8 ac a6 a6 ab     S}an|y.q........
   106e6:	9e 99 94 98 87 95 7f 64 67 5d 74 78 63 64 7e 97     .......dg]txcd~.
   106f6:	99 ae ad ad af a1 a0 8a 89 7d 60 6d 71 68 63 6e     .........}`mqhcn
   10706:	5d 79 79 62 85 7f 95 76 95 aa 88 88 81 8f 73 80     ]yyb...v......s.
   10716:	5a 50 5a 38 43 3b 43 59 55 62 8e 7e 97 94 8d a4     ZPZ8C;CYUb.~....
   10726:	8c 8a 71 83 78 77 5d 50 69 4e 4a 65 57 5d 6a 52     ..q.xw]PiNJeW]jR
   10736:	8e 86 a4 bc a9 ca a7 9e 8e 9c 90 77 6f 48 5e 4f     ...........woH^O
   10746:	55 64 82 7d 90 9d 9c c5 ac bd 9b be a8 8d 85 8f     Ud.}............
   10756:	86 6a 75 61 6e 5c 60 4b 67 6d 5f 8e 90 a7 c3 b2     .juan\`Kgm_.....
   10766:	c2 b6 c5 a1 96 95 7d 72 4b 67 68 6a 64 83 8e 99     ......}rKghjd...
   10776:	9f b1 b3 ad ca a4 a8 a9 8a 7e 5b 6e 47 4e 51 46     .........~[nGNQF
   10786:	51 38 54 48 56 64 83 73 8f 9c 8d 94 8c 8f 65 73     Q8THVd.s......es
   10796:	5c 47 44 37 51 45 5b 59 6b 7b 75 8c 96 8d 98 a5     \GD7QE[Yk{u.....
   107a6:	8c b0 95 8b 85 93 7f 6a 7b 49 6c 62 52 64 67 7b     .......j{IlbRdg{
   107b6:	72 87 a7 93 b8 a3 9d af 99 96 8a 96 82 81 6a 6f     r.............jo
   107c6:	89 5f 64 75 7f 7b 77 95 8b 9e b1 a1 b5 b4 a6 9a     ._du.{w.........
   107d6:	8f 8c 64 68 47 56 64 44 59 63 81 75 81 95 8c b6     ..dhGVdDYc.u....
   107e6:	a0 9d a8 98 9b 79 8f 82 70 62 45 72 45 4c 5f 6a     .....y..pbErEL_j
   107f6:	7f 72 99 96 b6 d0 b0 b0 ae a5 89 86 7b 64 5c 3f     .r..........{d\?
   10806:	5e 63 5a 78 78 93 86 8c a6 89 ba 99 8e 98 7c 93     ^cZxx.........|.
   10816:	65 7b 67 61 59 54 7c 4d 5e 6f 7a 79 74 9b 7d a1     e{gaYT|M^ozyt.}.
   10826:	ad 79 95 8e 95 81 7a 90 7a 70 6d 90 77 6b 7d 83     .y....z.zpm.wk}.
   10836:	8c 7e 90 83 93 b0 8c 8d 90 97 79 69 72 64 63 44     .~........yirdcD
   10846:	67 67 47 65 65 7b 6c 70 85 6f 99 84 72 86 85 7c     ggGee{lp.o..r..|
   10856:	5f 71 62 64 4d 5a 73 4a 61 62 7e 89 78 8b 8b ae     _qbdMZsJab~.x...
   10866:	aa 8f 98 a0 9e 82 8c 7f 92 7a 55 82 6b 5d 61 6e     .........zU.k]an
   10876:	89 72 81 8b a5 bd af ab a7 bf 9a 87 87 79 7f 51     .r...........y.Q
   10886:	67 78 61 77 84 9c 9c 9e a2 a5 b8 ac 8b 89 95 7f     gxaw............
   10896:	72 6a 62 63 64 55 67 73 67 79 81 8d 8e 8a a1 a5     rjbcdUgsgy......
   108a6:	a6 8d 79 86 71 70 70 67 6b 6a 6f 6a 76 73 7b 88     ..y.qppgkjojvs{.
   108b6:	87 8f 7b 84 89 97 98 7f 9f 95 91 8e 85 86 6d 8e     ..{...........m.
   108c6:	6b 60 78 6b 71 6e 83 82 78 8a 90 94 78 87 8e 76     k`xkqn..x...x..v
   108d6:	8d 7f 7e 68 70 84 58 60 61 5f 54 56 6a 62 7b 89     ..~hp.X`a_TVjb{.
   108e6:	9e 9a 94 ad 9d a0 a2 9b 8a 64 87 72 52 6d 84 7a     .........d.rRm.z
   108f6:	77 95 93 92 97 a2 a0 92 9e 8f 7a 72 65 61 40 52     w.........zrea@R
   10906:	73 59 3e 63 7c 5f 71 82 8f 8b 80 8f 72 75 7a 65     sY>c|_q.....ruze
   10916:	62 5e 6a 4d 47 64 7f 61 5c 97 89 77 7e 86 9d 83     b^jMGd.a\..w~...
   10926:	88 86 82 9e 89 8e 8b 9f a4 7b 85 97 98 57 62 8e     .........{...Wb.
   10936:	6b 63 55 82 86 7a 99 8d af ba ab a2 9b b9 93 8e     kcU..z..........
   10946:	97 96 8d 61 7c 81 71 71 70 9c 91 89 89 93 b0 94     ...a|.qqp.......
   10956:	9c 8e 8f 8b 6c 7c 5d 6a 5d 51 7b 74 72 6e 8e aa     ....l|]j]Q{trn..
   10966:	9d 98 91 9e 9a 7f 79 70 81 69 64 87 69 6e 6f 7f     ......yp.id.ino.
   10976:	85 6c 80 74 89 9d 8d 7d 89 a3 8e 80 8a 90 83 6d     .l.t...}.......m
   10986:	7e 80 5d 67 7d 72 77 67 73 81 86 99 7c 74 7d 7d     ~.]g}rwgs...|t}}
   10996:	88 7b 88 9a 8b 81 89 89 65 67 73 5c 45 39 63 62     .{......egs\E9cb
   109a6:	66 80 7f 8c 86 9c b0 90 a8 9a 8e 98 93 90 65 87     f.............e.
   109b6:	8a 5a 55 60 8f 7c 70 84 7f 8a 80 9a a4 8f 90 72     .ZU`.|p........r
   109c6:	7a 75 65 5c 3d 5c 59 41 4d 68 96 83 77 8f 9c 86     zue\=\YAMh..w...
   109d6:	74 88 7d 6c 62 6c 72 59 60 6a 58 75 7e 5e 79 99     t.}lblrY`jXu~^y.
   109e6:	a3 92 88 b7 b7 93 a6 a4 91 7b 6a 91 76 5f 63 72     .........{j.v_cr
   109f6:	78 73 8c 78 92 9e a6 8e 7b b1 84 69 7d 89 a1 77     xs.x....{..i}..w
   10a06:	92 bb 91 90 99 b0 a4 87 8f 6d 80 88 7b 6c 69 9a     .........m..{li.
   10a16:	67 64 7c 7f 95 6c 90 9d 7d 88 89 a5 88 76 75 68     gd|..l..}....vuh
   10a26:	79 74 6a 60 66 7c 75 75 88 99 92 89 97 95 84 84     ytj`f|uu........
   10a36:	84 87 6c 58 73 71 7b 83 78 81 7c 84 8b 7a 7f 7a     ..lXsq{.x.|..z.z
   10a46:	7a 84 79 87 82 81 83 84 83 68 7e 85 7b 74 77 94     z.y......h~.{tw.
   10a56:	79 82 92 78 72 66 82 85 57 7b 6c 72 6c 6b 7c 5e     y..xrf..W{lrlk|^
   10a66:	7c 7e 74 75 87 9a 7b 8e a5 8b 83 7c af ac 87 9b     |~tu..{....|....
   10a76:	9c 8f 72 6d 63 44 55 59 47 47 6c 77 5a 79 a3 9b     ..rmcDUYGGlwZy..
   10a86:	84 9c c3 b7 93 a2 ae 99 80 8a 74 7c 5d 63 61 43     ..........t|]caC

00010a96 <__c.2161>:
   10a96:	6e 61 6e 00                                         nan.

00010a9a <__c.2159>:
   10a9a:	69 6e 66 00 00 40 7a 10 f3 5a 00 a0 72 4e 18 09     inf..@z..Z..rN..
   10aaa:	00 10 a5 d4 e8 00 00 e8 76 48 17 00 00 e4 0b 54     ........vH.....T
   10aba:	02 00 00 ca 9a 3b 00 00 00 e1 f5 05 00 00 80 96     .....;..........
   10aca:	98 00 00 00 40 42 0f 00 00 00 a0 86 01 00 00 00     ....@B..........
   10ada:	10 27 00 00 00 00 e8 03 00 00 00 00 64 00 00 00     .'..........d...
   10aea:	00 00 0a 00 00 00 00 00 01 00 00 00 00 00 2c 76     ..............,v
   10afa:	d8 88 dc 67 4f 08 23 df c1 df ae 59 e1 b1 b7 96     ...gO.#....Y....
   10b0a:	e5 e3 e4 53 c6 3a e6 51 99 76 96 e8 e6 c2 84 26     ...S.:.Q.v.....&
   10b1a:	eb 89 8c 9b 62 ed 40 7c 6f fc ef bc 9c 9f 40 f2     ....b.@|o.....@.
   10b2a:	ba a5 6f a5 f4 90 05 5a 2a f7 5c 93 6b 6c f9 67     ..o....Z*.\.kl.g
   10b3a:	6d c1 1b fc e0 e4 0d 47 fe f5 20 e6 b5 00 d0 ed     m......G.. .....
   10b4a:	90 2e 03 00 94 35 77 05 00 80 84 1e 08 00 00 20     .....5w........ 
   10b5a:	4e 0a 00 00 00 c8 0c 33 33 33 33 0f 98 6e 12 83     N......3333..n..
   10b6a:	11 41 ef 8d 21 14 89 3b e6 55 16 cf fe e6 db 18     .A..!..;.U......
   10b7a:	d1 84 4b 38 1b f7 7c 1d 90 1d a4 bb e4 24 20 32     ..K8..|......$ 2
   10b8a:	84 72 5e 22 81 00 c9 f1 24 ec a1 e5 3d 27           .r^"....$...='

00010b98 <__ctors_end>:
   10b98:	11 24       	eor	r1, r1
   10b9a:	1f be       	out	0x3f, r1	; 63
   10b9c:	cf ef       	ldi	r28, 0xFF	; 255
   10b9e:	d1 e2       	ldi	r29, 0x21	; 33
   10ba0:	de bf       	out	0x3e, r29	; 62
   10ba2:	cd bf       	out	0x3d, r28	; 61
   10ba4:	00 e0       	ldi	r16, 0x00	; 0
   10ba6:	0c bf       	out	0x3c, r16	; 60

00010ba8 <__do_copy_data>:
   10ba8:	12 e0       	ldi	r17, 0x02	; 2
   10baa:	a0 e0       	ldi	r26, 0x00	; 0
   10bac:	b2 e0       	ldi	r27, 0x02	; 2
   10bae:	e8 e3       	ldi	r30, 0x38	; 56
   10bb0:	f7 e2       	ldi	r31, 0x27	; 39
   10bb2:	01 e0       	ldi	r16, 0x01	; 1
   10bb4:	0b bf       	out	0x3b, r16	; 59
   10bb6:	02 c0       	rjmp	.+4      	; 0x10bbc <__do_copy_data+0x14>
   10bb8:	07 90       	elpm	r0, Z+
   10bba:	0d 92       	st	X+, r0
   10bbc:	a2 3f       	cpi	r26, 0xF2	; 242
   10bbe:	b1 07       	cpc	r27, r17
   10bc0:	d9 f7       	brne	.-10     	; 0x10bb8 <__do_copy_data+0x10>

00010bc2 <__do_clear_bss>:
   10bc2:	23 e0       	ldi	r18, 0x03	; 3
   10bc4:	a2 ef       	ldi	r26, 0xF2	; 242
   10bc6:	b2 e0       	ldi	r27, 0x02	; 2
   10bc8:	01 c0       	rjmp	.+2      	; 0x10bcc <.do_clear_bss_start>

00010bca <.do_clear_bss_loop>:
   10bca:	1d 92       	st	X+, r1

00010bcc <.do_clear_bss_start>:
   10bcc:	af 34       	cpi	r26, 0x4F	; 79
   10bce:	b2 07       	cpc	r27, r18
   10bd0:	e1 f7       	brne	.-8      	; 0x10bca <.do_clear_bss_loop>
   10bd2:	24 d5       	rcall	.+2632   	; 0x1161c <main>
   10bd4:	0c 94 9a 93 	jmp	0x12734	; 0x12734 <_exit>

00010bd8 <__bad_interrupt>:
   10bd8:	0c 94 00 00 	jmp	0	; 0x0 <__vectors>

00010bdc <pi_calibrate>:

uint8_t printvar;

//	Calibrates the controller by driving to the end of the track in 
//	both directions
void pi_calibrate() {
   10bdc:	cf 93       	push	r28
   10bde:	df 93       	push	r29
	
	motor_speed(120);
   10be0:	88 e7       	ldi	r24, 0x78	; 120
   10be2:	90 e0       	ldi	r25, 0x00	; 0
   10be4:	2d d3       	rcall	.+1626   	; 0x11240 <motor_speed>
	
	position = motor_encoder_read();
   10be6:	6c d3       	rcall	.+1752   	; 0x112c0 <motor_encoder_read>
   10be8:	90 93 39 03 	sts	0x0339, r25
   10bec:	80 93 38 03 	sts	0x0338, r24
	#else
		//round up by default
		__ticks_dc = (uint32_t)(ceil(fabs(__tmp)));
	#endif

	__builtin_avr_delay_cycles(__ticks_dc);
   10bf0:	2f ef       	ldi	r18, 0xFF	; 255
   10bf2:	83 ef       	ldi	r24, 0xF3	; 243
   10bf4:	91 e0       	ldi	r25, 0x01	; 1
   10bf6:	21 50       	subi	r18, 0x01	; 1
   10bf8:	80 40       	sbci	r24, 0x00	; 0
   10bfa:	90 40       	sbci	r25, 0x00	; 0
   10bfc:	e1 f7       	brne	.-8      	; 0x10bf6 <pi_calibrate+0x1a>
   10bfe:	00 c0       	rjmp	.+0      	; 0x10c00 <pi_calibrate+0x24>
   10c00:	00 00       	nop
	int16_t lastpos;
	do {	
		_delay_ms(40);
		lastpos = position;
   10c02:	c0 91 38 03 	lds	r28, 0x0338
   10c06:	d0 91 39 03 	lds	r29, 0x0339
		position = motor_encoder_read();
   10c0a:	5a d3       	rcall	.+1716   	; 0x112c0 <motor_encoder_read>
   10c0c:	90 93 39 03 	sts	0x0339, r25
   10c10:	80 93 38 03 	sts	0x0338, r24
	} while (abs(position - lastpos) > 5);
   10c14:	8c 1b       	sub	r24, r28
   10c16:	9d 0b       	sbc	r25, r29
   10c18:	9c 01       	movw	r18, r24
   10c1a:	22 f4       	brpl	.+8      	; 0x10c24 <pi_calibrate+0x48>
   10c1c:	22 27       	eor	r18, r18
   10c1e:	33 27       	eor	r19, r19
   10c20:	28 1b       	sub	r18, r24
   10c22:	39 0b       	sbc	r19, r25
   10c24:	26 30       	cpi	r18, 0x06	; 6
   10c26:	31 05       	cpc	r19, r1
   10c28:	1c f7       	brge	.-58     	; 0x10bf0 <pi_calibrate+0x14>
		
	motor_speed(0);
   10c2a:	80 e0       	ldi	r24, 0x00	; 0
   10c2c:	90 e0       	ldi	r25, 0x00	; 0
   10c2e:	08 d3       	rcall	.+1552   	; 0x11240 <motor_speed>
	motor_encoder_reset();
   10c30:	ea d2       	rcall	.+1492   	; 0x11206 <motor_encoder_reset>
	motor_speed(-100);
   10c32:	8c e9       	ldi	r24, 0x9C	; 156
   10c34:	9f ef       	ldi	r25, 0xFF	; 255
   10c36:	04 d3       	rcall	.+1544   	; 0x11240 <motor_speed>
   10c38:	2f ef       	ldi	r18, 0xFF	; 255
   10c3a:	83 ec       	ldi	r24, 0xC3	; 195
   10c3c:	99 e0       	ldi	r25, 0x09	; 9
   10c3e:	21 50       	subi	r18, 0x01	; 1
   10c40:	80 40       	sbci	r24, 0x00	; 0
   10c42:	90 40       	sbci	r25, 0x00	; 0
   10c44:	e1 f7       	brne	.-8      	; 0x10c3e <pi_calibrate+0x62>
   10c46:	00 c0       	rjmp	.+0      	; 0x10c48 <pi_calibrate+0x6c>
   10c48:	00 00       	nop
   10c4a:	2f ef       	ldi	r18, 0xFF	; 255
   10c4c:	83 ef       	ldi	r24, 0xF3	; 243
   10c4e:	91 e0       	ldi	r25, 0x01	; 1
   10c50:	21 50       	subi	r18, 0x01	; 1
   10c52:	80 40       	sbci	r24, 0x00	; 0
   10c54:	90 40       	sbci	r25, 0x00	; 0
   10c56:	e1 f7       	brne	.-8      	; 0x10c50 <pi_calibrate+0x74>
   10c58:	00 c0       	rjmp	.+0      	; 0x10c5a <pi_calibrate+0x7e>
   10c5a:	00 00       	nop
	_delay_ms(200);
	
	do {
		_delay_ms(40);
		lastpos = position;
   10c5c:	c0 91 38 03 	lds	r28, 0x0338
   10c60:	d0 91 39 03 	lds	r29, 0x0339
		position = motor_encoder_read();
   10c64:	2d d3       	rcall	.+1626   	; 0x112c0 <motor_encoder_read>
   10c66:	90 93 39 03 	sts	0x0339, r25
   10c6a:	80 93 38 03 	sts	0x0338, r24
	} while (abs(position - lastpos) > 300);
   10c6e:	8c 1b       	sub	r24, r28
   10c70:	9d 0b       	sbc	r25, r29
   10c72:	9c 01       	movw	r18, r24
   10c74:	22 f4       	brpl	.+8      	; 0x10c7e <pi_calibrate+0xa2>
   10c76:	22 27       	eor	r18, r18
   10c78:	33 27       	eor	r19, r19
   10c7a:	28 1b       	sub	r18, r24
   10c7c:	39 0b       	sbc	r19, r25
   10c7e:	2d 32       	cpi	r18, 0x2D	; 45
   10c80:	31 40       	sbci	r19, 0x01	; 1
   10c82:	1c f7       	brge	.-58     	; 0x10c4a <pi_calibrate+0x6e>
	
	motor_speed(0);
   10c84:	80 e0       	ldi	r24, 0x00	; 0
   10c86:	90 e0       	ldi	r25, 0x00	; 0
   10c88:	db d2       	rcall	.+1462   	; 0x11240 <motor_speed>
	max_position = motor_encoder_read();
   10c8a:	1a d3       	rcall	.+1588   	; 0x112c0 <motor_encoder_read>
   10c8c:	90 93 37 03 	sts	0x0337, r25
   10c90:	80 93 36 03 	sts	0x0336, r24
}
   10c94:	df 91       	pop	r29
   10c96:	cf 91       	pop	r28
   10c98:	08 95       	ret

00010c9a <pi_update_posref>:
	pi_update_posref(128);
}

//	Update the reference point for the controller
void pi_update_posref(uint8_t newref) {
	posref = newref*(max_position/OVERFLOW_FIX)/255 * OVERFLOW_FIX;
   10c9a:	40 91 36 03 	lds	r20, 0x0336
   10c9e:	50 91 37 03 	lds	r21, 0x0337
   10ca2:	00 24       	eor	r0, r0
   10ca4:	44 0f       	add	r20, r20
   10ca6:	55 1f       	adc	r21, r21
   10ca8:	00 1c       	adc	r0, r0
   10caa:	44 0f       	add	r20, r20
   10cac:	55 1f       	adc	r21, r21
   10cae:	00 1c       	adc	r0, r0
   10cb0:	45 2f       	mov	r20, r21
   10cb2:	50 2d       	mov	r21, r0
   10cb4:	84 9f       	mul	r24, r20
   10cb6:	90 01       	movw	r18, r0
   10cb8:	85 9f       	mul	r24, r21
   10cba:	30 0d       	add	r19, r0
   10cbc:	11 24       	eor	r1, r1
   10cbe:	a1 e8       	ldi	r26, 0x81	; 129
   10cc0:	b0 e8       	ldi	r27, 0x80	; 128
   10cc2:	0e 94 bb 91 	call	0x12376	; 0x12376 <__umulhisi3>
   10cc6:	88 0f       	add	r24, r24
   10cc8:	89 2f       	mov	r24, r25
   10cca:	88 1f       	adc	r24, r24
   10ccc:	99 0b       	sbc	r25, r25
   10cce:	91 95       	neg	r25
   10cd0:	00 24       	eor	r0, r0
   10cd2:	96 95       	lsr	r25
   10cd4:	87 95       	ror	r24
   10cd6:	07 94       	ror	r0
   10cd8:	96 95       	lsr	r25
   10cda:	87 95       	ror	r24
   10cdc:	07 94       	ror	r0
   10cde:	98 2f       	mov	r25, r24
   10ce0:	80 2d       	mov	r24, r0
   10ce2:	90 93 3c 03 	sts	0x033C, r25
   10ce6:	80 93 3b 03 	sts	0x033B, r24
   10cea:	08 95       	ret

00010cec <pi_init>:
	max_position = motor_encoder_read();
}

//	Call the calibration function and placed the servo in the middle
void pi_init() {
	direction = MOTOR_LEFT;
   10cec:	81 e0       	ldi	r24, 0x01	; 1
   10cee:	80 93 3a 03 	sts	0x033A, r24
	
	integral = 0;
   10cf2:	10 92 3e 03 	sts	0x033E, r1
   10cf6:	10 92 3f 03 	sts	0x033F, r1
   10cfa:	10 92 40 03 	sts	0x0340, r1
   10cfe:	10 92 41 03 	sts	0x0341, r1

	printvar = 0;
   10d02:	10 92 3d 03 	sts	0x033D, r1

	pi_calibrate();
   10d06:	6a df       	rcall	.-300    	; 0x10bdc <pi_calibrate>
	position = max_position;
   10d08:	80 91 36 03 	lds	r24, 0x0336
   10d0c:	90 91 37 03 	lds	r25, 0x0337
   10d10:	90 93 39 03 	sts	0x0339, r25
   10d14:	80 93 38 03 	sts	0x0338, r24
	pi_update_posref(128);
   10d18:	80 e8       	ldi	r24, 0x80	; 128
   10d1a:	bf cf       	rjmp	.-130    	; 0x10c9a <pi_update_posref>
   10d1c:	08 95       	ret

00010d1e <pi_update>:
void pi_update_posref(uint8_t newref) {
	posref = newref*(max_position/OVERFLOW_FIX)/255 * OVERFLOW_FIX;
}

//	Updates the speed input for the motor as a PI controller
void pi_update() {
   10d1e:	8f 92       	push	r8
   10d20:	9f 92       	push	r9
   10d22:	af 92       	push	r10
   10d24:	bf 92       	push	r11
   10d26:	cf 92       	push	r12
   10d28:	df 92       	push	r13
   10d2a:	ef 92       	push	r14
   10d2c:	ff 92       	push	r15
	position = motor_encoder_read();
   10d2e:	c8 d2       	rcall	.+1424   	; 0x112c0 <motor_encoder_read>
   10d30:	90 93 39 03 	sts	0x0339, r25
   10d34:	80 93 38 03 	sts	0x0338, r24
	
	static float error;
	error = ((float)position - (float)posref);
   10d38:	bc 01       	movw	r22, r24
   10d3a:	88 27       	eor	r24, r24
   10d3c:	77 fd       	sbrc	r23, 7
   10d3e:	80 95       	com	r24
   10d40:	98 2f       	mov	r25, r24
   10d42:	8a d6       	rcall	.+3348   	; 0x11a58 <__floatsisf>
   10d44:	6b 01       	movw	r12, r22
   10d46:	7c 01       	movw	r14, r24
   10d48:	60 91 3b 03 	lds	r22, 0x033B
   10d4c:	70 91 3c 03 	lds	r23, 0x033C
   10d50:	88 27       	eor	r24, r24
   10d52:	77 fd       	sbrc	r23, 7
   10d54:	80 95       	com	r24
   10d56:	98 2f       	mov	r25, r24
   10d58:	7f d6       	rcall	.+3326   	; 0x11a58 <__floatsisf>
   10d5a:	9b 01       	movw	r18, r22
   10d5c:	ac 01       	movw	r20, r24
   10d5e:	c7 01       	movw	r24, r14
   10d60:	b6 01       	movw	r22, r12
   10d62:	7a d5       	rcall	.+2804   	; 0x11858 <__subsf3>
   10d64:	6b 01       	movw	r12, r22
   10d66:	7c 01       	movw	r14, r24
   10d68:	60 93 f2 02 	sts	0x02F2, r22
   10d6c:	70 93 f3 02 	sts	0x02F3, r23
   10d70:	80 93 f4 02 	sts	0x02F4, r24
   10d74:	90 93 f5 02 	sts	0x02F5, r25
	
	integral += (error * (float)TIMER5_OCRA / (float)F_CPU)*1024;  
   10d78:	20 e0       	ldi	r18, 0x00	; 0
   10d7a:	30 e0       	ldi	r19, 0x00	; 0
   10d7c:	40 e2       	ldi	r20, 0x20	; 32
   10d7e:	53 e4       	ldi	r21, 0x43	; 67
   10d80:	f7 d6       	rcall	.+3566   	; 0x11b70 <__mulsf3>
   10d82:	20 e0       	ldi	r18, 0x00	; 0
   10d84:	34 e2       	ldi	r19, 0x24	; 36
   10d86:	44 e7       	ldi	r20, 0x74	; 116
   10d88:	5b e4       	ldi	r21, 0x4B	; 75
   10d8a:	cb d5       	rcall	.+2966   	; 0x11922 <__divsf3>
   10d8c:	20 e0       	ldi	r18, 0x00	; 0
   10d8e:	30 e0       	ldi	r19, 0x00	; 0
   10d90:	40 e8       	ldi	r20, 0x80	; 128
   10d92:	54 e4       	ldi	r21, 0x44	; 68
   10d94:	ed d6       	rcall	.+3546   	; 0x11b70 <__mulsf3>
   10d96:	20 91 3e 03 	lds	r18, 0x033E
   10d9a:	30 91 3f 03 	lds	r19, 0x033F
   10d9e:	40 91 40 03 	lds	r20, 0x0340
   10da2:	50 91 41 03 	lds	r21, 0x0341
   10da6:	59 d5       	rcall	.+2738   	; 0x1185a <__addsf3>
   10da8:	4b 01       	movw	r8, r22
   10daa:	5c 01       	movw	r10, r24
   10dac:	60 93 3e 03 	sts	0x033E, r22
   10db0:	70 93 3f 03 	sts	0x033F, r23
   10db4:	80 93 40 03 	sts	0x0340, r24
   10db8:	90 93 41 03 	sts	0x0341, r25

	int16_t speed = (float)K_P * error + integral * K_I;
   10dbc:	2d ec       	ldi	r18, 0xCD	; 205
   10dbe:	3c ec       	ldi	r19, 0xCC	; 204
   10dc0:	4c ec       	ldi	r20, 0xCC	; 204
   10dc2:	5d e3       	ldi	r21, 0x3D	; 61
   10dc4:	c7 01       	movw	r24, r14
   10dc6:	b6 01       	movw	r22, r12
   10dc8:	d3 d6       	rcall	.+3494   	; 0x11b70 <__mulsf3>
   10dca:	6b 01       	movw	r12, r22
   10dcc:	7c 01       	movw	r14, r24
   10dce:	2a e0       	ldi	r18, 0x0A	; 10
   10dd0:	37 ed       	ldi	r19, 0xD7	; 215
   10dd2:	43 ea       	ldi	r20, 0xA3	; 163
   10dd4:	5c e3       	ldi	r21, 0x3C	; 60
   10dd6:	c5 01       	movw	r24, r10
   10dd8:	b4 01       	movw	r22, r8
   10dda:	ca d6       	rcall	.+3476   	; 0x11b70 <__mulsf3>
   10ddc:	9b 01       	movw	r18, r22
   10dde:	ac 01       	movw	r20, r24
   10de0:	c7 01       	movw	r24, r14
   10de2:	b6 01       	movw	r22, r12
   10de4:	3a d5       	rcall	.+2676   	; 0x1185a <__addsf3>
   10de6:	05 d6       	rcall	.+3082   	; 0x119f2 <__fixsfsi>
	 
	motor_speed(speed);
   10de8:	cb 01       	movw	r24, r22
   10dea:	2a d2       	rcall	.+1108   	; 0x11240 <motor_speed>
}
   10dec:	ff 90       	pop	r15
   10dee:	ef 90       	pop	r14
   10df0:	df 90       	pop	r13
   10df2:	cf 90       	pop	r12
   10df4:	bf 90       	pop	r11
   10df6:	af 90       	pop	r10
   10df8:	9f 90       	pop	r9
   10dfa:	8f 90       	pop	r8
   10dfc:	08 95       	ret

00010dfe <adc_init>:
#include <util/delay.h>
#include "adc_driver.h"

//Inits the ADC 
void adc_init(){
	ADCSRA	|= (1 << ADEN) | (1 << ADPS0) | (1 << ADPS1) | (1 << ADPS2);
   10dfe:	ea e7       	ldi	r30, 0x7A	; 122
   10e00:	f0 e0       	ldi	r31, 0x00	; 0
   10e02:	80 81       	ld	r24, Z
   10e04:	87 68       	ori	r24, 0x87	; 135
   10e06:	80 83       	st	Z, r24
	ADMUX	|= (1<<REFS0);
   10e08:	ec e7       	ldi	r30, 0x7C	; 124
   10e0a:	f0 e0       	ldi	r31, 0x00	; 0
   10e0c:	80 81       	ld	r24, Z
   10e0e:	80 64       	ori	r24, 0x40	; 64
   10e10:	80 83       	st	Z, r24
	ADMUX	&= ~(1<<REFS1); 
   10e12:	80 81       	ld	r24, Z
   10e14:	8f 77       	andi	r24, 0x7F	; 127
   10e16:	80 83       	st	Z, r24
   10e18:	08 95       	ret

00010e1a <adc_read>:
}

//Reads the ADC in the given channel
uint16_t adc_read(uint8_t channel){
	ADMUX	= (1<<REFS0) | (channel & 0x03);
   10e1a:	83 70       	andi	r24, 0x03	; 3
   10e1c:	80 64       	ori	r24, 0x40	; 64
   10e1e:	80 93 7c 00 	sts	0x007C, r24
	ADCSRA	|= (1 << ADSC);
   10e22:	ea e7       	ldi	r30, 0x7A	; 122
   10e24:	f0 e0       	ldi	r31, 0x00	; 0
   10e26:	80 81       	ld	r24, Z
   10e28:	80 64       	ori	r24, 0x40	; 64
   10e2a:	80 83       	st	Z, r24

	while((ADCSRA & (1<<ADSC))){ ; }
   10e2c:	80 81       	ld	r24, Z
   10e2e:	86 fd       	sbrc	r24, 6
   10e30:	fd cf       	rjmp	.-6      	; 0x10e2c <adc_read+0x12>

	return ADC;
   10e32:	80 91 78 00 	lds	r24, 0x0078
   10e36:	90 91 79 00 	lds	r25, 0x0079
}
   10e3a:	08 95       	ret

00010e3c <can_init>:
   10e3c:	c4 d1       	rcall	.+904    	; 0x111c6 <mcp2515_init>
   10e3e:	8f e0       	ldi	r24, 0x0F	; 15
   10e40:	b5 d1       	rcall	.+874    	; 0x111ac <mcp2515_read>
   10e42:	1f 92       	push	r1
   10e44:	8f 93       	push	r24
   10e46:	8f e0       	ldi	r24, 0x0F	; 15
   10e48:	92 e0       	ldi	r25, 0x02	; 2
   10e4a:	9f 93       	push	r25
   10e4c:	8f 93       	push	r24
   10e4e:	0e 94 fe 92 	call	0x125fc	; 0x125fc <printf>
   10e52:	4f ef       	ldi	r20, 0xFF	; 255
   10e54:	60 e6       	ldi	r22, 0x60	; 96
   10e56:	80 e6       	ldi	r24, 0x60	; 96
   10e58:	90 d1       	rcall	.+800    	; 0x1117a <mcp2515_bit_modify>
   10e5a:	40 e0       	ldi	r20, 0x00	; 0
   10e5c:	64 e0       	ldi	r22, 0x04	; 4
   10e5e:	80 e6       	ldi	r24, 0x60	; 96
   10e60:	8c d1       	rcall	.+792    	; 0x1117a <mcp2515_bit_modify>
   10e62:	4f ef       	ldi	r20, 0xFF	; 255
   10e64:	61 e0       	ldi	r22, 0x01	; 1
   10e66:	8b e2       	ldi	r24, 0x2B	; 43
   10e68:	88 d1       	rcall	.+784    	; 0x1117a <mcp2515_bit_modify>
   10e6a:	40 e0       	ldi	r20, 0x00	; 0
   10e6c:	60 ee       	ldi	r22, 0xE0	; 224
   10e6e:	8f e0       	ldi	r24, 0x0F	; 15
   10e70:	84 d1       	rcall	.+776    	; 0x1117a <mcp2515_bit_modify>
   10e72:	0f 90       	pop	r0
   10e74:	0f 90       	pop	r0
   10e76:	0f 90       	pop	r0
   10e78:	0f 90       	pop	r0
   10e7a:	08 95       	ret

00010e7c <can_transmit_complete>:
   10e7c:	80 e3       	ldi	r24, 0x30	; 48
   10e7e:	96 d1       	rcall	.+812    	; 0x111ac <mcp2515_read>
   10e80:	86 95       	lsr	r24
   10e82:	86 95       	lsr	r24
   10e84:	86 95       	lsr	r24
   10e86:	91 e0       	ldi	r25, 0x01	; 1
   10e88:	89 27       	eor	r24, r25
   10e8a:	81 70       	andi	r24, 0x01	; 1
   10e8c:	90 e0       	ldi	r25, 0x00	; 0
   10e8e:	08 95       	ret

00010e90 <can_message_send>:
   10e90:	1f 93       	push	r17
   10e92:	cf 93       	push	r28
   10e94:	df 93       	push	r29
   10e96:	ec 01       	movw	r28, r24
   10e98:	f1 df       	rcall	.-30     	; 0x10e7c <can_transmit_complete>
   10e9a:	89 2b       	or	r24, r25
   10e9c:	e9 f3       	breq	.-6      	; 0x10e98 <can_message_send+0x8>
   10e9e:	68 81       	ld	r22, Y
   10ea0:	79 81       	ldd	r23, Y+1	; 0x01
   10ea2:	75 95       	asr	r23
   10ea4:	67 95       	ror	r22
   10ea6:	75 95       	asr	r23
   10ea8:	67 95       	ror	r22
   10eaa:	75 95       	asr	r23
   10eac:	67 95       	ror	r22
   10eae:	81 e3       	ldi	r24, 0x31	; 49
   10eb0:	48 d1       	rcall	.+656    	; 0x11142 <mcp2515_write>
   10eb2:	68 81       	ld	r22, Y
   10eb4:	79 81       	ldd	r23, Y+1	; 0x01
   10eb6:	66 0f       	add	r22, r22
   10eb8:	77 1f       	adc	r23, r23
   10eba:	62 95       	swap	r22
   10ebc:	72 95       	swap	r23
   10ebe:	70 7f       	andi	r23, 0xF0	; 240
   10ec0:	76 27       	eor	r23, r22
   10ec2:	60 7f       	andi	r22, 0xF0	; 240
   10ec4:	76 27       	eor	r23, r22
   10ec6:	82 e3       	ldi	r24, 0x32	; 50
   10ec8:	3c d1       	rcall	.+632    	; 0x11142 <mcp2515_write>
   10eca:	6a 81       	ldd	r22, Y+2	; 0x02
   10ecc:	6f 70       	andi	r22, 0x0F	; 15
   10ece:	85 e3       	ldi	r24, 0x35	; 53
   10ed0:	38 d1       	rcall	.+624    	; 0x11142 <mcp2515_write>
   10ed2:	8a 81       	ldd	r24, Y+2	; 0x02
   10ed4:	88 23       	and	r24, r24
   10ed6:	61 f0       	breq	.+24     	; 0x10ef0 <can_message_send+0x60>
   10ed8:	10 e0       	ldi	r17, 0x00	; 0
   10eda:	fe 01       	movw	r30, r28
   10edc:	e1 0f       	add	r30, r17
   10ede:	f1 1d       	adc	r31, r1
   10ee0:	63 81       	ldd	r22, Z+3	; 0x03
   10ee2:	86 e3       	ldi	r24, 0x36	; 54
   10ee4:	81 0f       	add	r24, r17
   10ee6:	2d d1       	rcall	.+602    	; 0x11142 <mcp2515_write>
   10ee8:	1f 5f       	subi	r17, 0xFF	; 255
   10eea:	8a 81       	ldd	r24, Y+2	; 0x02
   10eec:	18 17       	cp	r17, r24
   10eee:	a8 f3       	brcs	.-22     	; 0x10eda <can_message_send+0x4a>
   10ef0:	81 e0       	ldi	r24, 0x01	; 1
   10ef2:	36 d1       	rcall	.+620    	; 0x11160 <mcp2515_request_to_send>
   10ef4:	df 91       	pop	r29
   10ef6:	cf 91       	pop	r28
   10ef8:	1f 91       	pop	r17
   10efa:	08 95       	ret

00010efc <can_data_receive>:
   10efc:	9f 92       	push	r9
   10efe:	af 92       	push	r10
   10f00:	bf 92       	push	r11
   10f02:	cf 92       	push	r12
   10f04:	df 92       	push	r13
   10f06:	ef 92       	push	r14
   10f08:	ff 92       	push	r15
   10f0a:	0f 93       	push	r16
   10f0c:	1f 93       	push	r17
   10f0e:	cf 93       	push	r28
   10f10:	df 93       	push	r29
   10f12:	cd b7       	in	r28, 0x3d	; 61
   10f14:	de b7       	in	r29, 0x3e	; 62
   10f16:	2b 97       	sbiw	r28, 0x0b	; 11
   10f18:	0f b6       	in	r0, 0x3f	; 63
   10f1a:	f8 94       	cli
   10f1c:	de bf       	out	0x3e, r29	; 62
   10f1e:	0f be       	out	0x3f, r0	; 63
   10f20:	cd bf       	out	0x3d, r28	; 61
   10f22:	7c 01       	movw	r14, r24
   10f24:	8c e2       	ldi	r24, 0x2C	; 44
   10f26:	42 d1       	rcall	.+644    	; 0x111ac <mcp2515_read>
   10f28:	80 ff       	sbrs	r24, 0
   10f2a:	2e c0       	rjmp	.+92     	; 0x10f88 <can_data_receive+0x8c>
   10f2c:	81 e6       	ldi	r24, 0x61	; 97
   10f2e:	3e d1       	rcall	.+636    	; 0x111ac <mcp2515_read>
   10f30:	c8 2e       	mov	r12, r24
   10f32:	82 e6       	ldi	r24, 0x62	; 98
   10f34:	3b d1       	rcall	.+630    	; 0x111ac <mcp2515_read>
   10f36:	82 95       	swap	r24
   10f38:	86 95       	lsr	r24
   10f3a:	87 70       	andi	r24, 0x07	; 7
   10f3c:	d1 2c       	mov	r13, r1
   10f3e:	cc 0c       	add	r12, r12
   10f40:	dd 1c       	adc	r13, r13
   10f42:	cc 0c       	add	r12, r12
   10f44:	dd 1c       	adc	r13, r13
   10f46:	cc 0c       	add	r12, r12
   10f48:	dd 1c       	adc	r13, r13
   10f4a:	c8 2a       	or	r12, r24
   10f4c:	85 e6       	ldi	r24, 0x65	; 101
   10f4e:	2e d1       	rcall	.+604    	; 0x111ac <mcp2515_read>
   10f50:	8f 70       	andi	r24, 0x0F	; 15
   10f52:	98 2e       	mov	r9, r24
   10f54:	a1 f0       	breq	.+40     	; 0x10f7e <can_data_receive+0x82>
   10f56:	8e 01       	movw	r16, r28
   10f58:	0c 5f       	subi	r16, 0xFC	; 252
   10f5a:	1f 4f       	sbci	r17, 0xFF	; 255
   10f5c:	0f 2e       	mov	r0, r31
   10f5e:	f6 e6       	ldi	r31, 0x66	; 102
   10f60:	af 2e       	mov	r10, r31
   10f62:	f0 2d       	mov	r31, r0
   10f64:	a8 0e       	add	r10, r24
   10f66:	0f 2e       	mov	r0, r31
   10f68:	f6 e6       	ldi	r31, 0x66	; 102
   10f6a:	bf 2e       	mov	r11, r31
   10f6c:	f0 2d       	mov	r31, r0
   10f6e:	8b 2d       	mov	r24, r11
   10f70:	1d d1       	rcall	.+570    	; 0x111ac <mcp2515_read>
   10f72:	f8 01       	movw	r30, r16
   10f74:	81 93       	st	Z+, r24
   10f76:	8f 01       	movw	r16, r30
   10f78:	b3 94       	inc	r11
   10f7a:	ba 10       	cpse	r11, r10
   10f7c:	f8 cf       	rjmp	.-16     	; 0x10f6e <can_data_receive+0x72>
   10f7e:	40 e0       	ldi	r20, 0x00	; 0
   10f80:	61 e0       	ldi	r22, 0x01	; 1
   10f82:	8c e2       	ldi	r24, 0x2C	; 44
   10f84:	fa d0       	rcall	.+500    	; 0x1117a <mcp2515_bit_modify>
   10f86:	03 c0       	rjmp	.+6      	; 0x10f8e <can_data_receive+0x92>
   10f88:	cc 24       	eor	r12, r12
   10f8a:	ca 94       	dec	r12
   10f8c:	dc 2c       	mov	r13, r12
   10f8e:	da 82       	std	Y+2, r13	; 0x02
   10f90:	c9 82       	std	Y+1, r12	; 0x01
   10f92:	9b 82       	std	Y+3, r9	; 0x03
   10f94:	8b e0       	ldi	r24, 0x0B	; 11
   10f96:	fe 01       	movw	r30, r28
   10f98:	31 96       	adiw	r30, 0x01	; 1
   10f9a:	d7 01       	movw	r26, r14
   10f9c:	01 90       	ld	r0, Z+
   10f9e:	0d 92       	st	X+, r0
   10fa0:	8a 95       	dec	r24
   10fa2:	e1 f7       	brne	.-8      	; 0x10f9c <can_data_receive+0xa0>
   10fa4:	c7 01       	movw	r24, r14
   10fa6:	2b 96       	adiw	r28, 0x0b	; 11
   10fa8:	0f b6       	in	r0, 0x3f	; 63
   10faa:	f8 94       	cli
   10fac:	de bf       	out	0x3e, r29	; 62
   10fae:	0f be       	out	0x3f, r0	; 63
   10fb0:	cd bf       	out	0x3d, r28	; 61
   10fb2:	df 91       	pop	r29
   10fb4:	cf 91       	pop	r28
   10fb6:	1f 91       	pop	r17
   10fb8:	0f 91       	pop	r16
   10fba:	ff 90       	pop	r15
   10fbc:	ef 90       	pop	r14
   10fbe:	df 90       	pop	r13
   10fc0:	cf 90       	pop	r12
   10fc2:	bf 90       	pop	r11
   10fc4:	af 90       	pop	r10
   10fc6:	9f 90       	pop	r9
   10fc8:	08 95       	ret

00010fca <can_handle_message>:
		printf(" ]\n\n");
	}
}

//	Handles messages who are recieved
void can_handle_message(){
   10fca:	cf 93       	push	r28
   10fcc:	df 93       	push	r29
   10fce:	cd b7       	in	r28, 0x3d	; 61
   10fd0:	de b7       	in	r29, 0x3e	; 62
   10fd2:	2b 97       	sbiw	r28, 0x0b	; 11
   10fd4:	0f b6       	in	r0, 0x3f	; 63
   10fd6:	f8 94       	cli
   10fd8:	de bf       	out	0x3e, r29	; 62
   10fda:	0f be       	out	0x3f, r0	; 63
   10fdc:	cd bf       	out	0x3d, r28	; 61
	static can_message_t message;
	message = can_data_receive();
   10fde:	ce 01       	movw	r24, r28
   10fe0:	01 96       	adiw	r24, 0x01	; 1
   10fe2:	8c df       	rcall	.-232    	; 0x10efc <can_data_receive>
   10fe4:	8b e0       	ldi	r24, 0x0B	; 11
   10fe6:	fe 01       	movw	r30, r28
   10fe8:	31 96       	adiw	r30, 0x01	; 1
   10fea:	a1 e0       	ldi	r26, 0x01	; 1
   10fec:	b3 e0       	ldi	r27, 0x03	; 3
   10fee:	01 90       	ld	r0, Z+
   10ff0:	0d 92       	st	X+, r0
   10ff2:	8a 95       	dec	r24
   10ff4:	e1 f7       	brne	.-8      	; 0x10fee <can_handle_message+0x24>
	can_data_receive();
   10ff6:	ce 01       	movw	r24, r28
   10ff8:	01 96       	adiw	r24, 0x01	; 1
   10ffa:	80 df       	rcall	.-256    	; 0x10efc <can_data_receive>

	if(message.id & (1<<JOY_CAN_ID)) {
   10ffc:	80 91 01 03 	lds	r24, 0x0301
   11000:	80 ff       	sbrs	r24, 0
   11002:	07 c0       	rjmp	.+14     	; 0x11012 <can_handle_message+0x48>
		pwm_set_servo(-message.data[CAN_DATA_JOY_X]);
   11004:	80 91 04 03 	lds	r24, 0x0304
   11008:	99 27       	eor	r25, r25
   1100a:	81 95       	neg	r24
   1100c:	0c f4       	brge	.+2      	; 0x11010 <can_handle_message+0x46>
   1100e:	90 95       	com	r25
   11010:	98 d2       	rcall	.+1328   	; 0x11542 <pwm_set_servo>
	}
			
	if(message.id & (1<<SLIDER_CAN_ID)) {
   11012:	80 91 01 03 	lds	r24, 0x0301
   11016:	83 ff       	sbrs	r24, 3
   11018:	03 c0       	rjmp	.+6      	; 0x11020 <can_handle_message+0x56>
		pi_update_posref(message.data[CAN_DATA_SLIDER_R]);
   1101a:	80 91 07 03 	lds	r24, 0x0307
   1101e:	3d de       	rcall	.-902    	; 0x10c9a <pi_update_posref>
	}
	
	if(message.id & (1<<BUTTON_CAN_ID)) {
   11020:	80 91 01 03 	lds	r24, 0x0301
   11024:	82 ff       	sbrs	r24, 2
   11026:	05 c0       	rjmp	.+10     	; 0x11032 <can_handle_message+0x68>
		if(message.data[CAN_DATA_BUTTON] == 3) {
   11028:	80 91 08 03 	lds	r24, 0x0308
   1102c:	83 30       	cpi	r24, 0x03	; 3
   1102e:	09 f4       	brne	.+2      	; 0x11032 <can_handle_message+0x68>
			solenoid_out();
   11030:	a9 d2       	rcall	.+1362   	; 0x11584 <solenoid_out>
		}
	}

	if(message.id == (1<<MUSIC_PLAY_CAN_ID)) {
   11032:	80 91 01 03 	lds	r24, 0x0301
   11036:	90 91 02 03 	lds	r25, 0x0302
   1103a:	40 97       	sbiw	r24, 0x10	; 16
   1103c:	11 f4       	brne	.+4      	; 0x11042 <can_handle_message+0x78>
		timer_disable();
   1103e:	2b d3       	rcall	.+1622   	; 0x11696 <timer_disable>
		music_init();
   11040:	5d d1       	rcall	.+698    	; 0x112fc <music_init>
	}
}
   11042:	2b 96       	adiw	r28, 0x0b	; 11
   11044:	0f b6       	in	r0, 0x3f	; 63
   11046:	f8 94       	cli
   11048:	de bf       	out	0x3e, r29	; 62
   1104a:	0f be       	out	0x3f, r0	; 63
   1104c:	cd bf       	out	0x3d, r28	; 61
   1104e:	df 91       	pop	r29
   11050:	cf 91       	pop	r28
   11052:	08 95       	ret

00011054 <can_ir_transmit>:

//	Transmit a can message to node containing IR data
void can_ir_transmit(){
	static can_message_t ir_message;
	ir_message.length = 1;
   11054:	81 e0       	ldi	r24, 0x01	; 1
   11056:	80 93 f8 02 	sts	0x02F8, r24
	ir_message.id = IR_CAN_ID;
   1105a:	81 e0       	ldi	r24, 0x01	; 1
   1105c:	90 e0       	ldi	r25, 0x00	; 0
   1105e:	90 93 f7 02 	sts	0x02F7, r25
   11062:	80 93 f6 02 	sts	0x02F6, r24
	ir_message.data[0] = last_ir_val;
   11066:	80 91 42 03 	lds	r24, 0x0342
   1106a:	80 93 f9 02 	sts	0x02F9, r24
	can_message_send(&ir_message);
   1106e:	86 ef       	ldi	r24, 0xF6	; 246
   11070:	92 e0       	ldi	r25, 0x02	; 2
   11072:	0e cf       	rjmp	.-484    	; 0x10e90 <can_message_send>
   11074:	08 95       	ret

00011076 <ir_obstructed>:
	}
}

//	Checks if IR is obstructed by using a ring buffer to filter 
//	out any disturbances
uint8_t ir_obstructed(){
   11076:	cf 93       	push	r28
   11078:	df 93       	push	r29
	static uint16_t ringbuffer_filter[FILTER_BUFFER_SIZE];
	static uint8_t ringbuffer_index;

	if (ringbuffer_index >= FILTER_BUFFER_SIZE - 1){
   1107a:	80 91 2d 03 	lds	r24, 0x032D
   1107e:	8f 30       	cpi	r24, 0x0F	; 15
   11080:	18 f0       	brcs	.+6      	; 0x11088 <ir_obstructed+0x12>
		ringbuffer_index = 0;
   11082:	10 92 2d 03 	sts	0x032D, r1
   11086:	03 c0       	rjmp	.+6      	; 0x1108e <ir_obstructed+0x18>
	} else { ringbuffer_index++; }
   11088:	8f 5f       	subi	r24, 0xFF	; 255
   1108a:	80 93 2d 03 	sts	0x032D, r24
			
	ringbuffer_filter[ringbuffer_index] = adc_read(IR_CHANNEL) / FILTER_BUFFER_SIZE;
   1108e:	c0 91 2d 03 	lds	r28, 0x032D
   11092:	d0 e0       	ldi	r29, 0x00	; 0
   11094:	80 e0       	ldi	r24, 0x00	; 0
   11096:	c1 de       	rcall	.-638    	; 0x10e1a <adc_read>
   11098:	cc 0f       	add	r28, r28
   1109a:	dd 1f       	adc	r29, r29
   1109c:	c3 5f       	subi	r28, 0xF3	; 243
   1109e:	dc 4f       	sbci	r29, 0xFC	; 252
   110a0:	92 95       	swap	r25
   110a2:	82 95       	swap	r24
   110a4:	8f 70       	andi	r24, 0x0F	; 15
   110a6:	89 27       	eor	r24, r25
   110a8:	9f 70       	andi	r25, 0x0F	; 15
   110aa:	89 27       	eor	r24, r25
   110ac:	99 83       	std	Y+1, r25	; 0x01
   110ae:	88 83       	st	Y, r24
   110b0:	ed e0       	ldi	r30, 0x0D	; 13
   110b2:	f3 e0       	ldi	r31, 0x03	; 3
   110b4:	4d e2       	ldi	r20, 0x2D	; 45
   110b6:	53 e0       	ldi	r21, 0x03	; 3

	uint16_t avg = 0;
   110b8:	20 e0       	ldi	r18, 0x00	; 0
   110ba:	30 e0       	ldi	r19, 0x00	; 0
	for (uint8_t i = 0; i < FILTER_BUFFER_SIZE; i++) {
		avg += ringbuffer_filter[i] ;
   110bc:	81 91       	ld	r24, Z+
   110be:	91 91       	ld	r25, Z+
   110c0:	28 0f       	add	r18, r24
   110c2:	39 1f       	adc	r19, r25
	} else { ringbuffer_index++; }
			
	ringbuffer_filter[ringbuffer_index] = adc_read(IR_CHANNEL) / FILTER_BUFFER_SIZE;

	uint16_t avg = 0;
	for (uint8_t i = 0; i < FILTER_BUFFER_SIZE; i++) {
   110c4:	e4 17       	cp	r30, r20
   110c6:	f5 07       	cpc	r31, r21
   110c8:	c9 f7       	brne	.-14     	; 0x110bc <ir_obstructed+0x46>
		avg += ringbuffer_filter[i] ;
	}

	if (avg < FILTER_THRESHOLD) {
   110ca:	81 e0       	ldi	r24, 0x01	; 1
   110cc:	22 33       	cpi	r18, 0x32	; 50
   110ce:	31 05       	cpc	r19, r1
   110d0:	08 f0       	brcs	.+2      	; 0x110d4 <ir_obstructed+0x5e>
   110d2:	80 e0       	ldi	r24, 0x00	; 0
		return 1;
	}

	return 0;
}
   110d4:	df 91       	pop	r29
   110d6:	cf 91       	pop	r28
   110d8:	08 95       	ret

000110da <ir_filter_init>:

#define FILTER_THRESHOLD 50
#define FILTER_BUFFER_SIZE 16

//	Fills the ringbuffer to avoid trash data
void ir_filter_init() {
   110da:	cf 93       	push	r28
   110dc:	c0 e1       	ldi	r28, 0x10	; 16
	for (uint8_t i = 0; i < FILTER_BUFFER_SIZE; i++ ){
		ir_obstructed();
   110de:	cb df       	rcall	.-106    	; 0x11076 <ir_obstructed>
   110e0:	c1 50       	subi	r28, 0x01	; 1
#define FILTER_THRESHOLD 50
#define FILTER_BUFFER_SIZE 16

//	Fills the ringbuffer to avoid trash data
void ir_filter_init() {
	for (uint8_t i = 0; i < FILTER_BUFFER_SIZE; i++ ){
   110e2:	e9 f7       	brne	.-6      	; 0x110de <ir_filter_init+0x4>
		ir_obstructed();
	}
}
   110e4:	cf 91       	pop	r28
   110e6:	08 95       	ret

000110e8 <ir_edge_detected>:
}

//	Checks if IR voltage changes
uint8_t ir_edge_detected() {
	static uint8_t current;
	current = ir_obstructed();
   110e8:	c6 df       	rcall	.-116    	; 0x11076 <ir_obstructed>
   110ea:	80 93 0c 03 	sts	0x030C, r24
	if (last_ir_val != current){
   110ee:	90 91 42 03 	lds	r25, 0x0342
   110f2:	89 17       	cp	r24, r25
   110f4:	21 f0       	breq	.+8      	; 0x110fe <ir_edge_detected+0x16>
		last_ir_val = current;
   110f6:	80 93 42 03 	sts	0x0342, r24
		return 1;
   110fa:	81 e0       	ldi	r24, 0x01	; 1
   110fc:	08 95       	ret
	}
	return 0;
   110fe:	80 e0       	ldi	r24, 0x00	; 0
   11100:	08 95       	ret

00011102 <max520_init>:

#define  MAX520_TWI_ADDR_BASE 0b01010000

static uint8_t twi_address = 0b000;

void max520_init(uint8_t max520_twi_addr){
   11102:	cf 93       	push	r28
   11104:	c8 2f       	mov	r28, r24
	TWI_Master_Initialise();
   11106:	f9 d2       	rcall	.+1522   	; 0x116fa <TWI_Master_Initialise>
	sei();
   11108:	78 94       	sei
	twi_address = max520_twi_addr;
   1110a:	c0 93 2e 03 	sts	0x032E, r28
}
   1110e:	cf 91       	pop	r28
   11110:	08 95       	ret

00011112 <max520_write>:

void max520_write(uint8_t channel, uint8_t val){
   11112:	cf 93       	push	r28
   11114:	df 93       	push	r29
   11116:	00 d0       	rcall	.+0      	; 0x11118 <max520_write+0x6>
   11118:	cd b7       	in	r28, 0x3d	; 61
   1111a:	de b7       	in	r29, 0x3e	; 62
	uint8_t message[3] = {	MAX520_TWI_ADDR_BASE | ((twi_address & 0x07) << 1),
   1111c:	90 91 2e 03 	lds	r25, 0x032E
   11120:	97 70       	andi	r25, 0x07	; 7
   11122:	99 0f       	add	r25, r25
   11124:	90 65       	ori	r25, 0x50	; 80
   11126:	99 83       	std	Y+1, r25	; 0x01
   11128:	87 70       	andi	r24, 0x07	; 7
   1112a:	8a 83       	std	Y+2, r24	; 0x02
   1112c:	6b 83       	std	Y+3, r22	; 0x03
							channel & 0x07,
							val	};
	
	TWI_Start_Transceiver_With_Data(message, 3);
   1112e:	63 e0       	ldi	r22, 0x03	; 3
   11130:	ce 01       	movw	r24, r28
   11132:	01 96       	adiw	r24, 0x01	; 1
   11134:	ec d2       	rcall	.+1496   	; 0x1170e <TWI_Start_Transceiver_With_Data>
}
   11136:	0f 90       	pop	r0
   11138:	0f 90       	pop	r0
   1113a:	0f 90       	pop	r0
   1113c:	df 91       	pop	r29
   1113e:	cf 91       	pop	r28
   11140:	08 95       	ret

00011142 <mcp2515_write>:
	} else {
		;//printf("MCP2515 is in config mode after reset\n");
	}
}

void mcp2515_write(uint8_t address, uint8_t data){
   11142:	cf 93       	push	r28
   11144:	df 93       	push	r29
   11146:	d8 2f       	mov	r29, r24
   11148:	c6 2f       	mov	r28, r22
	spi_select();
   1114a:	43 d2       	rcall	.+1158   	; 0x115d2 <spi_select>

	spi_send(MCP_WRITE);
   1114c:	82 e0       	ldi	r24, 0x02	; 2
   1114e:	35 d2       	rcall	.+1130   	; 0x115ba <spi_send>
	spi_send(address);
   11150:	8d 2f       	mov	r24, r29
   11152:	33 d2       	rcall	.+1126   	; 0x115ba <spi_send>
	spi_send(data);
   11154:	8c 2f       	mov	r24, r28
   11156:	31 d2       	rcall	.+1122   	; 0x115ba <spi_send>

	spi_deselect();
   11158:	3e d2       	rcall	.+1148   	; 0x115d6 <spi_deselect>
}
   1115a:	df 91       	pop	r29
   1115c:	cf 91       	pop	r28
   1115e:	08 95       	ret

00011160 <mcp2515_request_to_send>:

void mcp2515_request_to_send(uint8_t command){
   11160:	cf 93       	push	r28
	//Check last 3 bits of given command
	if (command <= 7) {
   11162:	88 30       	cpi	r24, 0x08	; 8
   11164:	18 f4       	brcc	.+6      	; 0x1116c <mcp2515_request_to_send+0xc>
		command = MCP_RTS | command;
   11166:	c8 2f       	mov	r28, r24
   11168:	c0 68       	ori	r28, 0x80	; 128
   1116a:	01 c0       	rjmp	.+2      	; 0x1116e <mcp2515_request_to_send+0xe>
	} else {
		command = MCP_RTS;
   1116c:	c0 e8       	ldi	r28, 0x80	; 128
	}

	//Select, send RTS command, then deselect
	spi_select();
   1116e:	31 d2       	rcall	.+1122   	; 0x115d2 <spi_select>
	spi_send(command);
   11170:	8c 2f       	mov	r24, r28
   11172:	23 d2       	rcall	.+1094   	; 0x115ba <spi_send>
	spi_deselect();
   11174:	30 d2       	rcall	.+1120   	; 0x115d6 <spi_deselect>
}
   11176:	cf 91       	pop	r28
   11178:	08 95       	ret

0001117a <mcp2515_bit_modify>:

void mcp2515_bit_modify(uint8_t address, uint8_t mask, uint8_t data){
   1117a:	1f 93       	push	r17
   1117c:	cf 93       	push	r28
   1117e:	df 93       	push	r29
   11180:	18 2f       	mov	r17, r24
   11182:	d6 2f       	mov	r29, r22
   11184:	c4 2f       	mov	r28, r20
	spi_select();
   11186:	25 d2       	rcall	.+1098   	; 0x115d2 <spi_select>

	spi_send(MCP_BITMOD);
   11188:	85 e0       	ldi	r24, 0x05	; 5
   1118a:	17 d2       	rcall	.+1070   	; 0x115ba <spi_send>
	spi_send(address);
   1118c:	81 2f       	mov	r24, r17
   1118e:	15 d2       	rcall	.+1066   	; 0x115ba <spi_send>
	spi_send(mask);
   11190:	8d 2f       	mov	r24, r29
   11192:	13 d2       	rcall	.+1062   	; 0x115ba <spi_send>
	spi_send(data);
   11194:	8c 2f       	mov	r24, r28
   11196:	11 d2       	rcall	.+1058   	; 0x115ba <spi_send>

	spi_deselect();
   11198:	1e d2       	rcall	.+1084   	; 0x115d6 <spi_deselect>
}
   1119a:	df 91       	pop	r29
   1119c:	cf 91       	pop	r28
   1119e:	1f 91       	pop	r17
   111a0:	08 95       	ret

000111a2 <mcp2515_reset>:

void mcp2515_reset(){
	spi_select();
   111a2:	17 d2       	rcall	.+1070   	; 0x115d2 <spi_select>
	spi_send(MCP_RESET);	
   111a4:	80 ec       	ldi	r24, 0xC0	; 192
   111a6:	09 d2       	rcall	.+1042   	; 0x115ba <spi_send>
	spi_deselect();
   111a8:	16 c2       	rjmp	.+1068   	; 0x115d6 <spi_deselect>
   111aa:	08 95       	ret

000111ac <mcp2515_read>:
}


uint8_t mcp2515_read(uint8_t address){
   111ac:	cf 93       	push	r28
   111ae:	c8 2f       	mov	r28, r24
	uint8_t result;

	spi_select();
   111b0:	10 d2       	rcall	.+1056   	; 0x115d2 <spi_select>
	
	//Send command and address, then read result
	spi_send(MCP_READ);
   111b2:	83 e0       	ldi	r24, 0x03	; 3
   111b4:	02 d2       	rcall	.+1028   	; 0x115ba <spi_send>
	spi_send(address);
   111b6:	8c 2f       	mov	r24, r28
   111b8:	00 d2       	rcall	.+1024   	; 0x115ba <spi_send>

	result = spi_read();
   111ba:	04 d2       	rcall	.+1032   	; 0x115c4 <spi_read>
   111bc:	c8 2f       	mov	r28, r24
	spi_deselect();
   111be:	0b d2       	rcall	.+1046   	; 0x115d6 <spi_deselect>

	return result;	
}
   111c0:	8c 2f       	mov	r24, r28
   111c2:	cf 91       	pop	r28
   111c4:	08 95       	ret

000111c6 <mcp2515_init>:
#include <util/delay.h>
#include "../Uart_driver/uart_driver.h"
#include "../SPI_driver/spi_driver.h"
#include "mcp2515_driver.h"

void mcp2515_init() {
   111c6:	cf 93       	push	r28
   111c8:	df 93       	push	r29
   111ca:	1f 92       	push	r1
   111cc:	cd b7       	in	r28, 0x3d	; 61
   111ce:	de b7       	in	r29, 0x3e	; 62
	//NO NEED, ALREADY ENABLED
	//Enable interrupt when message is recieved (RX0IE = 1)
	//mcp2515_bit_modify(MCP_CANINTE, 0x01, 0xff);

	//Start SPI driver
	spi_init();
   111d0:	ec d1       	rcall	.+984    	; 0x115aa <spi_init>

	mcp2515_reset();
   111d2:	e7 df       	rcall	.-50     	; 0x111a2 <mcp2515_reset>
	
	//Testing for correct initialization
	value_check = mcp2515_read(MCP_CANSTAT);
   111d4:	8e e0       	ldi	r24, 0x0E	; 14
   111d6:	ea df       	rcall	.-44     	; 0x111ac <mcp2515_read>
   111d8:	89 83       	std	Y+1, r24	; 0x01
	
	if ((value_check & MODE_MASK) != MODE_CONFIG) {
   111da:	89 81       	ldd	r24, Y+1	; 0x01
   111dc:	80 7e       	andi	r24, 0xE0	; 224
   111de:	80 38       	cpi	r24, 0x80	; 128
   111e0:	21 f0       	breq	.+8      	; 0x111ea <mcp2515_init+0x24>
		printf("MCP2515 is not in config mode after reset\n");
   111e2:	81 e9       	ldi	r24, 0x91	; 145
   111e4:	92 e0       	ldi	r25, 0x02	; 2
   111e6:	0e 94 0f 93 	call	0x1261e	; 0x1261e <puts>
	} else {
		;//printf("MCP2515 is in config mode after reset\n");
	}
}
   111ea:	0f 90       	pop	r0
   111ec:	df 91       	pop	r29
   111ee:	cf 91       	pop	r28
   111f0:	08 95       	ret

000111f2 <motor_output_enable>:
#include "motor_driver.h"
#include "../MAX520_driver/max520_driver.h"

//	Enable active low motor output 
void motor_output_enable(uint8_t enable){
	if(enable) {
   111f2:	88 23       	and	r24, r24
   111f4:	31 f0       	breq	.+12     	; 0x11202 <motor_output_enable+0x10>
		PORTC &= ~(1<<MOTOR_OE);
   111f6:	47 98       	cbi	0x08, 7	; 8
	#else
		//round up by default
		__ticks_dc = (uint32_t)(ceil(fabs(__tmp)));
	#endif

	__builtin_avr_delay_cycles(__ticks_dc);
   111f8:	8a e6       	ldi	r24, 0x6A	; 106
   111fa:	8a 95       	dec	r24
   111fc:	f1 f7       	brne	.-4      	; 0x111fa <motor_output_enable+0x8>
   111fe:	00 c0       	rjmp	.+0      	; 0x11200 <motor_output_enable+0xe>
   11200:	08 95       	ret
		_delay_us(20);
	} else {
		PORTC |= (1<<MOTOR_OE);
   11202:	47 9a       	sbi	0x08, 7	; 8
   11204:	08 95       	ret

00011206 <motor_encoder_reset>:
	}
}

//	Resets the encoder
void motor_encoder_reset(){
	PORTC &= ~(1<<MOTOR_RST);
   11206:	46 98       	cbi	0x08, 6	; 8
   11208:	8a e6       	ldi	r24, 0x6A	; 106
   1120a:	8a 95       	dec	r24
   1120c:	f1 f7       	brne	.-4      	; 0x1120a <motor_encoder_reset+0x4>
   1120e:	00 c0       	rjmp	.+0      	; 0x11210 <motor_encoder_reset+0xa>
	_delay_us(20);
	PORTC |= (1<<MOTOR_RST);
   11210:	46 9a       	sbi	0x08, 6	; 8
   11212:	08 95       	ret

00011214 <motor_encoder_select_byte>:
}

//	Toggles the encoder select byte
void motor_encoder_select_byte(uint8_t sel) {
	if(sel) {
   11214:	88 23       	and	r24, r24
   11216:	11 f0       	breq	.+4      	; 0x1121c <motor_encoder_select_byte+0x8>
		PORTC |= (1<<MOTOR_SEL);
   11218:	45 9a       	sbi	0x08, 5	; 8
   1121a:	01 c0       	rjmp	.+2      	; 0x1121e <motor_encoder_select_byte+0xa>
	} else {
		PORTC &= ~(1<<MOTOR_SEL);
   1121c:	45 98       	cbi	0x08, 5	; 8
   1121e:	8a e6       	ldi	r24, 0x6A	; 106
   11220:	8a 95       	dec	r24
   11222:	f1 f7       	brne	.-4      	; 0x11220 <motor_encoder_select_byte+0xc>
   11224:	00 c0       	rjmp	.+0      	; 0x11226 <motor_encoder_select_byte+0x12>
   11226:	08 95       	ret

00011228 <motor_enable>:
	_delay_us(20);
}

//	Enables the motor on port C
void motor_enable(uint8_t enable) {
	if(enable) {
   11228:	88 23       	and	r24, r24
   1122a:	11 f0       	breq	.+4      	; 0x11230 <motor_enable+0x8>
		PORTC |= (1<<MOTOR_EN);
   1122c:	44 9a       	sbi	0x08, 4	; 8
   1122e:	08 95       	ret
	} else {
		PORTC &= ~(1<<MOTOR_EN);
   11230:	44 98       	cbi	0x08, 4	; 8
   11232:	08 95       	ret

00011234 <motor_direction>:
		
	max520_write(MAX520_CHANNEL_MOTOR, (uint8_t)speed);
}

void motor_direction(uint8_t dir){
	if(dir == MOTOR_LEFT){
   11234:	81 30       	cpi	r24, 0x01	; 1
   11236:	11 f4       	brne	.+4      	; 0x1123c <motor_direction+0x8>
		PORTC &= ~(1<<MOTOR_DIR);
   11238:	43 98       	cbi	0x08, 3	; 8
   1123a:	08 95       	ret
	} else {
		PORTC |= (1<<MOTOR_DIR);
   1123c:	43 9a       	sbi	0x08, 3	; 8
   1123e:	08 95       	ret

00011240 <motor_speed>:
	motor_speed(0);
	motor_enable(ENABLE);
}


void motor_speed(int16_t speed){
   11240:	cf 93       	push	r28
   11242:	df 93       	push	r29
   11244:	ec 01       	movw	r28, r24
	if (speed > 0) {	motor_direction(MOTOR_LEFT);  }
   11246:	18 16       	cp	r1, r24
   11248:	19 06       	cpc	r1, r25
   1124a:	1c f4       	brge	.+6      	; 0x11252 <motor_speed+0x12>
   1124c:	81 e0       	ldi	r24, 0x01	; 1
   1124e:	f2 df       	rcall	.-28     	; 0x11234 <motor_direction>
   11250:	02 c0       	rjmp	.+4      	; 0x11256 <motor_speed+0x16>
	else		   {	motor_direction(MOTOR_RIGHT); }
   11252:	80 e0       	ldi	r24, 0x00	; 0
   11254:	ef df       	rcall	.-34     	; 0x11234 <motor_direction>
		
	speed = abs(speed);
   11256:	be 01       	movw	r22, r28
   11258:	dd 23       	and	r29, r29
   1125a:	24 f4       	brge	.+8      	; 0x11264 <motor_speed+0x24>
   1125c:	66 27       	eor	r22, r22
   1125e:	77 27       	eor	r23, r23
   11260:	6c 1b       	sub	r22, r28
   11262:	7d 0b       	sbc	r23, r29
   11264:	6d 3d       	cpi	r22, 0xDD	; 221
   11266:	71 05       	cpc	r23, r1
   11268:	14 f0       	brlt	.+4      	; 0x1126e <motor_speed+0x2e>
   1126a:	6c ed       	ldi	r22, 0xDC	; 220
   1126c:	70 e0       	ldi	r23, 0x00	; 0
	
	if		(speed > MOTOR_MAX_SPEED)	{ speed = MOTOR_MAX_SPEED; }
	//else if (speed < MOTOR_MIN_SPEED)	{ speed =				1; }
		
	max520_write(MAX520_CHANNEL_MOTOR, (uint8_t)speed);
   1126e:	80 e0       	ldi	r24, 0x00	; 0
   11270:	50 df       	rcall	.-352    	; 0x11112 <max520_write>
}
   11272:	df 91       	pop	r29
   11274:	cf 91       	pop	r28
   11276:	08 95       	ret

00011278 <motor_init>:
	}
}

//	Initializes the motor in port C
void motor_init() {
	max520_init(MAX520_TWI_ADDRESS);
   11278:	80 e0       	ldi	r24, 0x00	; 0
   1127a:	43 df       	rcall	.-378    	; 0x11102 <max520_init>
	
	DDRC |= (1<<PC3) | (1<<PC4) | (1<<PC5) | (1<<PC6) | (1<<PC7);
   1127c:	87 b1       	in	r24, 0x07	; 7
   1127e:	88 6f       	ori	r24, 0xF8	; 248
   11280:	87 b9       	out	0x07, r24	; 7
	
	DDRK = 0;
   11282:	10 92 07 01 	sts	0x0107, r1
	
	motor_output_enable(ENABLE);
   11286:	81 e0       	ldi	r24, 0x01	; 1
   11288:	b4 df       	rcall	.-152    	; 0x111f2 <motor_output_enable>
	motor_encoder_reset();
   1128a:	bd df       	rcall	.-134    	; 0x11206 <motor_encoder_reset>
	motor_encoder_select_byte(ENCODER_HIGH);
   1128c:	80 e0       	ldi	r24, 0x00	; 0
   1128e:	c2 df       	rcall	.-124    	; 0x11214 <motor_encoder_select_byte>
	motor_speed(0);
   11290:	80 e0       	ldi	r24, 0x00	; 0
   11292:	90 e0       	ldi	r25, 0x00	; 0
   11294:	d5 df       	rcall	.-86     	; 0x11240 <motor_speed>
	motor_enable(ENABLE);
   11296:	81 e0       	ldi	r24, 0x01	; 1
   11298:	c7 cf       	rjmp	.-114    	; 0x11228 <motor_enable>
   1129a:	08 95       	ret

0001129c <reverse_bits>:
		PORTC |= (1<<MOTOR_DIR);
	}
}

uint8_t reverse_bits(uint8_t val) {
	val = ((val & 0x55) << 1) | ((val & 0xaa) >> 1);
   1129c:	28 2f       	mov	r18, r24
   1129e:	2a 7a       	andi	r18, 0xAA	; 170
   112a0:	26 95       	lsr	r18
   112a2:	98 2f       	mov	r25, r24
   112a4:	95 75       	andi	r25, 0x55	; 85
   112a6:	99 0f       	add	r25, r25
   112a8:	92 2b       	or	r25, r18
	val = ((val & 0x33) << 2) | ((val & 0xcc) >> 2);
   112aa:	29 2f       	mov	r18, r25
   112ac:	2c 7c       	andi	r18, 0xCC	; 204
   112ae:	26 95       	lsr	r18
   112b0:	26 95       	lsr	r18
   112b2:	89 2f       	mov	r24, r25
   112b4:	83 73       	andi	r24, 0x33	; 51
   112b6:	88 0f       	add	r24, r24
   112b8:	88 0f       	add	r24, r24
   112ba:	82 2b       	or	r24, r18
	val = ((val & 0x0f) << 4) | ((val & 0xf0) >> 4);
	return val;
}
   112bc:	82 95       	swap	r24
   112be:	08 95       	ret

000112c0 <motor_encoder_read>:

int16_t motor_encoder_read(){
   112c0:	1f 93       	push	r17
   112c2:	cf 93       	push	r28
   112c4:	df 93       	push	r29
	motor_output_enable(ENABLE);
   112c6:	81 e0       	ldi	r24, 0x01	; 1
   112c8:	94 df       	rcall	.-216    	; 0x111f2 <motor_output_enable>
	
	motor_encoder_select_byte(ENCODER_HIGH);
   112ca:	80 e0       	ldi	r24, 0x00	; 0
   112cc:	a3 df       	rcall	.-186    	; 0x11214 <motor_encoder_select_byte>
	uint8_t msb = reverse_bits(PINK);
   112ce:	c6 e0       	ldi	r28, 0x06	; 6
   112d0:	d1 e0       	ldi	r29, 0x01	; 1
   112d2:	88 81       	ld	r24, Y
   112d4:	e3 df       	rcall	.-58     	; 0x1129c <reverse_bits>
   112d6:	18 2f       	mov	r17, r24
	motor_encoder_select_byte(ENCODER_LOW);
   112d8:	81 e0       	ldi	r24, 0x01	; 1
   112da:	9c df       	rcall	.-200    	; 0x11214 <motor_encoder_select_byte>
	uint8_t lsb = reverse_bits(PINK);	
   112dc:	88 81       	ld	r24, Y
   112de:	de df       	rcall	.-68     	; 0x1129c <reverse_bits>
   112e0:	c8 2f       	mov	r28, r24
	
	motor_output_enable(DISABLE);
   112e2:	80 e0       	ldi	r24, 0x00	; 0
   112e4:	86 df       	rcall	.-244    	; 0x111f2 <motor_output_enable>
	return -((msb << 8) | lsb);
   112e6:	2c 2f       	mov	r18, r28
   112e8:	30 e0       	ldi	r19, 0x00	; 0
   112ea:	c9 01       	movw	r24, r18
   112ec:	91 2b       	or	r25, r17
}
   112ee:	91 95       	neg	r25
   112f0:	81 95       	neg	r24
   112f2:	91 09       	sbc	r25, r1
   112f4:	df 91       	pop	r29
   112f6:	cf 91       	pop	r28
   112f8:	1f 91       	pop	r17
   112fa:	08 95       	ret

000112fc <music_init>:

//	Initialize the PWM 
void music_init(void)
{
    /* use OC1A pin as output */
    DDRH = _BV(PH3);
   112fc:	88 e0       	ldi	r24, 0x08	; 8
   112fe:	80 93 01 01 	sts	0x0101, r24
    /*
    * clear OC1A on compare match
    * set OC1A at BOTTOM, non-inverting mode
    * Fast PWM, 8bit
    */
    TCCR4A = _BV(COM4A1) | _BV(WGM40);
   11302:	91 e8       	ldi	r25, 0x81	; 129
   11304:	90 93 a0 00 	sts	0x00A0, r25
    /*
    * Fast PWM, 8bit
    * Prescaler: clk/1 = 8MHz
    * PWM frequency = 16MHz / (255 + 1) = 62.50kHz
    */
    TCCR4B = _BV(WGM42) | _BV(CS40); //presacler 8 = 010, 1 = 001
   11308:	99 e0       	ldi	r25, 0x09	; 9
   1130a:	90 93 a1 00 	sts	0x00A1, r25
   
    /* set initial duty cycle to zero */
    OCR4A = 0;
   1130e:	10 92 a9 00 	sts	0x00A9, r1
   11312:	10 92 a8 00 	sts	0x00A8, r1
   
    /* Setup Timer0 */
 
    TCCR0B|=(1<<CS00);
   11316:	95 b5       	in	r25, 0x25	; 37
   11318:	91 60       	ori	r25, 0x01	; 1
   1131a:	95 bd       	out	0x25, r25	; 37
    TCNT0=0;
   1131c:	16 bc       	out	0x26, r1	; 38
    TIMSK0|=(1<<TOIE0);
   1131e:	ee e6       	ldi	r30, 0x6E	; 110
   11320:	f0 e0       	ldi	r31, 0x00	; 0
   11322:	90 81       	ld	r25, Z
   11324:	91 60       	ori	r25, 0x01	; 1
   11326:	90 83       	st	Z, r25
    sample_count = 8;
   11328:	80 93 44 03 	sts	0x0344, r24
	astley_count = 0;
   1132c:	10 92 45 03 	sts	0x0345, r1
    sei(); //Enable interrupts
   11330:	78 94       	sei
   11332:	08 95       	ret

00011334 <__vector_23>:
}

//Called at a 32kHz frequency
ISR(TIMER0_OVF_vect){
   11334:	1f 92       	push	r1
   11336:	0f 92       	push	r0
   11338:	0f b6       	in	r0, 0x3f	; 63
   1133a:	0f 92       	push	r0
   1133c:	11 24       	eor	r1, r1
   1133e:	0b b6       	in	r0, 0x3b	; 59
   11340:	0f 92       	push	r0
   11342:	2f 93       	push	r18
   11344:	8f 93       	push	r24
   11346:	9f 93       	push	r25
   11348:	af 93       	push	r26
   1134a:	bf 93       	push	r27
   1134c:	ef 93       	push	r30
   1134e:	ff 93       	push	r31
	sample_count--;
   11350:	80 91 44 03 	lds	r24, 0x0344
   11354:	81 50       	subi	r24, 0x01	; 1
   11356:	80 93 44 03 	sts	0x0344, r24
	if (sample_count == 0) {
   1135a:	80 91 44 03 	lds	r24, 0x0344
   1135e:	81 11       	cpse	r24, r1
   11360:	bb c0       	rjmp	.+374    	; 0x114d8 <__vector_23+0x1a4>
		sample_count = 8;    
   11362:	88 e0       	ldi	r24, 0x08	; 8
   11364:	80 93 44 03 	sts	0x0344, r24
			      
			switch(astley_count){
   11368:	80 91 45 03 	lds	r24, 0x0345
   1136c:	90 e0       	ldi	r25, 0x00	; 0
   1136e:	88 30       	cpi	r24, 0x08	; 8
   11370:	91 05       	cpc	r25, r1
   11372:	08 f0       	brcs	.+2      	; 0x11376 <__vector_23+0x42>
   11374:	9b c0       	rjmp	.+310    	; 0x114ac <__vector_23+0x178>
   11376:	fc 01       	movw	r30, r24
   11378:	ee 58       	subi	r30, 0x8E	; 142
   1137a:	ff 4f       	sbci	r31, 0xFF	; 255
   1137c:	f6 c7       	rjmp	.+4076   	; 0x1236a <__tablejump2__>
				case 0:
					OCR4A = pgm_read_byte(&astley1_data[sample++]);
   1137e:	e0 91 46 03 	lds	r30, 0x0346
   11382:	f0 91 47 03 	lds	r31, 0x0347
   11386:	cf 01       	movw	r24, r30
   11388:	01 96       	adiw	r24, 0x01	; 1
   1138a:	90 93 47 03 	sts	0x0347, r25
   1138e:	80 93 46 03 	sts	0x0346, r24
   11392:	ea 58       	subi	r30, 0x8A	; 138
   11394:	f6 41       	sbci	r31, 0x16	; 22
   11396:	e4 91       	lpm	r30, Z
   11398:	f0 e0       	ldi	r31, 0x00	; 0
   1139a:	f0 93 a9 00 	sts	0x00A9, r31
   1139e:	e0 93 a8 00 	sts	0x00A8, r30
					break;
   113a2:	84 c0       	rjmp	.+264    	; 0x114ac <__vector_23+0x178>
				case 1:
					OCR4A = pgm_read_byte(&astley2_data[sample++]);
   113a4:	e0 91 46 03 	lds	r30, 0x0346
   113a8:	f0 91 47 03 	lds	r31, 0x0347
   113ac:	cf 01       	movw	r24, r30
   113ae:	01 96       	adiw	r24, 0x01	; 1
   113b0:	90 93 47 03 	sts	0x0347, r25
   113b4:	80 93 46 03 	sts	0x0346, r24
   113b8:	ea 5a       	subi	r30, 0xAA	; 170
   113ba:	f7 43       	sbci	r31, 0x37	; 55
   113bc:	e4 91       	lpm	r30, Z
   113be:	f0 e0       	ldi	r31, 0x00	; 0
   113c0:	f0 93 a9 00 	sts	0x00A9, r31
   113c4:	e0 93 a8 00 	sts	0x00A8, r30
					break;
   113c8:	71 c0       	rjmp	.+226    	; 0x114ac <__vector_23+0x178>
				case 2:
					OCR4A = pgm_read_byte(&astley3_data[sample++]);
   113ca:	e0 91 46 03 	lds	r30, 0x0346
   113ce:	f0 91 47 03 	lds	r31, 0x0347
   113d2:	cf 01       	movw	r24, r30
   113d4:	01 96       	adiw	r24, 0x01	; 1
   113d6:	90 93 47 03 	sts	0x0347, r25
   113da:	80 93 46 03 	sts	0x0346, r24
   113de:	ea 5c       	subi	r30, 0xCA	; 202
   113e0:	f8 45       	sbci	r31, 0x58	; 88
   113e2:	e4 91       	lpm	r30, Z
   113e4:	f0 e0       	ldi	r31, 0x00	; 0
   113e6:	f0 93 a9 00 	sts	0x00A9, r31
   113ea:	e0 93 a8 00 	sts	0x00A8, r30
					break;
   113ee:	5e c0       	rjmp	.+188    	; 0x114ac <__vector_23+0x178>
				case 3:
					OCR4A = pgm_read_byte(&astley4_data[sample++]);
   113f0:	e0 91 46 03 	lds	r30, 0x0346
   113f4:	f0 91 47 03 	lds	r31, 0x0347
   113f8:	cf 01       	movw	r24, r30
   113fa:	01 96       	adiw	r24, 0x01	; 1
   113fc:	90 93 47 03 	sts	0x0347, r25
   11400:	80 93 46 03 	sts	0x0346, r24
   11404:	ea 5e       	subi	r30, 0xEA	; 234
   11406:	f9 47       	sbci	r31, 0x79	; 121
   11408:	e4 91       	lpm	r30, Z
   1140a:	f0 e0       	ldi	r31, 0x00	; 0
   1140c:	f0 93 a9 00 	sts	0x00A9, r31
   11410:	e0 93 a8 00 	sts	0x00A8, r30
					break;
   11414:	4b c0       	rjmp	.+150    	; 0x114ac <__vector_23+0x178>
				case 4:
					OCR4A = pgm_read_byte(&astley5_data[sample++]);
   11416:	e0 91 46 03 	lds	r30, 0x0346
   1141a:	f0 91 47 03 	lds	r31, 0x0347
   1141e:	cf 01       	movw	r24, r30
   11420:	01 96       	adiw	r24, 0x01	; 1
   11422:	90 93 47 03 	sts	0x0347, r25
   11426:	80 93 46 03 	sts	0x0346, r24
   1142a:	ea 50       	subi	r30, 0x0A	; 10
   1142c:	fb 49       	sbci	r31, 0x9B	; 155
   1142e:	e4 91       	lpm	r30, Z
   11430:	f0 e0       	ldi	r31, 0x00	; 0
   11432:	f0 93 a9 00 	sts	0x00A9, r31
   11436:	e0 93 a8 00 	sts	0x00A8, r30
					break;
   1143a:	38 c0       	rjmp	.+112    	; 0x114ac <__vector_23+0x178>
				case 5:
					OCR4A = pgm_read_byte(&astley6_data[sample++]);
   1143c:	e0 91 46 03 	lds	r30, 0x0346
   11440:	f0 91 47 03 	lds	r31, 0x0347
   11444:	cf 01       	movw	r24, r30
   11446:	01 96       	adiw	r24, 0x01	; 1
   11448:	90 93 47 03 	sts	0x0347, r25
   1144c:	80 93 46 03 	sts	0x0346, r24
   11450:	ea 52       	subi	r30, 0x2A	; 42
   11452:	fc 4b       	sbci	r31, 0xBC	; 188
   11454:	e4 91       	lpm	r30, Z
   11456:	f0 e0       	ldi	r31, 0x00	; 0
   11458:	f0 93 a9 00 	sts	0x00A9, r31
   1145c:	e0 93 a8 00 	sts	0x00A8, r30
					break;
   11460:	25 c0       	rjmp	.+74     	; 0x114ac <__vector_23+0x178>
				case 6:
					OCR4A = pgm_read_byte(&astley7_data[sample++]);
   11462:	e0 91 46 03 	lds	r30, 0x0346
   11466:	f0 91 47 03 	lds	r31, 0x0347
   1146a:	cf 01       	movw	r24, r30
   1146c:	01 96       	adiw	r24, 0x01	; 1
   1146e:	90 93 47 03 	sts	0x0347, r25
   11472:	80 93 46 03 	sts	0x0346, r24
   11476:	ea 54       	subi	r30, 0x4A	; 74
   11478:	fd 4d       	sbci	r31, 0xDD	; 221
   1147a:	e4 91       	lpm	r30, Z
   1147c:	f0 e0       	ldi	r31, 0x00	; 0
   1147e:	f0 93 a9 00 	sts	0x00A9, r31
   11482:	e0 93 a8 00 	sts	0x00A8, r30
					break;
   11486:	12 c0       	rjmp	.+36     	; 0x114ac <__vector_23+0x178>
				case 7:
					OCR4A = pgm_read_byte(&astley8_data[sample++]);
   11488:	e0 91 46 03 	lds	r30, 0x0346
   1148c:	f0 91 47 03 	lds	r31, 0x0347
   11490:	cf 01       	movw	r24, r30
   11492:	01 96       	adiw	r24, 0x01	; 1
   11494:	90 93 47 03 	sts	0x0347, r25
   11498:	80 93 46 03 	sts	0x0346, r24
   1149c:	ea 56       	subi	r30, 0x6A	; 106
   1149e:	fe 4f       	sbci	r31, 0xFE	; 254
   114a0:	e4 91       	lpm	r30, Z
   114a2:	f0 e0       	ldi	r31, 0x00	; 0
   114a4:	f0 93 a9 00 	sts	0x00A9, r31
   114a8:	e0 93 a8 00 	sts	0x00A8, r30
					break;
				default: 
					break;
			}

            if(sample>astley1_length) {
   114ac:	80 91 46 03 	lds	r24, 0x0346
   114b0:	90 91 47 03 	lds	r25, 0x0347
   114b4:	81 32       	cpi	r24, 0x21	; 33
   114b6:	91 42       	sbci	r25, 0x21	; 33
   114b8:	7c f0       	brlt	.+30     	; 0x114d8 <__vector_23+0x1a4>
				sample=0;
   114ba:	10 92 47 03 	sts	0x0347, r1
   114be:	10 92 46 03 	sts	0x0346, r1
				astley_count++;
   114c2:	80 91 45 03 	lds	r24, 0x0345
   114c6:	8f 5f       	subi	r24, 0xFF	; 255
   114c8:	80 93 45 03 	sts	0x0345, r24
				if(astley_count>7) { astley_count = 0; }
   114cc:	80 91 45 03 	lds	r24, 0x0345
   114d0:	88 30       	cpi	r24, 0x08	; 8
   114d2:	10 f0       	brcs	.+4      	; 0x114d8 <__vector_23+0x1a4>
   114d4:	10 92 45 03 	sts	0x0345, r1
			}
		}
} 
   114d8:	ff 91       	pop	r31
   114da:	ef 91       	pop	r30
   114dc:	bf 91       	pop	r27
   114de:	af 91       	pop	r26
   114e0:	9f 91       	pop	r25
   114e2:	8f 91       	pop	r24
   114e4:	2f 91       	pop	r18
   114e6:	0f 90       	pop	r0
   114e8:	0b be       	out	0x3b, r0	; 59
   114ea:	0f 90       	pop	r0
   114ec:	0f be       	out	0x3f, r0	; 63
   114ee:	0f 90       	pop	r0
   114f0:	1f 90       	pop	r1
   114f2:	18 95       	reti

000114f4 <pwm_init>:
	ICR3 = DUTY_CYCLE_STEPS;
	pwm_set_value(MID_SERVO);
}

void pwm_set_value(uint16_t val) {
	OCR3A = val;
   114f4:	6b 9a       	sbi	0x0d, 3	; 13
   114f6:	a1 e9       	ldi	r26, 0x91	; 145
   114f8:	b0 e0       	ldi	r27, 0x00	; 0
   114fa:	8c 91       	ld	r24, X
   114fc:	82 60       	ori	r24, 0x02	; 2
   114fe:	8c 93       	st	X, r24
   11500:	8c 91       	ld	r24, X
   11502:	8a 7f       	andi	r24, 0xFA	; 250
   11504:	8c 93       	st	X, r24
   11506:	e0 e9       	ldi	r30, 0x90	; 144
   11508:	f0 e0       	ldi	r31, 0x00	; 0
   1150a:	80 81       	ld	r24, Z
   1150c:	82 60       	ori	r24, 0x02	; 2
   1150e:	80 83       	st	Z, r24
   11510:	80 81       	ld	r24, Z
   11512:	8e 7f       	andi	r24, 0xFE	; 254
   11514:	80 83       	st	Z, r24
   11516:	8c 91       	ld	r24, X
   11518:	88 61       	ori	r24, 0x18	; 24
   1151a:	8c 93       	st	X, r24
   1151c:	80 81       	ld	r24, Z
   1151e:	80 68       	ori	r24, 0x80	; 128
   11520:	80 83       	st	Z, r24
   11522:	80 81       	ld	r24, Z
   11524:	8f 7b       	andi	r24, 0xBF	; 191
   11526:	80 83       	st	Z, r24
   11528:	80 e4       	ldi	r24, 0x40	; 64
   1152a:	9c e9       	ldi	r25, 0x9C	; 156
   1152c:	90 93 97 00 	sts	0x0097, r25
   11530:	80 93 96 00 	sts	0x0096, r24
   11534:	88 eb       	ldi	r24, 0xB8	; 184
   11536:	9b e0       	ldi	r25, 0x0B	; 11
   11538:	90 93 99 00 	sts	0x0099, r25
   1153c:	80 93 98 00 	sts	0x0098, r24
   11540:	08 95       	ret

00011542 <pwm_set_servo>:
}

void pwm_set_servo(int16_t val){
	val += 128;
   11542:	9c 01       	movw	r18, r24
   11544:	20 58       	subi	r18, 0x80	; 128
   11546:	3f 4f       	sbci	r19, 0xFF	; 255
	//printf("%d\n", val);
	val = (val*(VAL_SCALE/UNDERFLOW_FIX)) / 255 * UNDERFLOW_FIX + MIN_SERVO;
   11548:	4b e4       	ldi	r20, 0x4B	; 75
   1154a:	42 9f       	mul	r20, r18
   1154c:	c0 01       	movw	r24, r0
   1154e:	43 9f       	mul	r20, r19
   11550:	90 0d       	add	r25, r0
   11552:	11 24       	eor	r1, r1
   11554:	6f ef       	ldi	r22, 0xFF	; 255
   11556:	70 e0       	ldi	r23, 0x00	; 0
   11558:	f5 d6       	rcall	.+3562   	; 0x12344 <__divmodhi4>
   1155a:	66 0f       	add	r22, r22
   1155c:	77 1f       	adc	r23, r23
   1155e:	62 95       	swap	r22
   11560:	72 95       	swap	r23
   11562:	70 7f       	andi	r23, 0xF0	; 240
   11564:	76 27       	eor	r23, r22
   11566:	60 7f       	andi	r22, 0xF0	; 240
   11568:	76 27       	eor	r23, r22
   1156a:	68 5f       	subi	r22, 0xF8	; 248
   1156c:	78 4f       	sbci	r23, 0xF8	; 248
	ICR3 = DUTY_CYCLE_STEPS;
	pwm_set_value(MID_SERVO);
}

void pwm_set_value(uint16_t val) {
	OCR3A = val;
   1156e:	70 93 99 00 	sts	0x0099, r23
   11572:	60 93 98 00 	sts	0x0098, r22
   11576:	08 95       	ret

00011578 <solenoid_init>:

//private variables
uint8_t solenoid_out_counter;

void solenoid_init(){
	DDRF |= (1<<PF2);
   11578:	82 9a       	sbi	0x10, 2	; 16
	PORTF |= (1<<PF2);
   1157a:	8a 9a       	sbi	0x11, 2	; 17
	
	solenoid_out_counter = 2;
   1157c:	82 e0       	ldi	r24, 0x02	; 2
   1157e:	80 93 48 03 	sts	0x0348, r24
   11582:	08 95       	ret

00011584 <solenoid_out>:
	
}

void solenoid_out(){
	//puts("Solenoid out!");
	PORTF &= ~(1<<PF2);
   11584:	8a 98       	cbi	0x11, 2	; 17
	solenoid_out_counter = 3;
   11586:	83 e0       	ldi	r24, 0x03	; 3
   11588:	80 93 48 03 	sts	0x0348, r24
   1158c:	08 95       	ret

0001158e <solenoid_in>:
	//_delay_ms(15);
	
}

void solenoid_in(){
	if (solenoid_out_counter == 0) {
   1158e:	80 91 48 03 	lds	r24, 0x0348
   11592:	81 11       	cpse	r24, r1
   11594:	04 c0       	rjmp	.+8      	; 0x1159e <solenoid_in+0x10>
		PORTF |= (1<<PF2);
   11596:	8a 9a       	sbi	0x11, 2	; 17
		solenoid_out_counter = 3;
   11598:	83 e0       	ldi	r24, 0x03	; 3
   1159a:	80 93 48 03 	sts	0x0348, r24
	} 
	solenoid_out_counter--;
   1159e:	80 91 48 03 	lds	r24, 0x0348
   115a2:	81 50       	subi	r24, 0x01	; 1
   115a4:	80 93 48 03 	sts	0x0348, r24
   115a8:	08 95       	ret

000115aa <spi_init>:
#define SPI_MISO PB3
#define SPI_SCK PB1 

void spi_init(){
	//Set MOSI, SCK and SS as output pins 	
	DDRB |= (1 << SPI_MOSI) | (1 << SPI_SCK) | (1 << SPI_SS);
   115aa:	84 b1       	in	r24, 0x04	; 4
   115ac:	87 60       	ori	r24, 0x07	; 7
   115ae:	84 b9       	out	0x04, r24	; 4
	
	//Set MISO as input pin
	DDRB &= ~(1 << SPI_MISO);
   115b0:	23 98       	cbi	0x04, 3	; 4
	
	//Enable SPI in master mode and set clock rate fosc/16
	SPCR |= (1 << SPE) | (1 << MSTR) | (1 << SPR0);
   115b2:	8c b5       	in	r24, 0x2c	; 44
   115b4:	81 65       	ori	r24, 0x51	; 81
   115b6:	8c bd       	out	0x2c, r24	; 44
   115b8:	08 95       	ret

000115ba <spi_send>:
	return SPDR;
}

void spi_send(char data){
	//Start transmission
	SPDR = data;
   115ba:	8e bd       	out	0x2e, r24	; 46
	
	//Wait for transmission, checks if register is empty 
	while(!(SPSR & (1 << SPIF)));
   115bc:	0d b4       	in	r0, 0x2d	; 45
   115be:	07 fe       	sbrs	r0, 7
   115c0:	fd cf       	rjmp	.-6      	; 0x115bc <spi_send+0x2>
}
   115c2:	08 95       	ret

000115c4 <spi_read>:
}


uint8_t spi_read(){
	//Dummy send in order to read from slave
	spi_send(0xaa);
   115c4:	8a ea       	ldi	r24, 0xAA	; 170
   115c6:	f9 df       	rcall	.-14     	; 0x115ba <spi_send>
	
	while(!(SPSR & (1 << SPIF)));
   115c8:	0d b4       	in	r0, 0x2d	; 45
   115ca:	07 fe       	sbrs	r0, 7
   115cc:	fd cf       	rjmp	.-6      	; 0x115c8 <spi_read+0x4>

	return SPDR;
   115ce:	8e b5       	in	r24, 0x2e	; 46
}
   115d0:	08 95       	ret

000115d2 <spi_select>:
	while(!(SPSR & (1 << SPIF)));
}

void spi_select(){
	//Set !SS to 0 for selection of slave
	PORTB &= ~(1 << SPI_SS);
   115d2:	28 98       	cbi	0x05, 0	; 5
   115d4:	08 95       	ret

000115d6 <spi_deselect>:
}

void spi_deselect(){
	//Set !SS to 1 for deselection of slave
	PORTB |= (1 << SPI_SS);
   115d6:	28 9a       	sbi	0x05, 0	; 5
   115d8:	08 95       	ret

000115da <uart_sendChar>:

}

void uart_sendChar(unsigned char data){
	//Wait for empty transmitter buffer
	while(!(UCSR0A & (1<<UDRE0)));
   115da:	e0 ec       	ldi	r30, 0xC0	; 192
   115dc:	f0 e0       	ldi	r31, 0x00	; 0
   115de:	90 81       	ld	r25, Z
   115e0:	95 ff       	sbrs	r25, 5
   115e2:	fd cf       	rjmp	.-6      	; 0x115de <uart_sendChar+0x4>
		
	//Put data into buffer, then send the data
	UDR0 = data;
   115e4:	80 93 c6 00 	sts	0x00C6, r24
   115e8:	08 95       	ret

000115ea <uart_getChar>:
}


unsigned int uart_getChar(){
	//Wait for the data to be received 
	while(!(UCSR0A & (1<<RXC0))){}
   115ea:	e0 ec       	ldi	r30, 0xC0	; 192
   115ec:	f0 e0       	ldi	r31, 0x00	; 0
   115ee:	80 81       	ld	r24, Z
   115f0:	88 23       	and	r24, r24
   115f2:	ec f7       	brge	.-6      	; 0x115ee <uart_getChar+0x4>
	
	//Get status and the 9th bit, then data from buffer
	return UDR0;
   115f4:	80 91 c6 00 	lds	r24, 0x00C6
}
   115f8:	90 e0       	ldi	r25, 0x00	; 0
   115fa:	08 95       	ret

000115fc <uart_init>:

static FILE uart_io = FDEV_SETUP_STREAM(uart_sendChar, uart_getChar, _FDEV_SETUP_RW);

void uart_init(unsigned int ubrr){
	//Set baud rate
	UBRR0L = (unsigned int) ubrr;
   115fc:	80 93 c4 00 	sts	0x00C4, r24
	
	//Enable receiver and transmitter
	UCSR0B = (1<<RXEN0) | (1<<TXEN0);
   11600:	88 e1       	ldi	r24, 0x18	; 24
   11602:	80 93 c1 00 	sts	0x00C1, r24
	
	stdout = &uart_io;
   11606:	80 e0       	ldi	r24, 0x00	; 0
   11608:	92 e0       	ldi	r25, 0x02	; 2
   1160a:	90 93 4c 03 	sts	0x034C, r25
   1160e:	80 93 4b 03 	sts	0x034B, r24
	stdin = &uart_io;
   11612:	90 93 4a 03 	sts	0x034A, r25
   11616:	80 93 49 03 	sts	0x0349, r24
   1161a:	08 95       	ret

0001161c <main>:
#include "Drivers/music_driver.h"

//	Calls all init functions, the timer interrupt vector
//	takes care of everything else in the background 
int main(void){
	uart_init(MYUBRR);
   1161c:	87 e6       	ldi	r24, 0x67	; 103
   1161e:	90 e0       	ldi	r25, 0x00	; 0
   11620:	ed df       	rcall	.-38     	; 0x115fc <uart_init>
	can_init();
   11622:	0c dc       	rcall	.-2024   	; 0x10e3c <can_init>
	pwm_init();
   11624:	67 df       	rcall	.-306    	; 0x114f4 <pwm_init>
	adc_init();
   11626:	eb db       	rcall	.-2090   	; 0x10dfe <adc_init>
	ir_filter_init();
   11628:	58 dd       	rcall	.-1360   	; 0x110da <ir_filter_init>
	solenoid_init();
   1162a:	a6 df       	rcall	.-180    	; 0x11578 <solenoid_init>
	motor_init();
   1162c:	25 de       	rcall	.-950    	; 0x11278 <motor_init>
	pi_init();
   1162e:	5e db       	rcall	.-2372   	; 0x10cec <pi_init>
	timer_init(); //should be last, starts interrupts
   11630:	13 d0       	rcall	.+38     	; 0x11658 <timer_init>
	#else
		//round up by default
		__ticks_dc = (uint32_t)(ceil(fabs(__tmp)));
	#endif

	__builtin_avr_delay_cycles(__ticks_dc);
   11632:	2f ef       	ldi	r18, 0xFF	; 255
   11634:	89 e6       	ldi	r24, 0x69	; 105
   11636:	98 e1       	ldi	r25, 0x18	; 24
   11638:	21 50       	subi	r18, 0x01	; 1
   1163a:	80 40       	sbci	r24, 0x00	; 0
   1163c:	90 40       	sbci	r25, 0x00	; 0
   1163e:	e1 f7       	brne	.-8      	; 0x11638 <main+0x1c>
   11640:	00 c0       	rjmp	.+0      	; 0x11642 <main+0x26>
   11642:	00 00       	nop
   11644:	f6 cf       	rjmp	.-20     	; 0x11632 <main+0x16>

00011646 <timer_enable>:
	
}

//	Enable timer
void timer_enable() {
	TCCR5B |=  (1<<CS52) | (1<<CS50);
   11646:	e1 e2       	ldi	r30, 0x21	; 33
   11648:	f1 e0       	ldi	r31, 0x01	; 1
   1164a:	80 81       	ld	r24, Z
   1164c:	85 60       	ori	r24, 0x05	; 5
   1164e:	80 83       	st	Z, r24
	TCCR5B &= ~(1<<CS51);
   11650:	80 81       	ld	r24, Z
   11652:	8d 7f       	andi	r24, 0xFD	; 253
   11654:	80 83       	st	Z, r24
   11656:	08 95       	ret

00011658 <timer_init>:
#include "../Controller/pi.h"

//	Init the timer and interrupts
void timer_init() {
	//CS3{2:0}   = 101  prescaler set to 1024
	timer_enable();
   11658:	f6 df       	rcall	.-20     	; 0x11646 <timer_enable>
	
	TCCR5A &= ~(1<<WGM50);
   1165a:	e0 e2       	ldi	r30, 0x20	; 32
   1165c:	f1 e0       	ldi	r31, 0x01	; 1
   1165e:	80 81       	ld	r24, Z
   11660:	8e 7f       	andi	r24, 0xFE	; 254
   11662:	80 83       	st	Z, r24
	TCCR5A &= ~(1<<WGM51);
   11664:	80 81       	ld	r24, Z
   11666:	8d 7f       	andi	r24, 0xFD	; 253
   11668:	80 83       	st	Z, r24
	TCCR5B |=  (1<<WGM52);
   1166a:	e1 e2       	ldi	r30, 0x21	; 33
   1166c:	f1 e0       	ldi	r31, 0x01	; 1
   1166e:	80 81       	ld	r24, Z
   11670:	88 60       	ori	r24, 0x08	; 8
   11672:	80 83       	st	Z, r24
	TCCR5B &= ~(1<<WGM53);
   11674:	80 81       	ld	r24, Z
   11676:	8f 7e       	andi	r24, 0xEF	; 239
   11678:	80 83       	st	Z, r24
	//TCCR3A |=  (1<<COM3A1) | (1<<COM3A0);
	
	OCR5A = TIMER5_OCRA; // 223 for 70 HZ, 7812 for 2 Hz
   1167a:	80 ea       	ldi	r24, 0xA0	; 160
   1167c:	90 e0       	ldi	r25, 0x00	; 0
   1167e:	90 93 29 01 	sts	0x0129, r25
   11682:	80 93 28 01 	sts	0x0128, r24
	
	//enable interrupt on OCR3A compare
	TIMSK5 |= (1<<OCIE5A);
   11686:	e3 e7       	ldi	r30, 0x73	; 115
   11688:	f0 e0       	ldi	r31, 0x00	; 0
   1168a:	80 81       	ld	r24, Z
   1168c:	82 60       	ori	r24, 0x02	; 2
   1168e:	80 83       	st	Z, r24
	TIFR5 |= (1<<ICF1);	
   11690:	d5 9a       	sbi	0x1a, 5	; 26

	sei();
   11692:	78 94       	sei
   11694:	08 95       	ret

00011696 <timer_disable>:
}

//	Disable timer
void timer_disable() {
	//prescaler = 0, no clock source
	TCCR5B &= ~((1<<CS52) | (1<<CS51) | (1<<CS50));
   11696:	e1 e2       	ldi	r30, 0x21	; 33
   11698:	f1 e0       	ldi	r31, 0x01	; 1
   1169a:	80 81       	ld	r24, Z
   1169c:	88 7f       	andi	r24, 0xF8	; 248
   1169e:	80 83       	st	Z, r24
   116a0:	08 95       	ret

000116a2 <__vector_47>:
}

//	Calles at a 100Hz frequency. Checks if IR is obstructed, handles any  
//	messages an updates the controller
ISR(TIMER5_COMPA_vect){
   116a2:	1f 92       	push	r1
   116a4:	0f 92       	push	r0
   116a6:	0f b6       	in	r0, 0x3f	; 63
   116a8:	0f 92       	push	r0
   116aa:	11 24       	eor	r1, r1
   116ac:	0b b6       	in	r0, 0x3b	; 59
   116ae:	0f 92       	push	r0
   116b0:	2f 93       	push	r18
   116b2:	3f 93       	push	r19
   116b4:	4f 93       	push	r20
   116b6:	5f 93       	push	r21
   116b8:	6f 93       	push	r22
   116ba:	7f 93       	push	r23
   116bc:	8f 93       	push	r24
   116be:	9f 93       	push	r25
   116c0:	af 93       	push	r26
   116c2:	bf 93       	push	r27
   116c4:	ef 93       	push	r30
   116c6:	ff 93       	push	r31
	solenoid_in(); //retracts solenoid after 
   116c8:	62 df       	rcall	.-316    	; 0x1158e <solenoid_in>
	
	if(ir_edge_detected()){
   116ca:	0e dd       	rcall	.-1508   	; 0x110e8 <ir_edge_detected>
   116cc:	81 11       	cpse	r24, r1
		can_ir_transmit();	
   116ce:	c2 dc       	rcall	.-1660   	; 0x11054 <can_ir_transmit>
	}
	
	can_handle_message();
   116d0:	7c dc       	rcall	.-1800   	; 0x10fca <can_handle_message>
	pi_update();
   116d2:	25 db       	rcall	.-2486   	; 0x10d1e <pi_update>
   116d4:	ff 91       	pop	r31
   116d6:	ef 91       	pop	r30
   116d8:	bf 91       	pop	r27
   116da:	af 91       	pop	r26
   116dc:	9f 91       	pop	r25
   116de:	8f 91       	pop	r24
   116e0:	7f 91       	pop	r23
   116e2:	6f 91       	pop	r22
   116e4:	5f 91       	pop	r21
   116e6:	4f 91       	pop	r20
   116e8:	3f 91       	pop	r19
   116ea:	2f 91       	pop	r18
   116ec:	0f 90       	pop	r0
   116ee:	0b be       	out	0x3b, r0	; 59
   116f0:	0f 90       	pop	r0
   116f2:	0f be       	out	0x3f, r0	; 63
   116f4:	0f 90       	pop	r0
   116f6:	1f 90       	pop	r1
   116f8:	18 95       	reti

000116fa <TWI_Master_Initialise>:
		{
			msg[ i ] = TWI_buf[ i ];
		}
	}
	return( TWI_statusReg.lastTransOK );
}
   116fa:	8c e0       	ldi	r24, 0x0C	; 12
   116fc:	80 93 b8 00 	sts	0x00B8, r24
   11700:	8f ef       	ldi	r24, 0xFF	; 255
   11702:	80 93 bb 00 	sts	0x00BB, r24
   11706:	84 e0       	ldi	r24, 0x04	; 4
   11708:	80 93 bc 00 	sts	0x00BC, r24
   1170c:	08 95       	ret

0001170e <TWI_Start_Transceiver_With_Data>:
   1170e:	ec eb       	ldi	r30, 0xBC	; 188
   11710:	f0 e0       	ldi	r31, 0x00	; 0
   11712:	20 81       	ld	r18, Z
   11714:	20 fd       	sbrc	r18, 0
   11716:	fd cf       	rjmp	.-6      	; 0x11712 <TWI_Start_Transceiver_With_Data+0x4>
   11718:	60 93 31 03 	sts	0x0331, r22
   1171c:	fc 01       	movw	r30, r24
   1171e:	20 81       	ld	r18, Z
   11720:	20 93 32 03 	sts	0x0332, r18
   11724:	20 fd       	sbrc	r18, 0
   11726:	0c c0       	rjmp	.+24     	; 0x11740 <TWI_Start_Transceiver_With_Data+0x32>
   11728:	62 30       	cpi	r22, 0x02	; 2
   1172a:	50 f0       	brcs	.+20     	; 0x11740 <TWI_Start_Transceiver_With_Data+0x32>
   1172c:	dc 01       	movw	r26, r24
   1172e:	11 96       	adiw	r26, 0x01	; 1
   11730:	e3 e3       	ldi	r30, 0x33	; 51
   11732:	f3 e0       	ldi	r31, 0x03	; 3
   11734:	81 e0       	ldi	r24, 0x01	; 1
   11736:	9d 91       	ld	r25, X+
   11738:	91 93       	st	Z+, r25
   1173a:	8f 5f       	subi	r24, 0xFF	; 255
   1173c:	86 13       	cpse	r24, r22
   1173e:	fb cf       	rjmp	.-10     	; 0x11736 <TWI_Start_Transceiver_With_Data+0x28>
   11740:	10 92 30 03 	sts	0x0330, r1
   11744:	88 ef       	ldi	r24, 0xF8	; 248
   11746:	80 93 0e 02 	sts	0x020E, r24
   1174a:	85 ea       	ldi	r24, 0xA5	; 165
   1174c:	80 93 bc 00 	sts	0x00BC, r24
   11750:	08 95       	ret

00011752 <__vector_39>:
This function is the Interrupt Service Routine (ISR), and called when the TWI interrupt is triggered;
that is whenever a TWI event has occurred. This function should not be called directly from the main
application.
****************************************************************************/
ISR(TWI_vect)
{
   11752:	1f 92       	push	r1
   11754:	0f 92       	push	r0
   11756:	0f b6       	in	r0, 0x3f	; 63
   11758:	0f 92       	push	r0
   1175a:	11 24       	eor	r1, r1
   1175c:	0b b6       	in	r0, 0x3b	; 59
   1175e:	0f 92       	push	r0
   11760:	2f 93       	push	r18
   11762:	3f 93       	push	r19
   11764:	8f 93       	push	r24
   11766:	9f 93       	push	r25
   11768:	af 93       	push	r26
   1176a:	bf 93       	push	r27
   1176c:	ef 93       	push	r30
   1176e:	ff 93       	push	r31
	static unsigned char TWI_bufPtr;
	
	switch (TWSR)
   11770:	80 91 b9 00 	lds	r24, 0x00B9
   11774:	90 e0       	ldi	r25, 0x00	; 0
   11776:	fc 01       	movw	r30, r24
   11778:	38 97       	sbiw	r30, 0x08	; 8
   1177a:	e1 35       	cpi	r30, 0x51	; 81
   1177c:	f1 05       	cpc	r31, r1
   1177e:	08 f0       	brcs	.+2      	; 0x11782 <__vector_39+0x30>
   11780:	55 c0       	rjmp	.+170    	; 0x1182c <__vector_39+0xda>
   11782:	e6 58       	subi	r30, 0x86	; 134
   11784:	ff 4f       	sbci	r31, 0xFF	; 255
   11786:	f1 c5       	rjmp	.+3042   	; 0x1236a <__tablejump2__>
	{
		case TWI_START:             // START has been transmitted
		case TWI_REP_START:         // Repeated START has been transmitted
		TWI_bufPtr = 0;                                     // Set buffer pointer to the TWI Address location
   11788:	10 92 2f 03 	sts	0x032F, r1
		case TWI_MTX_ADR_ACK:       // SLA+W has been tramsmitted and ACK received
		case TWI_MTX_DATA_ACK:      // Data byte has been tramsmitted and ACK received
		if (TWI_bufPtr < TWI_msgSize)
   1178c:	e0 91 2f 03 	lds	r30, 0x032F
   11790:	80 91 31 03 	lds	r24, 0x0331
   11794:	e8 17       	cp	r30, r24
   11796:	70 f4       	brcc	.+28     	; 0x117b4 <__vector_39+0x62>
		{
			TWDR = TWI_buf[TWI_bufPtr++];
   11798:	81 e0       	ldi	r24, 0x01	; 1
   1179a:	8e 0f       	add	r24, r30
   1179c:	80 93 2f 03 	sts	0x032F, r24
   117a0:	f0 e0       	ldi	r31, 0x00	; 0
   117a2:	ee 5c       	subi	r30, 0xCE	; 206
   117a4:	fc 4f       	sbci	r31, 0xFC	; 252
   117a6:	80 81       	ld	r24, Z
   117a8:	80 93 bb 00 	sts	0x00BB, r24
			TWCR = (1<<TWEN)|                                 // TWI Interface enabled
   117ac:	85 e8       	ldi	r24, 0x85	; 133
   117ae:	80 93 bc 00 	sts	0x00BC, r24
   117b2:	43 c0       	rjmp	.+134    	; 0x1183a <__vector_39+0xe8>
			(1<<TWIE)|(1<<TWINT)|                      // Enable TWI Interupt and clear the flag to send byte
			(0<<TWEA)|(0<<TWSTA)|(0<<TWSTO)|           //
			(0<<TWWC);                                 //
		}else                    // Send STOP after last byte
		{
			TWI_statusReg.lastTransOK = TRUE;                 // Set status bits to completed successfully.
   117b4:	80 91 30 03 	lds	r24, 0x0330
   117b8:	81 60       	ori	r24, 0x01	; 1
   117ba:	80 93 30 03 	sts	0x0330, r24
			TWCR = (1<<TWEN)|                                 // TWI Interface enabled
   117be:	84 e9       	ldi	r24, 0x94	; 148
   117c0:	80 93 bc 00 	sts	0x00BC, r24
   117c4:	3a c0       	rjmp	.+116    	; 0x1183a <__vector_39+0xe8>
			(0<<TWEA)|(0<<TWSTA)|(1<<TWSTO)|           // Initiate a STOP condition.
			(0<<TWWC);                                 //
		}
		break;
		case TWI_MRX_DATA_ACK:      // Data byte has been received and ACK tramsmitted
		TWI_buf[TWI_bufPtr++] = TWDR;
   117c6:	e0 91 2f 03 	lds	r30, 0x032F
   117ca:	81 e0       	ldi	r24, 0x01	; 1
   117cc:	8e 0f       	add	r24, r30
   117ce:	80 93 2f 03 	sts	0x032F, r24
   117d2:	80 91 bb 00 	lds	r24, 0x00BB
   117d6:	f0 e0       	ldi	r31, 0x00	; 0
   117d8:	ee 5c       	subi	r30, 0xCE	; 206
   117da:	fc 4f       	sbci	r31, 0xFC	; 252
   117dc:	80 83       	st	Z, r24
		case TWI_MRX_ADR_ACK:       // SLA+R has been tramsmitted and ACK received
		if (TWI_bufPtr < (TWI_msgSize-1) )                  // Detect the last byte to NACK it.
   117de:	20 91 2f 03 	lds	r18, 0x032F
   117e2:	30 e0       	ldi	r19, 0x00	; 0
   117e4:	80 91 31 03 	lds	r24, 0x0331
   117e8:	90 e0       	ldi	r25, 0x00	; 0
   117ea:	01 97       	sbiw	r24, 0x01	; 1
   117ec:	28 17       	cp	r18, r24
   117ee:	39 07       	cpc	r19, r25
   117f0:	24 f4       	brge	.+8      	; 0x117fa <__vector_39+0xa8>
		{
			TWCR = (1<<TWEN)|                                 // TWI Interface enabled
   117f2:	85 ec       	ldi	r24, 0xC5	; 197
   117f4:	80 93 bc 00 	sts	0x00BC, r24
   117f8:	20 c0       	rjmp	.+64     	; 0x1183a <__vector_39+0xe8>
			(1<<TWIE)|(1<<TWINT)|                      // Enable TWI Interupt and clear the flag to read next byte
			(1<<TWEA)|(0<<TWSTA)|(0<<TWSTO)|           // Send ACK after reception
			(0<<TWWC);                                 //
		}else                    // Send NACK after next reception
		{
			TWCR = (1<<TWEN)|                                 // TWI Interface enabled
   117fa:	85 e8       	ldi	r24, 0x85	; 133
   117fc:	80 93 bc 00 	sts	0x00BC, r24
   11800:	1c c0       	rjmp	.+56     	; 0x1183a <__vector_39+0xe8>
			(0<<TWEA)|(0<<TWSTA)|(0<<TWSTO)|           // Send NACK after reception
			(0<<TWWC);                                 //
		}
		break;
		case TWI_MRX_DATA_NACK:     // Data byte has been received and NACK tramsmitted
		TWI_buf[TWI_bufPtr] = TWDR;
   11802:	80 91 bb 00 	lds	r24, 0x00BB
   11806:	e0 91 2f 03 	lds	r30, 0x032F
   1180a:	f0 e0       	ldi	r31, 0x00	; 0
   1180c:	ee 5c       	subi	r30, 0xCE	; 206
   1180e:	fc 4f       	sbci	r31, 0xFC	; 252
   11810:	80 83       	st	Z, r24
		TWI_statusReg.lastTransOK = TRUE;                 // Set status bits to completed successfully.
   11812:	80 91 30 03 	lds	r24, 0x0330
   11816:	81 60       	ori	r24, 0x01	; 1
   11818:	80 93 30 03 	sts	0x0330, r24
		TWCR = (1<<TWEN)|                                 // TWI Interface enabled
   1181c:	84 e9       	ldi	r24, 0x94	; 148
   1181e:	80 93 bc 00 	sts	0x00BC, r24
		(0<<TWIE)|(1<<TWINT)|                      // Disable TWI Interrupt and clear the flag
		(0<<TWEA)|(0<<TWSTA)|(1<<TWSTO)|           // Initiate a STOP condition.
		(0<<TWWC);                                 //
		break;
   11822:	0b c0       	rjmp	.+22     	; 0x1183a <__vector_39+0xe8>
		case TWI_ARB_LOST:          // Arbitration lost
		TWCR = (1<<TWEN)|                                 // TWI Interface enabled
   11824:	85 ea       	ldi	r24, 0xA5	; 165
   11826:	80 93 bc 00 	sts	0x00BC, r24
		(1<<TWIE)|(1<<TWINT)|                      // Enable TWI Interupt and clear the flag
		(0<<TWEA)|(1<<TWSTA)|(0<<TWSTO)|           // Initiate a (RE)START condition.
		(0<<TWWC);                                 //
		break;
   1182a:	07 c0       	rjmp	.+14     	; 0x1183a <__vector_39+0xe8>
		case TWI_MRX_ADR_NACK:      // SLA+R has been tramsmitted and NACK received
		case TWI_MTX_DATA_NACK:     // Data byte has been tramsmitted and NACK received
		//    case TWI_NO_STATE              // No relevant state information available; TWINT = ?0?
		case TWI_BUS_ERROR:         // Bus error due to an illegal START or STOP condition
		default:
		TWI_state = TWSR;                                 // Store TWSR and automatically sets clears noErrors bit.
   1182c:	80 91 b9 00 	lds	r24, 0x00B9
   11830:	80 93 0e 02 	sts	0x020E, r24
		// Reset TWI Interface
		TWCR = (1<<TWEN)|                                 // Enable TWI-interface and release TWI pins
   11834:	84 e0       	ldi	r24, 0x04	; 4
   11836:	80 93 bc 00 	sts	0x00BC, r24
		(0<<TWIE)|(0<<TWINT)|                      // Disable Interupt
		(0<<TWEA)|(0<<TWSTA)|(0<<TWSTO)|           // No Signal requests
		(0<<TWWC);                                 //
	}
   1183a:	ff 91       	pop	r31
   1183c:	ef 91       	pop	r30
   1183e:	bf 91       	pop	r27
   11840:	af 91       	pop	r26
   11842:	9f 91       	pop	r25
   11844:	8f 91       	pop	r24
   11846:	3f 91       	pop	r19
   11848:	2f 91       	pop	r18
   1184a:	0f 90       	pop	r0
   1184c:	0b be       	out	0x3b, r0	; 59
   1184e:	0f 90       	pop	r0
   11850:	0f be       	out	0x3f, r0	; 63
   11852:	0f 90       	pop	r0
   11854:	1f 90       	pop	r1
   11856:	18 95       	reti

00011858 <__subsf3>:
   11858:	50 58       	subi	r21, 0x80	; 128

0001185a <__addsf3>:
   1185a:	bb 27       	eor	r27, r27
   1185c:	aa 27       	eor	r26, r26
   1185e:	0e d0       	rcall	.+28     	; 0x1187c <__addsf3x>
   11860:	4d c1       	rjmp	.+666    	; 0x11afc <__fp_round>
   11862:	3e d1       	rcall	.+636    	; 0x11ae0 <__fp_pscA>
   11864:	30 f0       	brcs	.+12     	; 0x11872 <__addsf3+0x18>
   11866:	43 d1       	rcall	.+646    	; 0x11aee <__fp_pscB>
   11868:	20 f0       	brcs	.+8      	; 0x11872 <__addsf3+0x18>
   1186a:	31 f4       	brne	.+12     	; 0x11878 <__addsf3+0x1e>
   1186c:	9f 3f       	cpi	r25, 0xFF	; 255
   1186e:	11 f4       	brne	.+4      	; 0x11874 <__addsf3+0x1a>
   11870:	1e f4       	brtc	.+6      	; 0x11878 <__addsf3+0x1e>
   11872:	33 c1       	rjmp	.+614    	; 0x11ada <__fp_nan>
   11874:	0e f4       	brtc	.+2      	; 0x11878 <__addsf3+0x1e>
   11876:	e0 95       	com	r30
   11878:	e7 fb       	bst	r30, 7
   1187a:	29 c1       	rjmp	.+594    	; 0x11ace <__fp_inf>

0001187c <__addsf3x>:
   1187c:	e9 2f       	mov	r30, r25
   1187e:	4f d1       	rcall	.+670    	; 0x11b1e <__fp_split3>
   11880:	80 f3       	brcs	.-32     	; 0x11862 <__addsf3+0x8>
   11882:	ba 17       	cp	r27, r26
   11884:	62 07       	cpc	r22, r18
   11886:	73 07       	cpc	r23, r19
   11888:	84 07       	cpc	r24, r20
   1188a:	95 07       	cpc	r25, r21
   1188c:	18 f0       	brcs	.+6      	; 0x11894 <__addsf3x+0x18>
   1188e:	71 f4       	brne	.+28     	; 0x118ac <__addsf3x+0x30>
   11890:	9e f5       	brtc	.+102    	; 0x118f8 <__addsf3x+0x7c>
   11892:	67 c1       	rjmp	.+718    	; 0x11b62 <__fp_zero>
   11894:	0e f4       	brtc	.+2      	; 0x11898 <__addsf3x+0x1c>
   11896:	e0 95       	com	r30
   11898:	0b 2e       	mov	r0, r27
   1189a:	ba 2f       	mov	r27, r26
   1189c:	a0 2d       	mov	r26, r0
   1189e:	0b 01       	movw	r0, r22
   118a0:	b9 01       	movw	r22, r18
   118a2:	90 01       	movw	r18, r0
   118a4:	0c 01       	movw	r0, r24
   118a6:	ca 01       	movw	r24, r20
   118a8:	a0 01       	movw	r20, r0
   118aa:	11 24       	eor	r1, r1
   118ac:	ff 27       	eor	r31, r31
   118ae:	59 1b       	sub	r21, r25
   118b0:	99 f0       	breq	.+38     	; 0x118d8 <__addsf3x+0x5c>
   118b2:	59 3f       	cpi	r21, 0xF9	; 249
   118b4:	50 f4       	brcc	.+20     	; 0x118ca <__addsf3x+0x4e>
   118b6:	50 3e       	cpi	r21, 0xE0	; 224
   118b8:	68 f1       	brcs	.+90     	; 0x11914 <__addsf3x+0x98>
   118ba:	1a 16       	cp	r1, r26
   118bc:	f0 40       	sbci	r31, 0x00	; 0
   118be:	a2 2f       	mov	r26, r18
   118c0:	23 2f       	mov	r18, r19
   118c2:	34 2f       	mov	r19, r20
   118c4:	44 27       	eor	r20, r20
   118c6:	58 5f       	subi	r21, 0xF8	; 248
   118c8:	f3 cf       	rjmp	.-26     	; 0x118b0 <__addsf3x+0x34>
   118ca:	46 95       	lsr	r20
   118cc:	37 95       	ror	r19
   118ce:	27 95       	ror	r18
   118d0:	a7 95       	ror	r26
   118d2:	f0 40       	sbci	r31, 0x00	; 0
   118d4:	53 95       	inc	r21
   118d6:	c9 f7       	brne	.-14     	; 0x118ca <__addsf3x+0x4e>
   118d8:	7e f4       	brtc	.+30     	; 0x118f8 <__addsf3x+0x7c>
   118da:	1f 16       	cp	r1, r31
   118dc:	ba 0b       	sbc	r27, r26
   118de:	62 0b       	sbc	r22, r18
   118e0:	73 0b       	sbc	r23, r19
   118e2:	84 0b       	sbc	r24, r20
   118e4:	ba f0       	brmi	.+46     	; 0x11914 <__addsf3x+0x98>
   118e6:	91 50       	subi	r25, 0x01	; 1
   118e8:	a1 f0       	breq	.+40     	; 0x11912 <__addsf3x+0x96>
   118ea:	ff 0f       	add	r31, r31
   118ec:	bb 1f       	adc	r27, r27
   118ee:	66 1f       	adc	r22, r22
   118f0:	77 1f       	adc	r23, r23
   118f2:	88 1f       	adc	r24, r24
   118f4:	c2 f7       	brpl	.-16     	; 0x118e6 <__addsf3x+0x6a>
   118f6:	0e c0       	rjmp	.+28     	; 0x11914 <__addsf3x+0x98>
   118f8:	ba 0f       	add	r27, r26
   118fa:	62 1f       	adc	r22, r18
   118fc:	73 1f       	adc	r23, r19
   118fe:	84 1f       	adc	r24, r20
   11900:	48 f4       	brcc	.+18     	; 0x11914 <__addsf3x+0x98>
   11902:	87 95       	ror	r24
   11904:	77 95       	ror	r23
   11906:	67 95       	ror	r22
   11908:	b7 95       	ror	r27
   1190a:	f7 95       	ror	r31
   1190c:	9e 3f       	cpi	r25, 0xFE	; 254
   1190e:	08 f0       	brcs	.+2      	; 0x11912 <__addsf3x+0x96>
   11910:	b3 cf       	rjmp	.-154    	; 0x11878 <__addsf3+0x1e>
   11912:	93 95       	inc	r25
   11914:	88 0f       	add	r24, r24
   11916:	08 f0       	brcs	.+2      	; 0x1191a <__addsf3x+0x9e>
   11918:	99 27       	eor	r25, r25
   1191a:	ee 0f       	add	r30, r30
   1191c:	97 95       	ror	r25
   1191e:	87 95       	ror	r24
   11920:	08 95       	ret

00011922 <__divsf3>:
   11922:	0c d0       	rcall	.+24     	; 0x1193c <__divsf3x>
   11924:	eb c0       	rjmp	.+470    	; 0x11afc <__fp_round>
   11926:	e3 d0       	rcall	.+454    	; 0x11aee <__fp_pscB>
   11928:	40 f0       	brcs	.+16     	; 0x1193a <__divsf3+0x18>
   1192a:	da d0       	rcall	.+436    	; 0x11ae0 <__fp_pscA>
   1192c:	30 f0       	brcs	.+12     	; 0x1193a <__divsf3+0x18>
   1192e:	21 f4       	brne	.+8      	; 0x11938 <__divsf3+0x16>
   11930:	5f 3f       	cpi	r21, 0xFF	; 255
   11932:	19 f0       	breq	.+6      	; 0x1193a <__divsf3+0x18>
   11934:	cc c0       	rjmp	.+408    	; 0x11ace <__fp_inf>
   11936:	51 11       	cpse	r21, r1
   11938:	15 c1       	rjmp	.+554    	; 0x11b64 <__fp_szero>
   1193a:	cf c0       	rjmp	.+414    	; 0x11ada <__fp_nan>

0001193c <__divsf3x>:
   1193c:	f0 d0       	rcall	.+480    	; 0x11b1e <__fp_split3>
   1193e:	98 f3       	brcs	.-26     	; 0x11926 <__divsf3+0x4>

00011940 <__divsf3_pse>:
   11940:	99 23       	and	r25, r25
   11942:	c9 f3       	breq	.-14     	; 0x11936 <__divsf3+0x14>
   11944:	55 23       	and	r21, r21
   11946:	b1 f3       	breq	.-20     	; 0x11934 <__divsf3+0x12>
   11948:	95 1b       	sub	r25, r21
   1194a:	55 0b       	sbc	r21, r21
   1194c:	bb 27       	eor	r27, r27
   1194e:	aa 27       	eor	r26, r26
   11950:	62 17       	cp	r22, r18
   11952:	73 07       	cpc	r23, r19
   11954:	84 07       	cpc	r24, r20
   11956:	38 f0       	brcs	.+14     	; 0x11966 <__divsf3_pse+0x26>
   11958:	9f 5f       	subi	r25, 0xFF	; 255
   1195a:	5f 4f       	sbci	r21, 0xFF	; 255
   1195c:	22 0f       	add	r18, r18
   1195e:	33 1f       	adc	r19, r19
   11960:	44 1f       	adc	r20, r20
   11962:	aa 1f       	adc	r26, r26
   11964:	a9 f3       	breq	.-22     	; 0x11950 <__divsf3_pse+0x10>
   11966:	33 d0       	rcall	.+102    	; 0x119ce <__divsf3_pse+0x8e>
   11968:	0e 2e       	mov	r0, r30
   1196a:	3a f0       	brmi	.+14     	; 0x1197a <__divsf3_pse+0x3a>
   1196c:	e0 e8       	ldi	r30, 0x80	; 128
   1196e:	30 d0       	rcall	.+96     	; 0x119d0 <__divsf3_pse+0x90>
   11970:	91 50       	subi	r25, 0x01	; 1
   11972:	50 40       	sbci	r21, 0x00	; 0
   11974:	e6 95       	lsr	r30
   11976:	00 1c       	adc	r0, r0
   11978:	ca f7       	brpl	.-14     	; 0x1196c <__divsf3_pse+0x2c>
   1197a:	29 d0       	rcall	.+82     	; 0x119ce <__divsf3_pse+0x8e>
   1197c:	fe 2f       	mov	r31, r30
   1197e:	27 d0       	rcall	.+78     	; 0x119ce <__divsf3_pse+0x8e>
   11980:	66 0f       	add	r22, r22
   11982:	77 1f       	adc	r23, r23
   11984:	88 1f       	adc	r24, r24
   11986:	bb 1f       	adc	r27, r27
   11988:	26 17       	cp	r18, r22
   1198a:	37 07       	cpc	r19, r23
   1198c:	48 07       	cpc	r20, r24
   1198e:	ab 07       	cpc	r26, r27
   11990:	b0 e8       	ldi	r27, 0x80	; 128
   11992:	09 f0       	breq	.+2      	; 0x11996 <__divsf3_pse+0x56>
   11994:	bb 0b       	sbc	r27, r27
   11996:	80 2d       	mov	r24, r0
   11998:	bf 01       	movw	r22, r30
   1199a:	ff 27       	eor	r31, r31
   1199c:	93 58       	subi	r25, 0x83	; 131
   1199e:	5f 4f       	sbci	r21, 0xFF	; 255
   119a0:	2a f0       	brmi	.+10     	; 0x119ac <__divsf3_pse+0x6c>
   119a2:	9e 3f       	cpi	r25, 0xFE	; 254
   119a4:	51 05       	cpc	r21, r1
   119a6:	68 f0       	brcs	.+26     	; 0x119c2 <__divsf3_pse+0x82>
   119a8:	92 c0       	rjmp	.+292    	; 0x11ace <__fp_inf>
   119aa:	dc c0       	rjmp	.+440    	; 0x11b64 <__fp_szero>
   119ac:	5f 3f       	cpi	r21, 0xFF	; 255
   119ae:	ec f3       	brlt	.-6      	; 0x119aa <__divsf3_pse+0x6a>
   119b0:	98 3e       	cpi	r25, 0xE8	; 232
   119b2:	dc f3       	brlt	.-10     	; 0x119aa <__divsf3_pse+0x6a>
   119b4:	86 95       	lsr	r24
   119b6:	77 95       	ror	r23
   119b8:	67 95       	ror	r22
   119ba:	b7 95       	ror	r27
   119bc:	f7 95       	ror	r31
   119be:	9f 5f       	subi	r25, 0xFF	; 255
   119c0:	c9 f7       	brne	.-14     	; 0x119b4 <__divsf3_pse+0x74>
   119c2:	88 0f       	add	r24, r24
   119c4:	91 1d       	adc	r25, r1
   119c6:	96 95       	lsr	r25
   119c8:	87 95       	ror	r24
   119ca:	97 f9       	bld	r25, 7
   119cc:	08 95       	ret
   119ce:	e1 e0       	ldi	r30, 0x01	; 1
   119d0:	66 0f       	add	r22, r22
   119d2:	77 1f       	adc	r23, r23
   119d4:	88 1f       	adc	r24, r24
   119d6:	bb 1f       	adc	r27, r27
   119d8:	62 17       	cp	r22, r18
   119da:	73 07       	cpc	r23, r19
   119dc:	84 07       	cpc	r24, r20
   119de:	ba 07       	cpc	r27, r26
   119e0:	20 f0       	brcs	.+8      	; 0x119ea <__divsf3_pse+0xaa>
   119e2:	62 1b       	sub	r22, r18
   119e4:	73 0b       	sbc	r23, r19
   119e6:	84 0b       	sbc	r24, r20
   119e8:	ba 0b       	sbc	r27, r26
   119ea:	ee 1f       	adc	r30, r30
   119ec:	88 f7       	brcc	.-30     	; 0x119d0 <__divsf3_pse+0x90>
   119ee:	e0 95       	com	r30
   119f0:	08 95       	ret

000119f2 <__fixsfsi>:
   119f2:	04 d0       	rcall	.+8      	; 0x119fc <__fixunssfsi>
   119f4:	68 94       	set
   119f6:	b1 11       	cpse	r27, r1
   119f8:	b5 c0       	rjmp	.+362    	; 0x11b64 <__fp_szero>
   119fa:	08 95       	ret

000119fc <__fixunssfsi>:
   119fc:	98 d0       	rcall	.+304    	; 0x11b2e <__fp_splitA>
   119fe:	88 f0       	brcs	.+34     	; 0x11a22 <__fixunssfsi+0x26>
   11a00:	9f 57       	subi	r25, 0x7F	; 127
   11a02:	90 f0       	brcs	.+36     	; 0x11a28 <__fixunssfsi+0x2c>
   11a04:	b9 2f       	mov	r27, r25
   11a06:	99 27       	eor	r25, r25
   11a08:	b7 51       	subi	r27, 0x17	; 23
   11a0a:	a0 f0       	brcs	.+40     	; 0x11a34 <__fixunssfsi+0x38>
   11a0c:	d1 f0       	breq	.+52     	; 0x11a42 <__fixunssfsi+0x46>
   11a0e:	66 0f       	add	r22, r22
   11a10:	77 1f       	adc	r23, r23
   11a12:	88 1f       	adc	r24, r24
   11a14:	99 1f       	adc	r25, r25
   11a16:	1a f0       	brmi	.+6      	; 0x11a1e <__fixunssfsi+0x22>
   11a18:	ba 95       	dec	r27
   11a1a:	c9 f7       	brne	.-14     	; 0x11a0e <__fixunssfsi+0x12>
   11a1c:	12 c0       	rjmp	.+36     	; 0x11a42 <__fixunssfsi+0x46>
   11a1e:	b1 30       	cpi	r27, 0x01	; 1
   11a20:	81 f0       	breq	.+32     	; 0x11a42 <__fixunssfsi+0x46>
   11a22:	9f d0       	rcall	.+318    	; 0x11b62 <__fp_zero>
   11a24:	b1 e0       	ldi	r27, 0x01	; 1
   11a26:	08 95       	ret
   11a28:	9c c0       	rjmp	.+312    	; 0x11b62 <__fp_zero>
   11a2a:	67 2f       	mov	r22, r23
   11a2c:	78 2f       	mov	r23, r24
   11a2e:	88 27       	eor	r24, r24
   11a30:	b8 5f       	subi	r27, 0xF8	; 248
   11a32:	39 f0       	breq	.+14     	; 0x11a42 <__fixunssfsi+0x46>
   11a34:	b9 3f       	cpi	r27, 0xF9	; 249
   11a36:	cc f3       	brlt	.-14     	; 0x11a2a <__fixunssfsi+0x2e>
   11a38:	86 95       	lsr	r24
   11a3a:	77 95       	ror	r23
   11a3c:	67 95       	ror	r22
   11a3e:	b3 95       	inc	r27
   11a40:	d9 f7       	brne	.-10     	; 0x11a38 <__fixunssfsi+0x3c>
   11a42:	3e f4       	brtc	.+14     	; 0x11a52 <__fixunssfsi+0x56>
   11a44:	90 95       	com	r25
   11a46:	80 95       	com	r24
   11a48:	70 95       	com	r23
   11a4a:	61 95       	neg	r22
   11a4c:	7f 4f       	sbci	r23, 0xFF	; 255
   11a4e:	8f 4f       	sbci	r24, 0xFF	; 255
   11a50:	9f 4f       	sbci	r25, 0xFF	; 255
   11a52:	08 95       	ret

00011a54 <__floatunsisf>:
   11a54:	e8 94       	clt
   11a56:	09 c0       	rjmp	.+18     	; 0x11a6a <__floatsisf+0x12>

00011a58 <__floatsisf>:
   11a58:	97 fb       	bst	r25, 7
   11a5a:	3e f4       	brtc	.+14     	; 0x11a6a <__floatsisf+0x12>
   11a5c:	90 95       	com	r25
   11a5e:	80 95       	com	r24
   11a60:	70 95       	com	r23
   11a62:	61 95       	neg	r22
   11a64:	7f 4f       	sbci	r23, 0xFF	; 255
   11a66:	8f 4f       	sbci	r24, 0xFF	; 255
   11a68:	9f 4f       	sbci	r25, 0xFF	; 255
   11a6a:	99 23       	and	r25, r25
   11a6c:	a9 f0       	breq	.+42     	; 0x11a98 <__floatsisf+0x40>
   11a6e:	f9 2f       	mov	r31, r25
   11a70:	96 e9       	ldi	r25, 0x96	; 150
   11a72:	bb 27       	eor	r27, r27
   11a74:	93 95       	inc	r25
   11a76:	f6 95       	lsr	r31
   11a78:	87 95       	ror	r24
   11a7a:	77 95       	ror	r23
   11a7c:	67 95       	ror	r22
   11a7e:	b7 95       	ror	r27
   11a80:	f1 11       	cpse	r31, r1
   11a82:	f8 cf       	rjmp	.-16     	; 0x11a74 <__floatsisf+0x1c>
   11a84:	fa f4       	brpl	.+62     	; 0x11ac4 <__floatsisf+0x6c>
   11a86:	bb 0f       	add	r27, r27
   11a88:	11 f4       	brne	.+4      	; 0x11a8e <__floatsisf+0x36>
   11a8a:	60 ff       	sbrs	r22, 0
   11a8c:	1b c0       	rjmp	.+54     	; 0x11ac4 <__floatsisf+0x6c>
   11a8e:	6f 5f       	subi	r22, 0xFF	; 255
   11a90:	7f 4f       	sbci	r23, 0xFF	; 255
   11a92:	8f 4f       	sbci	r24, 0xFF	; 255
   11a94:	9f 4f       	sbci	r25, 0xFF	; 255
   11a96:	16 c0       	rjmp	.+44     	; 0x11ac4 <__floatsisf+0x6c>
   11a98:	88 23       	and	r24, r24
   11a9a:	11 f0       	breq	.+4      	; 0x11aa0 <__floatsisf+0x48>
   11a9c:	96 e9       	ldi	r25, 0x96	; 150
   11a9e:	11 c0       	rjmp	.+34     	; 0x11ac2 <__floatsisf+0x6a>
   11aa0:	77 23       	and	r23, r23
   11aa2:	21 f0       	breq	.+8      	; 0x11aac <__floatsisf+0x54>
   11aa4:	9e e8       	ldi	r25, 0x8E	; 142
   11aa6:	87 2f       	mov	r24, r23
   11aa8:	76 2f       	mov	r23, r22
   11aaa:	05 c0       	rjmp	.+10     	; 0x11ab6 <__floatsisf+0x5e>
   11aac:	66 23       	and	r22, r22
   11aae:	71 f0       	breq	.+28     	; 0x11acc <__floatsisf+0x74>
   11ab0:	96 e8       	ldi	r25, 0x86	; 134
   11ab2:	86 2f       	mov	r24, r22
   11ab4:	70 e0       	ldi	r23, 0x00	; 0
   11ab6:	60 e0       	ldi	r22, 0x00	; 0
   11ab8:	2a f0       	brmi	.+10     	; 0x11ac4 <__floatsisf+0x6c>
   11aba:	9a 95       	dec	r25
   11abc:	66 0f       	add	r22, r22
   11abe:	77 1f       	adc	r23, r23
   11ac0:	88 1f       	adc	r24, r24
   11ac2:	da f7       	brpl	.-10     	; 0x11aba <__floatsisf+0x62>
   11ac4:	88 0f       	add	r24, r24
   11ac6:	96 95       	lsr	r25
   11ac8:	87 95       	ror	r24
   11aca:	97 f9       	bld	r25, 7
   11acc:	08 95       	ret

00011ace <__fp_inf>:
   11ace:	97 f9       	bld	r25, 7
   11ad0:	9f 67       	ori	r25, 0x7F	; 127
   11ad2:	80 e8       	ldi	r24, 0x80	; 128
   11ad4:	70 e0       	ldi	r23, 0x00	; 0
   11ad6:	60 e0       	ldi	r22, 0x00	; 0
   11ad8:	08 95       	ret

00011ada <__fp_nan>:
   11ada:	9f ef       	ldi	r25, 0xFF	; 255
   11adc:	80 ec       	ldi	r24, 0xC0	; 192
   11ade:	08 95       	ret

00011ae0 <__fp_pscA>:
   11ae0:	00 24       	eor	r0, r0
   11ae2:	0a 94       	dec	r0
   11ae4:	16 16       	cp	r1, r22
   11ae6:	17 06       	cpc	r1, r23
   11ae8:	18 06       	cpc	r1, r24
   11aea:	09 06       	cpc	r0, r25
   11aec:	08 95       	ret

00011aee <__fp_pscB>:
   11aee:	00 24       	eor	r0, r0
   11af0:	0a 94       	dec	r0
   11af2:	12 16       	cp	r1, r18
   11af4:	13 06       	cpc	r1, r19
   11af6:	14 06       	cpc	r1, r20
   11af8:	05 06       	cpc	r0, r21
   11afa:	08 95       	ret

00011afc <__fp_round>:
   11afc:	09 2e       	mov	r0, r25
   11afe:	03 94       	inc	r0
   11b00:	00 0c       	add	r0, r0
   11b02:	11 f4       	brne	.+4      	; 0x11b08 <__fp_round+0xc>
   11b04:	88 23       	and	r24, r24
   11b06:	52 f0       	brmi	.+20     	; 0x11b1c <__fp_round+0x20>
   11b08:	bb 0f       	add	r27, r27
   11b0a:	40 f4       	brcc	.+16     	; 0x11b1c <__fp_round+0x20>
   11b0c:	bf 2b       	or	r27, r31
   11b0e:	11 f4       	brne	.+4      	; 0x11b14 <__fp_round+0x18>
   11b10:	60 ff       	sbrs	r22, 0
   11b12:	04 c0       	rjmp	.+8      	; 0x11b1c <__fp_round+0x20>
   11b14:	6f 5f       	subi	r22, 0xFF	; 255
   11b16:	7f 4f       	sbci	r23, 0xFF	; 255
   11b18:	8f 4f       	sbci	r24, 0xFF	; 255
   11b1a:	9f 4f       	sbci	r25, 0xFF	; 255
   11b1c:	08 95       	ret

00011b1e <__fp_split3>:
   11b1e:	57 fd       	sbrc	r21, 7
   11b20:	90 58       	subi	r25, 0x80	; 128
   11b22:	44 0f       	add	r20, r20
   11b24:	55 1f       	adc	r21, r21
   11b26:	59 f0       	breq	.+22     	; 0x11b3e <__fp_splitA+0x10>
   11b28:	5f 3f       	cpi	r21, 0xFF	; 255
   11b2a:	71 f0       	breq	.+28     	; 0x11b48 <__fp_splitA+0x1a>
   11b2c:	47 95       	ror	r20

00011b2e <__fp_splitA>:
   11b2e:	88 0f       	add	r24, r24
   11b30:	97 fb       	bst	r25, 7
   11b32:	99 1f       	adc	r25, r25
   11b34:	61 f0       	breq	.+24     	; 0x11b4e <__fp_splitA+0x20>
   11b36:	9f 3f       	cpi	r25, 0xFF	; 255
   11b38:	79 f0       	breq	.+30     	; 0x11b58 <__fp_splitA+0x2a>
   11b3a:	87 95       	ror	r24
   11b3c:	08 95       	ret
   11b3e:	12 16       	cp	r1, r18
   11b40:	13 06       	cpc	r1, r19
   11b42:	14 06       	cpc	r1, r20
   11b44:	55 1f       	adc	r21, r21
   11b46:	f2 cf       	rjmp	.-28     	; 0x11b2c <__fp_split3+0xe>
   11b48:	46 95       	lsr	r20
   11b4a:	f1 df       	rcall	.-30     	; 0x11b2e <__fp_splitA>
   11b4c:	08 c0       	rjmp	.+16     	; 0x11b5e <__fp_splitA+0x30>
   11b4e:	16 16       	cp	r1, r22
   11b50:	17 06       	cpc	r1, r23
   11b52:	18 06       	cpc	r1, r24
   11b54:	99 1f       	adc	r25, r25
   11b56:	f1 cf       	rjmp	.-30     	; 0x11b3a <__fp_splitA+0xc>
   11b58:	86 95       	lsr	r24
   11b5a:	71 05       	cpc	r23, r1
   11b5c:	61 05       	cpc	r22, r1
   11b5e:	08 94       	sec
   11b60:	08 95       	ret

00011b62 <__fp_zero>:
   11b62:	e8 94       	clt

00011b64 <__fp_szero>:
   11b64:	bb 27       	eor	r27, r27
   11b66:	66 27       	eor	r22, r22
   11b68:	77 27       	eor	r23, r23
   11b6a:	cb 01       	movw	r24, r22
   11b6c:	97 f9       	bld	r25, 7
   11b6e:	08 95       	ret

00011b70 <__mulsf3>:
   11b70:	0b d0       	rcall	.+22     	; 0x11b88 <__mulsf3x>
   11b72:	c4 cf       	rjmp	.-120    	; 0x11afc <__fp_round>
   11b74:	b5 df       	rcall	.-150    	; 0x11ae0 <__fp_pscA>
   11b76:	28 f0       	brcs	.+10     	; 0x11b82 <__mulsf3+0x12>
   11b78:	ba df       	rcall	.-140    	; 0x11aee <__fp_pscB>
   11b7a:	18 f0       	brcs	.+6      	; 0x11b82 <__mulsf3+0x12>
   11b7c:	95 23       	and	r25, r21
   11b7e:	09 f0       	breq	.+2      	; 0x11b82 <__mulsf3+0x12>
   11b80:	a6 cf       	rjmp	.-180    	; 0x11ace <__fp_inf>
   11b82:	ab cf       	rjmp	.-170    	; 0x11ada <__fp_nan>
   11b84:	11 24       	eor	r1, r1
   11b86:	ee cf       	rjmp	.-36     	; 0x11b64 <__fp_szero>

00011b88 <__mulsf3x>:
   11b88:	ca df       	rcall	.-108    	; 0x11b1e <__fp_split3>
   11b8a:	a0 f3       	brcs	.-24     	; 0x11b74 <__mulsf3+0x4>

00011b8c <__mulsf3_pse>:
   11b8c:	95 9f       	mul	r25, r21
   11b8e:	d1 f3       	breq	.-12     	; 0x11b84 <__mulsf3+0x14>
   11b90:	95 0f       	add	r25, r21
   11b92:	50 e0       	ldi	r21, 0x00	; 0
   11b94:	55 1f       	adc	r21, r21
   11b96:	62 9f       	mul	r22, r18
   11b98:	f0 01       	movw	r30, r0
   11b9a:	72 9f       	mul	r23, r18
   11b9c:	bb 27       	eor	r27, r27
   11b9e:	f0 0d       	add	r31, r0
   11ba0:	b1 1d       	adc	r27, r1
   11ba2:	63 9f       	mul	r22, r19
   11ba4:	aa 27       	eor	r26, r26
   11ba6:	f0 0d       	add	r31, r0
   11ba8:	b1 1d       	adc	r27, r1
   11baa:	aa 1f       	adc	r26, r26
   11bac:	64 9f       	mul	r22, r20
   11bae:	66 27       	eor	r22, r22
   11bb0:	b0 0d       	add	r27, r0
   11bb2:	a1 1d       	adc	r26, r1
   11bb4:	66 1f       	adc	r22, r22
   11bb6:	82 9f       	mul	r24, r18
   11bb8:	22 27       	eor	r18, r18
   11bba:	b0 0d       	add	r27, r0
   11bbc:	a1 1d       	adc	r26, r1
   11bbe:	62 1f       	adc	r22, r18
   11bc0:	73 9f       	mul	r23, r19
   11bc2:	b0 0d       	add	r27, r0
   11bc4:	a1 1d       	adc	r26, r1
   11bc6:	62 1f       	adc	r22, r18
   11bc8:	83 9f       	mul	r24, r19
   11bca:	a0 0d       	add	r26, r0
   11bcc:	61 1d       	adc	r22, r1
   11bce:	22 1f       	adc	r18, r18
   11bd0:	74 9f       	mul	r23, r20
   11bd2:	33 27       	eor	r19, r19
   11bd4:	a0 0d       	add	r26, r0
   11bd6:	61 1d       	adc	r22, r1
   11bd8:	23 1f       	adc	r18, r19
   11bda:	84 9f       	mul	r24, r20
   11bdc:	60 0d       	add	r22, r0
   11bde:	21 1d       	adc	r18, r1
   11be0:	82 2f       	mov	r24, r18
   11be2:	76 2f       	mov	r23, r22
   11be4:	6a 2f       	mov	r22, r26
   11be6:	11 24       	eor	r1, r1
   11be8:	9f 57       	subi	r25, 0x7F	; 127
   11bea:	50 40       	sbci	r21, 0x00	; 0
   11bec:	8a f0       	brmi	.+34     	; 0x11c10 <__mulsf3_pse+0x84>
   11bee:	e1 f0       	breq	.+56     	; 0x11c28 <__mulsf3_pse+0x9c>
   11bf0:	88 23       	and	r24, r24
   11bf2:	4a f0       	brmi	.+18     	; 0x11c06 <__mulsf3_pse+0x7a>
   11bf4:	ee 0f       	add	r30, r30
   11bf6:	ff 1f       	adc	r31, r31
   11bf8:	bb 1f       	adc	r27, r27
   11bfa:	66 1f       	adc	r22, r22
   11bfc:	77 1f       	adc	r23, r23
   11bfe:	88 1f       	adc	r24, r24
   11c00:	91 50       	subi	r25, 0x01	; 1
   11c02:	50 40       	sbci	r21, 0x00	; 0
   11c04:	a9 f7       	brne	.-22     	; 0x11bf0 <__mulsf3_pse+0x64>
   11c06:	9e 3f       	cpi	r25, 0xFE	; 254
   11c08:	51 05       	cpc	r21, r1
   11c0a:	70 f0       	brcs	.+28     	; 0x11c28 <__mulsf3_pse+0x9c>
   11c0c:	60 cf       	rjmp	.-320    	; 0x11ace <__fp_inf>
   11c0e:	aa cf       	rjmp	.-172    	; 0x11b64 <__fp_szero>
   11c10:	5f 3f       	cpi	r21, 0xFF	; 255
   11c12:	ec f3       	brlt	.-6      	; 0x11c0e <__mulsf3_pse+0x82>
   11c14:	98 3e       	cpi	r25, 0xE8	; 232
   11c16:	dc f3       	brlt	.-10     	; 0x11c0e <__mulsf3_pse+0x82>
   11c18:	86 95       	lsr	r24
   11c1a:	77 95       	ror	r23
   11c1c:	67 95       	ror	r22
   11c1e:	b7 95       	ror	r27
   11c20:	f7 95       	ror	r31
   11c22:	e7 95       	ror	r30
   11c24:	9f 5f       	subi	r25, 0xFF	; 255
   11c26:	c1 f7       	brne	.-16     	; 0x11c18 <__mulsf3_pse+0x8c>
   11c28:	fe 2b       	or	r31, r30
   11c2a:	88 0f       	add	r24, r24
   11c2c:	91 1d       	adc	r25, r1
   11c2e:	96 95       	lsr	r25
   11c30:	87 95       	ror	r24
   11c32:	97 f9       	bld	r25, 7
   11c34:	08 95       	ret

00011c36 <vfprintf>:
   11c36:	2f 92       	push	r2
   11c38:	3f 92       	push	r3
   11c3a:	4f 92       	push	r4
   11c3c:	5f 92       	push	r5
   11c3e:	6f 92       	push	r6
   11c40:	7f 92       	push	r7
   11c42:	8f 92       	push	r8
   11c44:	9f 92       	push	r9
   11c46:	af 92       	push	r10
   11c48:	bf 92       	push	r11
   11c4a:	cf 92       	push	r12
   11c4c:	df 92       	push	r13
   11c4e:	ef 92       	push	r14
   11c50:	ff 92       	push	r15
   11c52:	0f 93       	push	r16
   11c54:	1f 93       	push	r17
   11c56:	cf 93       	push	r28
   11c58:	df 93       	push	r29
   11c5a:	cd b7       	in	r28, 0x3d	; 61
   11c5c:	de b7       	in	r29, 0x3e	; 62
   11c5e:	63 97       	sbiw	r28, 0x13	; 19
   11c60:	0f b6       	in	r0, 0x3f	; 63
   11c62:	f8 94       	cli
   11c64:	de bf       	out	0x3e, r29	; 62
   11c66:	0f be       	out	0x3f, r0	; 63
   11c68:	cd bf       	out	0x3d, r28	; 61
   11c6a:	7c 01       	movw	r14, r24
   11c6c:	1b 01       	movw	r2, r22
   11c6e:	6a 01       	movw	r12, r20
   11c70:	fc 01       	movw	r30, r24
   11c72:	17 82       	std	Z+7, r1	; 0x07
   11c74:	16 82       	std	Z+6, r1	; 0x06
   11c76:	83 81       	ldd	r24, Z+3	; 0x03
   11c78:	81 ff       	sbrs	r24, 1
   11c7a:	49 c3       	rjmp	.+1682   	; 0x1230e <vfprintf+0x6d8>
   11c7c:	be 01       	movw	r22, r28
   11c7e:	6f 5f       	subi	r22, 0xFF	; 255
   11c80:	7f 4f       	sbci	r23, 0xFF	; 255
   11c82:	4b 01       	movw	r8, r22
   11c84:	f7 01       	movw	r30, r14
   11c86:	93 81       	ldd	r25, Z+3	; 0x03
   11c88:	f1 01       	movw	r30, r2
   11c8a:	93 fd       	sbrc	r25, 3
   11c8c:	85 91       	lpm	r24, Z+
   11c8e:	93 ff       	sbrs	r25, 3
   11c90:	81 91       	ld	r24, Z+
   11c92:	1f 01       	movw	r2, r30
   11c94:	88 23       	and	r24, r24
   11c96:	09 f4       	brne	.+2      	; 0x11c9a <vfprintf+0x64>
   11c98:	36 c3       	rjmp	.+1644   	; 0x12306 <vfprintf+0x6d0>
   11c9a:	85 32       	cpi	r24, 0x25	; 37
   11c9c:	39 f4       	brne	.+14     	; 0x11cac <vfprintf+0x76>
   11c9e:	93 fd       	sbrc	r25, 3
   11ca0:	85 91       	lpm	r24, Z+
   11ca2:	93 ff       	sbrs	r25, 3
   11ca4:	81 91       	ld	r24, Z+
   11ca6:	1f 01       	movw	r2, r30
   11ca8:	85 32       	cpi	r24, 0x25	; 37
   11caa:	31 f4       	brne	.+12     	; 0x11cb8 <vfprintf+0x82>
   11cac:	b7 01       	movw	r22, r14
   11cae:	90 e0       	ldi	r25, 0x00	; 0
   11cb0:	73 d4       	rcall	.+2278   	; 0x12598 <fputc>
   11cb2:	56 01       	movw	r10, r12
   11cb4:	65 01       	movw	r12, r10
   11cb6:	e6 cf       	rjmp	.-52     	; 0x11c84 <vfprintf+0x4e>
   11cb8:	10 e0       	ldi	r17, 0x00	; 0
   11cba:	51 2c       	mov	r5, r1
   11cbc:	20 e0       	ldi	r18, 0x00	; 0
   11cbe:	20 32       	cpi	r18, 0x20	; 32
   11cc0:	a0 f4       	brcc	.+40     	; 0x11cea <vfprintf+0xb4>
   11cc2:	8b 32       	cpi	r24, 0x2B	; 43
   11cc4:	69 f0       	breq	.+26     	; 0x11ce0 <vfprintf+0xaa>
   11cc6:	30 f4       	brcc	.+12     	; 0x11cd4 <vfprintf+0x9e>
   11cc8:	80 32       	cpi	r24, 0x20	; 32
   11cca:	59 f0       	breq	.+22     	; 0x11ce2 <vfprintf+0xac>
   11ccc:	83 32       	cpi	r24, 0x23	; 35
   11cce:	69 f4       	brne	.+26     	; 0x11cea <vfprintf+0xb4>
   11cd0:	20 61       	ori	r18, 0x10	; 16
   11cd2:	2c c0       	rjmp	.+88     	; 0x11d2c <vfprintf+0xf6>
   11cd4:	8d 32       	cpi	r24, 0x2D	; 45
   11cd6:	39 f0       	breq	.+14     	; 0x11ce6 <vfprintf+0xb0>
   11cd8:	80 33       	cpi	r24, 0x30	; 48
   11cda:	39 f4       	brne	.+14     	; 0x11cea <vfprintf+0xb4>
   11cdc:	21 60       	ori	r18, 0x01	; 1
   11cde:	26 c0       	rjmp	.+76     	; 0x11d2c <vfprintf+0xf6>
   11ce0:	22 60       	ori	r18, 0x02	; 2
   11ce2:	24 60       	ori	r18, 0x04	; 4
   11ce4:	23 c0       	rjmp	.+70     	; 0x11d2c <vfprintf+0xf6>
   11ce6:	28 60       	ori	r18, 0x08	; 8
   11ce8:	21 c0       	rjmp	.+66     	; 0x11d2c <vfprintf+0xf6>
   11cea:	27 fd       	sbrc	r18, 7
   11cec:	27 c0       	rjmp	.+78     	; 0x11d3c <vfprintf+0x106>
   11cee:	30 ed       	ldi	r19, 0xD0	; 208
   11cf0:	38 0f       	add	r19, r24
   11cf2:	3a 30       	cpi	r19, 0x0A	; 10
   11cf4:	78 f4       	brcc	.+30     	; 0x11d14 <vfprintf+0xde>
   11cf6:	26 ff       	sbrs	r18, 6
   11cf8:	06 c0       	rjmp	.+12     	; 0x11d06 <vfprintf+0xd0>
   11cfa:	fa e0       	ldi	r31, 0x0A	; 10
   11cfc:	1f 9f       	mul	r17, r31
   11cfe:	30 0d       	add	r19, r0
   11d00:	11 24       	eor	r1, r1
   11d02:	13 2f       	mov	r17, r19
   11d04:	13 c0       	rjmp	.+38     	; 0x11d2c <vfprintf+0xf6>
   11d06:	6a e0       	ldi	r22, 0x0A	; 10
   11d08:	56 9e       	mul	r5, r22
   11d0a:	30 0d       	add	r19, r0
   11d0c:	11 24       	eor	r1, r1
   11d0e:	53 2e       	mov	r5, r19
   11d10:	20 62       	ori	r18, 0x20	; 32
   11d12:	0c c0       	rjmp	.+24     	; 0x11d2c <vfprintf+0xf6>
   11d14:	8e 32       	cpi	r24, 0x2E	; 46
   11d16:	21 f4       	brne	.+8      	; 0x11d20 <vfprintf+0xea>
   11d18:	26 fd       	sbrc	r18, 6
   11d1a:	f5 c2       	rjmp	.+1514   	; 0x12306 <vfprintf+0x6d0>
   11d1c:	20 64       	ori	r18, 0x40	; 64
   11d1e:	06 c0       	rjmp	.+12     	; 0x11d2c <vfprintf+0xf6>
   11d20:	8c 36       	cpi	r24, 0x6C	; 108
   11d22:	11 f4       	brne	.+4      	; 0x11d28 <vfprintf+0xf2>
   11d24:	20 68       	ori	r18, 0x80	; 128
   11d26:	02 c0       	rjmp	.+4      	; 0x11d2c <vfprintf+0xf6>
   11d28:	88 36       	cpi	r24, 0x68	; 104
   11d2a:	41 f4       	brne	.+16     	; 0x11d3c <vfprintf+0x106>
   11d2c:	f1 01       	movw	r30, r2
   11d2e:	93 fd       	sbrc	r25, 3
   11d30:	85 91       	lpm	r24, Z+
   11d32:	93 ff       	sbrs	r25, 3
   11d34:	81 91       	ld	r24, Z+
   11d36:	1f 01       	movw	r2, r30
   11d38:	81 11       	cpse	r24, r1
   11d3a:	c1 cf       	rjmp	.-126    	; 0x11cbe <vfprintf+0x88>
   11d3c:	9b eb       	ldi	r25, 0xBB	; 187
   11d3e:	98 0f       	add	r25, r24
   11d40:	93 30       	cpi	r25, 0x03	; 3
   11d42:	18 f4       	brcc	.+6      	; 0x11d4a <vfprintf+0x114>
   11d44:	20 61       	ori	r18, 0x10	; 16
   11d46:	80 5e       	subi	r24, 0xE0	; 224
   11d48:	06 c0       	rjmp	.+12     	; 0x11d56 <vfprintf+0x120>
   11d4a:	9b e9       	ldi	r25, 0x9B	; 155
   11d4c:	98 0f       	add	r25, r24
   11d4e:	93 30       	cpi	r25, 0x03	; 3
   11d50:	08 f0       	brcs	.+2      	; 0x11d54 <vfprintf+0x11e>
   11d52:	9a c1       	rjmp	.+820    	; 0x12088 <vfprintf+0x452>
   11d54:	2f 7e       	andi	r18, 0xEF	; 239
   11d56:	26 ff       	sbrs	r18, 6
   11d58:	16 e0       	ldi	r17, 0x06	; 6
   11d5a:	2f 73       	andi	r18, 0x3F	; 63
   11d5c:	72 2e       	mov	r7, r18
   11d5e:	85 36       	cpi	r24, 0x65	; 101
   11d60:	21 f4       	brne	.+8      	; 0x11d6a <vfprintf+0x134>
   11d62:	f2 2f       	mov	r31, r18
   11d64:	f0 64       	ori	r31, 0x40	; 64
   11d66:	7f 2e       	mov	r7, r31
   11d68:	08 c0       	rjmp	.+16     	; 0x11d7a <vfprintf+0x144>
   11d6a:	86 36       	cpi	r24, 0x66	; 102
   11d6c:	21 f4       	brne	.+8      	; 0x11d76 <vfprintf+0x140>
   11d6e:	62 2f       	mov	r22, r18
   11d70:	60 68       	ori	r22, 0x80	; 128
   11d72:	76 2e       	mov	r7, r22
   11d74:	02 c0       	rjmp	.+4      	; 0x11d7a <vfprintf+0x144>
   11d76:	11 11       	cpse	r17, r1
   11d78:	11 50       	subi	r17, 0x01	; 1
   11d7a:	77 fe       	sbrs	r7, 7
   11d7c:	07 c0       	rjmp	.+14     	; 0x11d8c <vfprintf+0x156>
   11d7e:	1c 33       	cpi	r17, 0x3C	; 60
   11d80:	48 f4       	brcc	.+18     	; 0x11d94 <vfprintf+0x15e>
   11d82:	44 24       	eor	r4, r4
   11d84:	43 94       	inc	r4
   11d86:	41 0e       	add	r4, r17
   11d88:	27 e0       	ldi	r18, 0x07	; 7
   11d8a:	0b c0       	rjmp	.+22     	; 0x11da2 <vfprintf+0x16c>
   11d8c:	18 30       	cpi	r17, 0x08	; 8
   11d8e:	30 f4       	brcc	.+12     	; 0x11d9c <vfprintf+0x166>
   11d90:	21 2f       	mov	r18, r17
   11d92:	06 c0       	rjmp	.+12     	; 0x11da0 <vfprintf+0x16a>
   11d94:	27 e0       	ldi	r18, 0x07	; 7
   11d96:	4c e3       	ldi	r20, 0x3C	; 60
   11d98:	44 2e       	mov	r4, r20
   11d9a:	03 c0       	rjmp	.+6      	; 0x11da2 <vfprintf+0x16c>
   11d9c:	27 e0       	ldi	r18, 0x07	; 7
   11d9e:	17 e0       	ldi	r17, 0x07	; 7
   11da0:	41 2c       	mov	r4, r1
   11da2:	56 01       	movw	r10, r12
   11da4:	74 e0       	ldi	r23, 0x04	; 4
   11da6:	a7 0e       	add	r10, r23
   11da8:	b1 1c       	adc	r11, r1
   11daa:	f6 01       	movw	r30, r12
   11dac:	60 81       	ld	r22, Z
   11dae:	71 81       	ldd	r23, Z+1	; 0x01
   11db0:	82 81       	ldd	r24, Z+2	; 0x02
   11db2:	93 81       	ldd	r25, Z+3	; 0x03
   11db4:	04 2d       	mov	r16, r4
   11db6:	a4 01       	movw	r20, r8
   11db8:	01 d3       	rcall	.+1538   	; 0x123bc <__ftoa_engine>
   11dba:	6c 01       	movw	r12, r24
   11dbc:	09 81       	ldd	r16, Y+1	; 0x01
   11dbe:	00 ff       	sbrs	r16, 0
   11dc0:	02 c0       	rjmp	.+4      	; 0x11dc6 <vfprintf+0x190>
   11dc2:	03 ff       	sbrs	r16, 3
   11dc4:	06 c0       	rjmp	.+12     	; 0x11dd2 <vfprintf+0x19c>
   11dc6:	71 fc       	sbrc	r7, 1
   11dc8:	07 c0       	rjmp	.+14     	; 0x11dd8 <vfprintf+0x1a2>
   11dca:	72 fc       	sbrc	r7, 2
   11dcc:	08 c0       	rjmp	.+16     	; 0x11dde <vfprintf+0x1a8>
   11dce:	61 2c       	mov	r6, r1
   11dd0:	08 c0       	rjmp	.+16     	; 0x11de2 <vfprintf+0x1ac>
   11dd2:	3d e2       	ldi	r19, 0x2D	; 45
   11dd4:	63 2e       	mov	r6, r19
   11dd6:	05 c0       	rjmp	.+10     	; 0x11de2 <vfprintf+0x1ac>
   11dd8:	2b e2       	ldi	r18, 0x2B	; 43
   11dda:	62 2e       	mov	r6, r18
   11ddc:	02 c0       	rjmp	.+4      	; 0x11de2 <vfprintf+0x1ac>
   11dde:	90 e2       	ldi	r25, 0x20	; 32
   11de0:	69 2e       	mov	r6, r25
   11de2:	80 2f       	mov	r24, r16
   11de4:	8c 70       	andi	r24, 0x0C	; 12
   11de6:	81 f1       	breq	.+96     	; 0x11e48 <vfprintf+0x212>
   11de8:	66 20       	and	r6, r6
   11dea:	11 f0       	breq	.+4      	; 0x11df0 <vfprintf+0x1ba>
   11dec:	84 e0       	ldi	r24, 0x04	; 4
   11dee:	01 c0       	rjmp	.+2      	; 0x11df2 <vfprintf+0x1bc>
   11df0:	83 e0       	ldi	r24, 0x03	; 3
   11df2:	85 15       	cp	r24, r5
   11df4:	10 f0       	brcs	.+4      	; 0x11dfa <vfprintf+0x1c4>
   11df6:	51 2c       	mov	r5, r1
   11df8:	0a c0       	rjmp	.+20     	; 0x11e0e <vfprintf+0x1d8>
   11dfa:	58 1a       	sub	r5, r24
   11dfc:	73 fc       	sbrc	r7, 3
   11dfe:	07 c0       	rjmp	.+14     	; 0x11e0e <vfprintf+0x1d8>
   11e00:	b7 01       	movw	r22, r14
   11e02:	80 e2       	ldi	r24, 0x20	; 32
   11e04:	90 e0       	ldi	r25, 0x00	; 0
   11e06:	c8 d3       	rcall	.+1936   	; 0x12598 <fputc>
   11e08:	5a 94       	dec	r5
   11e0a:	d1 f7       	brne	.-12     	; 0x11e00 <vfprintf+0x1ca>
   11e0c:	f4 cf       	rjmp	.-24     	; 0x11df6 <vfprintf+0x1c0>
   11e0e:	66 20       	and	r6, r6
   11e10:	21 f0       	breq	.+8      	; 0x11e1a <vfprintf+0x1e4>
   11e12:	b7 01       	movw	r22, r14
   11e14:	86 2d       	mov	r24, r6
   11e16:	90 e0       	ldi	r25, 0x00	; 0
   11e18:	bf d3       	rcall	.+1918   	; 0x12598 <fputc>
   11e1a:	03 fd       	sbrc	r16, 3
   11e1c:	03 c0       	rjmp	.+6      	; 0x11e24 <vfprintf+0x1ee>
   11e1e:	0a e9       	ldi	r16, 0x9A	; 154
   11e20:	1a e0       	ldi	r17, 0x0A	; 10
   11e22:	02 c0       	rjmp	.+4      	; 0x11e28 <vfprintf+0x1f2>
   11e24:	06 e9       	ldi	r16, 0x96	; 150
   11e26:	1a e0       	ldi	r17, 0x0A	; 10
   11e28:	f7 2d       	mov	r31, r7
   11e2a:	f0 71       	andi	r31, 0x10	; 16
   11e2c:	7f 2e       	mov	r7, r31
   11e2e:	f8 01       	movw	r30, r16
   11e30:	84 91       	lpm	r24, Z
   11e32:	88 23       	and	r24, r24
   11e34:	09 f4       	brne	.+2      	; 0x11e38 <vfprintf+0x202>
   11e36:	5e c2       	rjmp	.+1212   	; 0x122f4 <vfprintf+0x6be>
   11e38:	71 10       	cpse	r7, r1
   11e3a:	80 52       	subi	r24, 0x20	; 32
   11e3c:	b7 01       	movw	r22, r14
   11e3e:	90 e0       	ldi	r25, 0x00	; 0
   11e40:	ab d3       	rcall	.+1878   	; 0x12598 <fputc>
   11e42:	0f 5f       	subi	r16, 0xFF	; 255
   11e44:	1f 4f       	sbci	r17, 0xFF	; 255
   11e46:	f3 cf       	rjmp	.-26     	; 0x11e2e <vfprintf+0x1f8>
   11e48:	77 fe       	sbrs	r7, 7
   11e4a:	0f c0       	rjmp	.+30     	; 0x11e6a <vfprintf+0x234>
   11e4c:	4c 0c       	add	r4, r12
   11e4e:	04 ff       	sbrs	r16, 4
   11e50:	04 c0       	rjmp	.+8      	; 0x11e5a <vfprintf+0x224>
   11e52:	8a 81       	ldd	r24, Y+2	; 0x02
   11e54:	81 33       	cpi	r24, 0x31	; 49
   11e56:	09 f4       	brne	.+2      	; 0x11e5a <vfprintf+0x224>
   11e58:	4a 94       	dec	r4
   11e5a:	14 14       	cp	r1, r4
   11e5c:	74 f5       	brge	.+92     	; 0x11eba <vfprintf+0x284>
   11e5e:	f8 e0       	ldi	r31, 0x08	; 8
   11e60:	f4 15       	cp	r31, r4
   11e62:	78 f5       	brcc	.+94     	; 0x11ec2 <vfprintf+0x28c>
   11e64:	88 e0       	ldi	r24, 0x08	; 8
   11e66:	48 2e       	mov	r4, r24
   11e68:	2c c0       	rjmp	.+88     	; 0x11ec2 <vfprintf+0x28c>
   11e6a:	76 fc       	sbrc	r7, 6
   11e6c:	2a c0       	rjmp	.+84     	; 0x11ec2 <vfprintf+0x28c>
   11e6e:	81 2f       	mov	r24, r17
   11e70:	90 e0       	ldi	r25, 0x00	; 0
   11e72:	8c 15       	cp	r24, r12
   11e74:	9d 05       	cpc	r25, r13
   11e76:	9c f0       	brlt	.+38     	; 0x11e9e <vfprintf+0x268>
   11e78:	6c ef       	ldi	r22, 0xFC	; 252
   11e7a:	c6 16       	cp	r12, r22
   11e7c:	6f ef       	ldi	r22, 0xFF	; 255
   11e7e:	d6 06       	cpc	r13, r22
   11e80:	74 f0       	brlt	.+28     	; 0x11e9e <vfprintf+0x268>
   11e82:	77 2d       	mov	r23, r7
   11e84:	70 68       	ori	r23, 0x80	; 128
   11e86:	77 2e       	mov	r7, r23
   11e88:	0a c0       	rjmp	.+20     	; 0x11e9e <vfprintf+0x268>
   11e8a:	e2 e0       	ldi	r30, 0x02	; 2
   11e8c:	f0 e0       	ldi	r31, 0x00	; 0
   11e8e:	ec 0f       	add	r30, r28
   11e90:	fd 1f       	adc	r31, r29
   11e92:	e1 0f       	add	r30, r17
   11e94:	f1 1d       	adc	r31, r1
   11e96:	80 81       	ld	r24, Z
   11e98:	80 33       	cpi	r24, 0x30	; 48
   11e9a:	19 f4       	brne	.+6      	; 0x11ea2 <vfprintf+0x26c>
   11e9c:	11 50       	subi	r17, 0x01	; 1
   11e9e:	11 11       	cpse	r17, r1
   11ea0:	f4 cf       	rjmp	.-24     	; 0x11e8a <vfprintf+0x254>
   11ea2:	77 fe       	sbrs	r7, 7
   11ea4:	0e c0       	rjmp	.+28     	; 0x11ec2 <vfprintf+0x28c>
   11ea6:	44 24       	eor	r4, r4
   11ea8:	43 94       	inc	r4
   11eaa:	41 0e       	add	r4, r17
   11eac:	81 2f       	mov	r24, r17
   11eae:	90 e0       	ldi	r25, 0x00	; 0
   11eb0:	c8 16       	cp	r12, r24
   11eb2:	d9 06       	cpc	r13, r25
   11eb4:	2c f4       	brge	.+10     	; 0x11ec0 <vfprintf+0x28a>
   11eb6:	1c 19       	sub	r17, r12
   11eb8:	04 c0       	rjmp	.+8      	; 0x11ec2 <vfprintf+0x28c>
   11eba:	44 24       	eor	r4, r4
   11ebc:	43 94       	inc	r4
   11ebe:	01 c0       	rjmp	.+2      	; 0x11ec2 <vfprintf+0x28c>
   11ec0:	10 e0       	ldi	r17, 0x00	; 0
   11ec2:	77 fe       	sbrs	r7, 7
   11ec4:	07 c0       	rjmp	.+14     	; 0x11ed4 <vfprintf+0x29e>
   11ec6:	1c 14       	cp	r1, r12
   11ec8:	1d 04       	cpc	r1, r13
   11eca:	3c f4       	brge	.+14     	; 0x11eda <vfprintf+0x2a4>
   11ecc:	96 01       	movw	r18, r12
   11ece:	2f 5f       	subi	r18, 0xFF	; 255
   11ed0:	3f 4f       	sbci	r19, 0xFF	; 255
   11ed2:	05 c0       	rjmp	.+10     	; 0x11ede <vfprintf+0x2a8>
   11ed4:	25 e0       	ldi	r18, 0x05	; 5
   11ed6:	30 e0       	ldi	r19, 0x00	; 0
   11ed8:	02 c0       	rjmp	.+4      	; 0x11ede <vfprintf+0x2a8>
   11eda:	21 e0       	ldi	r18, 0x01	; 1
   11edc:	30 e0       	ldi	r19, 0x00	; 0
   11ede:	66 20       	and	r6, r6
   11ee0:	11 f0       	breq	.+4      	; 0x11ee6 <vfprintf+0x2b0>
   11ee2:	2f 5f       	subi	r18, 0xFF	; 255
   11ee4:	3f 4f       	sbci	r19, 0xFF	; 255
   11ee6:	11 23       	and	r17, r17
   11ee8:	31 f0       	breq	.+12     	; 0x11ef6 <vfprintf+0x2c0>
   11eea:	41 2f       	mov	r20, r17
   11eec:	50 e0       	ldi	r21, 0x00	; 0
   11eee:	4f 5f       	subi	r20, 0xFF	; 255
   11ef0:	5f 4f       	sbci	r21, 0xFF	; 255
   11ef2:	24 0f       	add	r18, r20
   11ef4:	35 1f       	adc	r19, r21
   11ef6:	45 2d       	mov	r20, r5
   11ef8:	50 e0       	ldi	r21, 0x00	; 0
   11efa:	24 17       	cp	r18, r20
   11efc:	35 07       	cpc	r19, r21
   11efe:	14 f4       	brge	.+4      	; 0x11f04 <vfprintf+0x2ce>
   11f00:	52 1a       	sub	r5, r18
   11f02:	01 c0       	rjmp	.+2      	; 0x11f06 <vfprintf+0x2d0>
   11f04:	51 2c       	mov	r5, r1
   11f06:	87 2d       	mov	r24, r7
   11f08:	89 70       	andi	r24, 0x09	; 9
   11f0a:	41 f4       	brne	.+16     	; 0x11f1c <vfprintf+0x2e6>
   11f0c:	55 20       	and	r5, r5
   11f0e:	31 f0       	breq	.+12     	; 0x11f1c <vfprintf+0x2e6>
   11f10:	b7 01       	movw	r22, r14
   11f12:	80 e2       	ldi	r24, 0x20	; 32
   11f14:	90 e0       	ldi	r25, 0x00	; 0
   11f16:	40 d3       	rcall	.+1664   	; 0x12598 <fputc>
   11f18:	5a 94       	dec	r5
   11f1a:	f8 cf       	rjmp	.-16     	; 0x11f0c <vfprintf+0x2d6>
   11f1c:	66 20       	and	r6, r6
   11f1e:	21 f0       	breq	.+8      	; 0x11f28 <vfprintf+0x2f2>
   11f20:	b7 01       	movw	r22, r14
   11f22:	86 2d       	mov	r24, r6
   11f24:	90 e0       	ldi	r25, 0x00	; 0
   11f26:	38 d3       	rcall	.+1648   	; 0x12598 <fputc>
   11f28:	73 fc       	sbrc	r7, 3
   11f2a:	08 c0       	rjmp	.+16     	; 0x11f3c <vfprintf+0x306>
   11f2c:	55 20       	and	r5, r5
   11f2e:	31 f0       	breq	.+12     	; 0x11f3c <vfprintf+0x306>
   11f30:	b7 01       	movw	r22, r14
   11f32:	80 e3       	ldi	r24, 0x30	; 48
   11f34:	90 e0       	ldi	r25, 0x00	; 0
   11f36:	30 d3       	rcall	.+1632   	; 0x12598 <fputc>
   11f38:	5a 94       	dec	r5
   11f3a:	f8 cf       	rjmp	.-16     	; 0x11f2c <vfprintf+0x2f6>
   11f3c:	77 fe       	sbrs	r7, 7
   11f3e:	5d c0       	rjmp	.+186    	; 0x11ffa <vfprintf+0x3c4>
   11f40:	9c 2d       	mov	r25, r12
   11f42:	8d 2d       	mov	r24, r13
   11f44:	d7 fe       	sbrs	r13, 7
   11f46:	02 c0       	rjmp	.+4      	; 0x11f4c <vfprintf+0x316>
   11f48:	90 e0       	ldi	r25, 0x00	; 0
   11f4a:	80 e0       	ldi	r24, 0x00	; 0
   11f4c:	69 2e       	mov	r6, r25
   11f4e:	78 2e       	mov	r7, r24
   11f50:	40 e0       	ldi	r20, 0x00	; 0
   11f52:	50 e0       	ldi	r21, 0x00	; 0
   11f54:	c6 01       	movw	r24, r12
   11f56:	84 19       	sub	r24, r4
   11f58:	91 09       	sbc	r25, r1
   11f5a:	9d 87       	std	Y+13, r25	; 0x0d
   11f5c:	8c 87       	std	Y+12, r24	; 0x0c
   11f5e:	96 01       	movw	r18, r12
   11f60:	26 19       	sub	r18, r6
   11f62:	37 09       	sbc	r19, r7
   11f64:	28 0d       	add	r18, r8
   11f66:	39 1d       	adc	r19, r9
   11f68:	81 2f       	mov	r24, r17
   11f6a:	90 e0       	ldi	r25, 0x00	; 0
   11f6c:	ee 27       	eor	r30, r30
   11f6e:	ff 27       	eor	r31, r31
   11f70:	e8 1b       	sub	r30, r24
   11f72:	f9 0b       	sbc	r31, r25
   11f74:	ff 87       	std	Y+15, r31	; 0x0f
   11f76:	ee 87       	std	Y+14, r30	; 0x0e
   11f78:	ff ef       	ldi	r31, 0xFF	; 255
   11f7a:	6f 16       	cp	r6, r31
   11f7c:	7f 06       	cpc	r7, r31
   11f7e:	61 f4       	brne	.+24     	; 0x11f98 <vfprintf+0x362>
   11f80:	b7 01       	movw	r22, r14
   11f82:	8e e2       	ldi	r24, 0x2E	; 46
   11f84:	90 e0       	ldi	r25, 0x00	; 0
   11f86:	2b 8b       	std	Y+19, r18	; 0x13
   11f88:	3a 8b       	std	Y+18, r19	; 0x12
   11f8a:	48 8b       	std	Y+16, r20	; 0x10
   11f8c:	59 8b       	std	Y+17, r21	; 0x11
   11f8e:	04 d3       	rcall	.+1544   	; 0x12598 <fputc>
   11f90:	59 89       	ldd	r21, Y+17	; 0x11
   11f92:	48 89       	ldd	r20, Y+16	; 0x10
   11f94:	3a 89       	ldd	r19, Y+18	; 0x12
   11f96:	2b 89       	ldd	r18, Y+19	; 0x13
   11f98:	c6 14       	cp	r12, r6
   11f9a:	d7 04       	cpc	r13, r7
   11f9c:	54 f0       	brlt	.+20     	; 0x11fb2 <vfprintf+0x37c>
   11f9e:	6c 85       	ldd	r22, Y+12	; 0x0c
   11fa0:	7d 85       	ldd	r23, Y+13	; 0x0d
   11fa2:	66 15       	cp	r22, r6
   11fa4:	77 05       	cpc	r23, r7
   11fa6:	2c f4       	brge	.+10     	; 0x11fb2 <vfprintf+0x37c>
   11fa8:	f9 01       	movw	r30, r18
   11faa:	e4 0f       	add	r30, r20
   11fac:	f5 1f       	adc	r31, r21
   11fae:	81 81       	ldd	r24, Z+1	; 0x01
   11fb0:	01 c0       	rjmp	.+2      	; 0x11fb4 <vfprintf+0x37e>
   11fb2:	80 e3       	ldi	r24, 0x30	; 48
   11fb4:	71 e0       	ldi	r23, 0x01	; 1
   11fb6:	67 1a       	sub	r6, r23
   11fb8:	71 08       	sbc	r7, r1
   11fba:	4f 5f       	subi	r20, 0xFF	; 255
   11fbc:	5f 4f       	sbci	r21, 0xFF	; 255
   11fbe:	ee 85       	ldd	r30, Y+14	; 0x0e
   11fc0:	ff 85       	ldd	r31, Y+15	; 0x0f
   11fc2:	6e 16       	cp	r6, r30
   11fc4:	7f 06       	cpc	r7, r31
   11fc6:	64 f0       	brlt	.+24     	; 0x11fe0 <vfprintf+0x3aa>
   11fc8:	b7 01       	movw	r22, r14
   11fca:	90 e0       	ldi	r25, 0x00	; 0
   11fcc:	2b 8b       	std	Y+19, r18	; 0x13
   11fce:	3a 8b       	std	Y+18, r19	; 0x12
   11fd0:	48 8b       	std	Y+16, r20	; 0x10
   11fd2:	59 8b       	std	Y+17, r21	; 0x11
   11fd4:	e1 d2       	rcall	.+1474   	; 0x12598 <fputc>
   11fd6:	2b 89       	ldd	r18, Y+19	; 0x13
   11fd8:	3a 89       	ldd	r19, Y+18	; 0x12
   11fda:	48 89       	ldd	r20, Y+16	; 0x10
   11fdc:	59 89       	ldd	r21, Y+17	; 0x11
   11fde:	cc cf       	rjmp	.-104    	; 0x11f78 <vfprintf+0x342>
   11fe0:	6c 14       	cp	r6, r12
   11fe2:	7d 04       	cpc	r7, r13
   11fe4:	39 f4       	brne	.+14     	; 0x11ff4 <vfprintf+0x3be>
   11fe6:	9a 81       	ldd	r25, Y+2	; 0x02
   11fe8:	96 33       	cpi	r25, 0x36	; 54
   11fea:	18 f4       	brcc	.+6      	; 0x11ff2 <vfprintf+0x3bc>
   11fec:	95 33       	cpi	r25, 0x35	; 53
   11fee:	11 f4       	brne	.+4      	; 0x11ff4 <vfprintf+0x3be>
   11ff0:	04 ff       	sbrs	r16, 4
   11ff2:	81 e3       	ldi	r24, 0x31	; 49
   11ff4:	b7 01       	movw	r22, r14
   11ff6:	90 e0       	ldi	r25, 0x00	; 0
   11ff8:	45 c0       	rjmp	.+138    	; 0x12084 <vfprintf+0x44e>
   11ffa:	8a 81       	ldd	r24, Y+2	; 0x02
   11ffc:	81 33       	cpi	r24, 0x31	; 49
   11ffe:	09 f0       	breq	.+2      	; 0x12002 <vfprintf+0x3cc>
   12000:	0f 7e       	andi	r16, 0xEF	; 239
   12002:	b7 01       	movw	r22, r14
   12004:	90 e0       	ldi	r25, 0x00	; 0
   12006:	c8 d2       	rcall	.+1424   	; 0x12598 <fputc>
   12008:	11 11       	cpse	r17, r1
   1200a:	05 c0       	rjmp	.+10     	; 0x12016 <vfprintf+0x3e0>
   1200c:	74 fe       	sbrs	r7, 4
   1200e:	16 c0       	rjmp	.+44     	; 0x1203c <vfprintf+0x406>
   12010:	85 e4       	ldi	r24, 0x45	; 69
   12012:	90 e0       	ldi	r25, 0x00	; 0
   12014:	15 c0       	rjmp	.+42     	; 0x12040 <vfprintf+0x40a>
   12016:	b7 01       	movw	r22, r14
   12018:	8e e2       	ldi	r24, 0x2E	; 46
   1201a:	90 e0       	ldi	r25, 0x00	; 0
   1201c:	bd d2       	rcall	.+1402   	; 0x12598 <fputc>
   1201e:	82 e0       	ldi	r24, 0x02	; 2
   12020:	66 24       	eor	r6, r6
   12022:	63 94       	inc	r6
   12024:	68 0e       	add	r6, r24
   12026:	f4 01       	movw	r30, r8
   12028:	e8 0f       	add	r30, r24
   1202a:	f1 1d       	adc	r31, r1
   1202c:	80 81       	ld	r24, Z
   1202e:	b7 01       	movw	r22, r14
   12030:	90 e0       	ldi	r25, 0x00	; 0
   12032:	b2 d2       	rcall	.+1380   	; 0x12598 <fputc>
   12034:	11 50       	subi	r17, 0x01	; 1
   12036:	51 f3       	breq	.-44     	; 0x1200c <vfprintf+0x3d6>
   12038:	86 2d       	mov	r24, r6
   1203a:	f2 cf       	rjmp	.-28     	; 0x12020 <vfprintf+0x3ea>
   1203c:	85 e6       	ldi	r24, 0x65	; 101
   1203e:	90 e0       	ldi	r25, 0x00	; 0
   12040:	b7 01       	movw	r22, r14
   12042:	aa d2       	rcall	.+1364   	; 0x12598 <fputc>
   12044:	d7 fc       	sbrc	r13, 7
   12046:	05 c0       	rjmp	.+10     	; 0x12052 <vfprintf+0x41c>
   12048:	c1 14       	cp	r12, r1
   1204a:	d1 04       	cpc	r13, r1
   1204c:	39 f4       	brne	.+14     	; 0x1205c <vfprintf+0x426>
   1204e:	04 ff       	sbrs	r16, 4
   12050:	05 c0       	rjmp	.+10     	; 0x1205c <vfprintf+0x426>
   12052:	d1 94       	neg	r13
   12054:	c1 94       	neg	r12
   12056:	d1 08       	sbc	r13, r1
   12058:	8d e2       	ldi	r24, 0x2D	; 45
   1205a:	01 c0       	rjmp	.+2      	; 0x1205e <vfprintf+0x428>
   1205c:	8b e2       	ldi	r24, 0x2B	; 43
   1205e:	b7 01       	movw	r22, r14
   12060:	90 e0       	ldi	r25, 0x00	; 0
   12062:	9a d2       	rcall	.+1332   	; 0x12598 <fputc>
   12064:	80 e3       	ldi	r24, 0x30	; 48
   12066:	6a e0       	ldi	r22, 0x0A	; 10
   12068:	c6 16       	cp	r12, r22
   1206a:	d1 04       	cpc	r13, r1
   1206c:	2c f0       	brlt	.+10     	; 0x12078 <vfprintf+0x442>
   1206e:	8f 5f       	subi	r24, 0xFF	; 255
   12070:	fa e0       	ldi	r31, 0x0A	; 10
   12072:	cf 1a       	sub	r12, r31
   12074:	d1 08       	sbc	r13, r1
   12076:	f7 cf       	rjmp	.-18     	; 0x12066 <vfprintf+0x430>
   12078:	b7 01       	movw	r22, r14
   1207a:	90 e0       	ldi	r25, 0x00	; 0
   1207c:	8d d2       	rcall	.+1306   	; 0x12598 <fputc>
   1207e:	b7 01       	movw	r22, r14
   12080:	c6 01       	movw	r24, r12
   12082:	c0 96       	adiw	r24, 0x30	; 48
   12084:	89 d2       	rcall	.+1298   	; 0x12598 <fputc>
   12086:	36 c1       	rjmp	.+620    	; 0x122f4 <vfprintf+0x6be>
   12088:	83 36       	cpi	r24, 0x63	; 99
   1208a:	31 f0       	breq	.+12     	; 0x12098 <vfprintf+0x462>
   1208c:	83 37       	cpi	r24, 0x73	; 115
   1208e:	79 f0       	breq	.+30     	; 0x120ae <vfprintf+0x478>
   12090:	83 35       	cpi	r24, 0x53	; 83
   12092:	09 f0       	breq	.+2      	; 0x12096 <vfprintf+0x460>
   12094:	54 c0       	rjmp	.+168    	; 0x1213e <vfprintf+0x508>
   12096:	20 c0       	rjmp	.+64     	; 0x120d8 <vfprintf+0x4a2>
   12098:	56 01       	movw	r10, r12
   1209a:	72 e0       	ldi	r23, 0x02	; 2
   1209c:	a7 0e       	add	r10, r23
   1209e:	b1 1c       	adc	r11, r1
   120a0:	f6 01       	movw	r30, r12
   120a2:	80 81       	ld	r24, Z
   120a4:	89 83       	std	Y+1, r24	; 0x01
   120a6:	01 e0       	ldi	r16, 0x01	; 1
   120a8:	10 e0       	ldi	r17, 0x00	; 0
   120aa:	64 01       	movw	r12, r8
   120ac:	13 c0       	rjmp	.+38     	; 0x120d4 <vfprintf+0x49e>
   120ae:	56 01       	movw	r10, r12
   120b0:	f2 e0       	ldi	r31, 0x02	; 2
   120b2:	af 0e       	add	r10, r31
   120b4:	b1 1c       	adc	r11, r1
   120b6:	f6 01       	movw	r30, r12
   120b8:	c0 80       	ld	r12, Z
   120ba:	d1 80       	ldd	r13, Z+1	; 0x01
   120bc:	26 ff       	sbrs	r18, 6
   120be:	03 c0       	rjmp	.+6      	; 0x120c6 <vfprintf+0x490>
   120c0:	61 2f       	mov	r22, r17
   120c2:	70 e0       	ldi	r23, 0x00	; 0
   120c4:	02 c0       	rjmp	.+4      	; 0x120ca <vfprintf+0x494>
   120c6:	6f ef       	ldi	r22, 0xFF	; 255
   120c8:	7f ef       	ldi	r23, 0xFF	; 255
   120ca:	c6 01       	movw	r24, r12
   120cc:	2b 8b       	std	Y+19, r18	; 0x13
   120ce:	59 d2       	rcall	.+1202   	; 0x12582 <strnlen>
   120d0:	8c 01       	movw	r16, r24
   120d2:	2b 89       	ldd	r18, Y+19	; 0x13
   120d4:	2f 77       	andi	r18, 0x7F	; 127
   120d6:	14 c0       	rjmp	.+40     	; 0x12100 <vfprintf+0x4ca>
   120d8:	56 01       	movw	r10, r12
   120da:	f2 e0       	ldi	r31, 0x02	; 2
   120dc:	af 0e       	add	r10, r31
   120de:	b1 1c       	adc	r11, r1
   120e0:	f6 01       	movw	r30, r12
   120e2:	c0 80       	ld	r12, Z
   120e4:	d1 80       	ldd	r13, Z+1	; 0x01
   120e6:	26 ff       	sbrs	r18, 6
   120e8:	03 c0       	rjmp	.+6      	; 0x120f0 <vfprintf+0x4ba>
   120ea:	61 2f       	mov	r22, r17
   120ec:	70 e0       	ldi	r23, 0x00	; 0
   120ee:	02 c0       	rjmp	.+4      	; 0x120f4 <vfprintf+0x4be>
   120f0:	6f ef       	ldi	r22, 0xFF	; 255
   120f2:	7f ef       	ldi	r23, 0xFF	; 255
   120f4:	c6 01       	movw	r24, r12
   120f6:	2b 8b       	std	Y+19, r18	; 0x13
   120f8:	39 d2       	rcall	.+1138   	; 0x1256c <strnlen_P>
   120fa:	8c 01       	movw	r16, r24
   120fc:	2b 89       	ldd	r18, Y+19	; 0x13
   120fe:	20 68       	ori	r18, 0x80	; 128
   12100:	72 2e       	mov	r7, r18
   12102:	23 fd       	sbrc	r18, 3
   12104:	18 c0       	rjmp	.+48     	; 0x12136 <vfprintf+0x500>
   12106:	85 2d       	mov	r24, r5
   12108:	90 e0       	ldi	r25, 0x00	; 0
   1210a:	08 17       	cp	r16, r24
   1210c:	19 07       	cpc	r17, r25
   1210e:	98 f4       	brcc	.+38     	; 0x12136 <vfprintf+0x500>
   12110:	b7 01       	movw	r22, r14
   12112:	80 e2       	ldi	r24, 0x20	; 32
   12114:	90 e0       	ldi	r25, 0x00	; 0
   12116:	40 d2       	rcall	.+1152   	; 0x12598 <fputc>
   12118:	5a 94       	dec	r5
   1211a:	f5 cf       	rjmp	.-22     	; 0x12106 <vfprintf+0x4d0>
   1211c:	f6 01       	movw	r30, r12
   1211e:	77 fc       	sbrc	r7, 7
   12120:	85 91       	lpm	r24, Z+
   12122:	77 fe       	sbrs	r7, 7
   12124:	81 91       	ld	r24, Z+
   12126:	6f 01       	movw	r12, r30
   12128:	b7 01       	movw	r22, r14
   1212a:	90 e0       	ldi	r25, 0x00	; 0
   1212c:	35 d2       	rcall	.+1130   	; 0x12598 <fputc>
   1212e:	51 10       	cpse	r5, r1
   12130:	5a 94       	dec	r5
   12132:	01 50       	subi	r16, 0x01	; 1
   12134:	11 09       	sbc	r17, r1
   12136:	01 15       	cp	r16, r1
   12138:	11 05       	cpc	r17, r1
   1213a:	81 f7       	brne	.-32     	; 0x1211c <vfprintf+0x4e6>
   1213c:	db c0       	rjmp	.+438    	; 0x122f4 <vfprintf+0x6be>
   1213e:	84 36       	cpi	r24, 0x64	; 100
   12140:	11 f0       	breq	.+4      	; 0x12146 <vfprintf+0x510>
   12142:	89 36       	cpi	r24, 0x69	; 105
   12144:	49 f5       	brne	.+82     	; 0x12198 <vfprintf+0x562>
   12146:	56 01       	movw	r10, r12
   12148:	27 ff       	sbrs	r18, 7
   1214a:	09 c0       	rjmp	.+18     	; 0x1215e <vfprintf+0x528>
   1214c:	f4 e0       	ldi	r31, 0x04	; 4
   1214e:	af 0e       	add	r10, r31
   12150:	b1 1c       	adc	r11, r1
   12152:	f6 01       	movw	r30, r12
   12154:	60 81       	ld	r22, Z
   12156:	71 81       	ldd	r23, Z+1	; 0x01
   12158:	82 81       	ldd	r24, Z+2	; 0x02
   1215a:	93 81       	ldd	r25, Z+3	; 0x03
   1215c:	0a c0       	rjmp	.+20     	; 0x12172 <vfprintf+0x53c>
   1215e:	f2 e0       	ldi	r31, 0x02	; 2
   12160:	af 0e       	add	r10, r31
   12162:	b1 1c       	adc	r11, r1
   12164:	f6 01       	movw	r30, r12
   12166:	60 81       	ld	r22, Z
   12168:	71 81       	ldd	r23, Z+1	; 0x01
   1216a:	88 27       	eor	r24, r24
   1216c:	77 fd       	sbrc	r23, 7
   1216e:	80 95       	com	r24
   12170:	98 2f       	mov	r25, r24
   12172:	02 2f       	mov	r16, r18
   12174:	0f 76       	andi	r16, 0x6F	; 111
   12176:	97 ff       	sbrs	r25, 7
   12178:	08 c0       	rjmp	.+16     	; 0x1218a <vfprintf+0x554>
   1217a:	90 95       	com	r25
   1217c:	80 95       	com	r24
   1217e:	70 95       	com	r23
   12180:	61 95       	neg	r22
   12182:	7f 4f       	sbci	r23, 0xFF	; 255
   12184:	8f 4f       	sbci	r24, 0xFF	; 255
   12186:	9f 4f       	sbci	r25, 0xFF	; 255
   12188:	00 68       	ori	r16, 0x80	; 128
   1218a:	2a e0       	ldi	r18, 0x0A	; 10
   1218c:	30 e0       	ldi	r19, 0x00	; 0
   1218e:	a4 01       	movw	r20, r8
   12190:	73 d2       	rcall	.+1254   	; 0x12678 <__ultoa_invert>
   12192:	c8 2e       	mov	r12, r24
   12194:	c8 18       	sub	r12, r8
   12196:	3d c0       	rjmp	.+122    	; 0x12212 <vfprintf+0x5dc>
   12198:	02 2f       	mov	r16, r18
   1219a:	85 37       	cpi	r24, 0x75	; 117
   1219c:	21 f4       	brne	.+8      	; 0x121a6 <vfprintf+0x570>
   1219e:	0f 7e       	andi	r16, 0xEF	; 239
   121a0:	2a e0       	ldi	r18, 0x0A	; 10
   121a2:	30 e0       	ldi	r19, 0x00	; 0
   121a4:	1d c0       	rjmp	.+58     	; 0x121e0 <vfprintf+0x5aa>
   121a6:	09 7f       	andi	r16, 0xF9	; 249
   121a8:	8f 36       	cpi	r24, 0x6F	; 111
   121aa:	91 f0       	breq	.+36     	; 0x121d0 <vfprintf+0x59a>
   121ac:	18 f4       	brcc	.+6      	; 0x121b4 <vfprintf+0x57e>
   121ae:	88 35       	cpi	r24, 0x58	; 88
   121b0:	59 f0       	breq	.+22     	; 0x121c8 <vfprintf+0x592>
   121b2:	a9 c0       	rjmp	.+338    	; 0x12306 <vfprintf+0x6d0>
   121b4:	80 37       	cpi	r24, 0x70	; 112
   121b6:	19 f0       	breq	.+6      	; 0x121be <vfprintf+0x588>
   121b8:	88 37       	cpi	r24, 0x78	; 120
   121ba:	11 f0       	breq	.+4      	; 0x121c0 <vfprintf+0x58a>
   121bc:	a4 c0       	rjmp	.+328    	; 0x12306 <vfprintf+0x6d0>
   121be:	00 61       	ori	r16, 0x10	; 16
   121c0:	04 ff       	sbrs	r16, 4
   121c2:	09 c0       	rjmp	.+18     	; 0x121d6 <vfprintf+0x5a0>
   121c4:	04 60       	ori	r16, 0x04	; 4
   121c6:	07 c0       	rjmp	.+14     	; 0x121d6 <vfprintf+0x5a0>
   121c8:	24 ff       	sbrs	r18, 4
   121ca:	08 c0       	rjmp	.+16     	; 0x121dc <vfprintf+0x5a6>
   121cc:	06 60       	ori	r16, 0x06	; 6
   121ce:	06 c0       	rjmp	.+12     	; 0x121dc <vfprintf+0x5a6>
   121d0:	28 e0       	ldi	r18, 0x08	; 8
   121d2:	30 e0       	ldi	r19, 0x00	; 0
   121d4:	05 c0       	rjmp	.+10     	; 0x121e0 <vfprintf+0x5aa>
   121d6:	20 e1       	ldi	r18, 0x10	; 16
   121d8:	30 e0       	ldi	r19, 0x00	; 0
   121da:	02 c0       	rjmp	.+4      	; 0x121e0 <vfprintf+0x5aa>
   121dc:	20 e1       	ldi	r18, 0x10	; 16
   121de:	32 e0       	ldi	r19, 0x02	; 2
   121e0:	56 01       	movw	r10, r12
   121e2:	07 ff       	sbrs	r16, 7
   121e4:	09 c0       	rjmp	.+18     	; 0x121f8 <vfprintf+0x5c2>
   121e6:	f4 e0       	ldi	r31, 0x04	; 4
   121e8:	af 0e       	add	r10, r31
   121ea:	b1 1c       	adc	r11, r1
   121ec:	f6 01       	movw	r30, r12
   121ee:	60 81       	ld	r22, Z
   121f0:	71 81       	ldd	r23, Z+1	; 0x01
   121f2:	82 81       	ldd	r24, Z+2	; 0x02
   121f4:	93 81       	ldd	r25, Z+3	; 0x03
   121f6:	08 c0       	rjmp	.+16     	; 0x12208 <vfprintf+0x5d2>
   121f8:	f2 e0       	ldi	r31, 0x02	; 2
   121fa:	af 0e       	add	r10, r31
   121fc:	b1 1c       	adc	r11, r1
   121fe:	f6 01       	movw	r30, r12
   12200:	60 81       	ld	r22, Z
   12202:	71 81       	ldd	r23, Z+1	; 0x01
   12204:	80 e0       	ldi	r24, 0x00	; 0
   12206:	90 e0       	ldi	r25, 0x00	; 0
   12208:	a4 01       	movw	r20, r8
   1220a:	36 d2       	rcall	.+1132   	; 0x12678 <__ultoa_invert>
   1220c:	c8 2e       	mov	r12, r24
   1220e:	c8 18       	sub	r12, r8
   12210:	0f 77       	andi	r16, 0x7F	; 127
   12212:	06 ff       	sbrs	r16, 6
   12214:	0b c0       	rjmp	.+22     	; 0x1222c <vfprintf+0x5f6>
   12216:	20 2f       	mov	r18, r16
   12218:	2e 7f       	andi	r18, 0xFE	; 254
   1221a:	c1 16       	cp	r12, r17
   1221c:	50 f4       	brcc	.+20     	; 0x12232 <vfprintf+0x5fc>
   1221e:	04 ff       	sbrs	r16, 4
   12220:	0a c0       	rjmp	.+20     	; 0x12236 <vfprintf+0x600>
   12222:	02 fd       	sbrc	r16, 2
   12224:	08 c0       	rjmp	.+16     	; 0x12236 <vfprintf+0x600>
   12226:	20 2f       	mov	r18, r16
   12228:	2e 7e       	andi	r18, 0xEE	; 238
   1222a:	05 c0       	rjmp	.+10     	; 0x12236 <vfprintf+0x600>
   1222c:	dc 2c       	mov	r13, r12
   1222e:	20 2f       	mov	r18, r16
   12230:	03 c0       	rjmp	.+6      	; 0x12238 <vfprintf+0x602>
   12232:	dc 2c       	mov	r13, r12
   12234:	01 c0       	rjmp	.+2      	; 0x12238 <vfprintf+0x602>
   12236:	d1 2e       	mov	r13, r17
   12238:	24 ff       	sbrs	r18, 4
   1223a:	0d c0       	rjmp	.+26     	; 0x12256 <vfprintf+0x620>
   1223c:	fe 01       	movw	r30, r28
   1223e:	ec 0d       	add	r30, r12
   12240:	f1 1d       	adc	r31, r1
   12242:	80 81       	ld	r24, Z
   12244:	80 33       	cpi	r24, 0x30	; 48
   12246:	11 f4       	brne	.+4      	; 0x1224c <vfprintf+0x616>
   12248:	29 7e       	andi	r18, 0xE9	; 233
   1224a:	09 c0       	rjmp	.+18     	; 0x1225e <vfprintf+0x628>
   1224c:	22 ff       	sbrs	r18, 2
   1224e:	06 c0       	rjmp	.+12     	; 0x1225c <vfprintf+0x626>
   12250:	d3 94       	inc	r13
   12252:	d3 94       	inc	r13
   12254:	04 c0       	rjmp	.+8      	; 0x1225e <vfprintf+0x628>
   12256:	82 2f       	mov	r24, r18
   12258:	86 78       	andi	r24, 0x86	; 134
   1225a:	09 f0       	breq	.+2      	; 0x1225e <vfprintf+0x628>
   1225c:	d3 94       	inc	r13
   1225e:	23 fd       	sbrc	r18, 3
   12260:	12 c0       	rjmp	.+36     	; 0x12286 <vfprintf+0x650>
   12262:	20 ff       	sbrs	r18, 0
   12264:	06 c0       	rjmp	.+12     	; 0x12272 <vfprintf+0x63c>
   12266:	1c 2d       	mov	r17, r12
   12268:	d5 14       	cp	r13, r5
   1226a:	18 f4       	brcc	.+6      	; 0x12272 <vfprintf+0x63c>
   1226c:	15 0d       	add	r17, r5
   1226e:	1d 19       	sub	r17, r13
   12270:	d5 2c       	mov	r13, r5
   12272:	d5 14       	cp	r13, r5
   12274:	60 f4       	brcc	.+24     	; 0x1228e <vfprintf+0x658>
   12276:	b7 01       	movw	r22, r14
   12278:	80 e2       	ldi	r24, 0x20	; 32
   1227a:	90 e0       	ldi	r25, 0x00	; 0
   1227c:	2b 8b       	std	Y+19, r18	; 0x13
   1227e:	8c d1       	rcall	.+792    	; 0x12598 <fputc>
   12280:	d3 94       	inc	r13
   12282:	2b 89       	ldd	r18, Y+19	; 0x13
   12284:	f6 cf       	rjmp	.-20     	; 0x12272 <vfprintf+0x63c>
   12286:	d5 14       	cp	r13, r5
   12288:	10 f4       	brcc	.+4      	; 0x1228e <vfprintf+0x658>
   1228a:	5d 18       	sub	r5, r13
   1228c:	01 c0       	rjmp	.+2      	; 0x12290 <vfprintf+0x65a>
   1228e:	51 2c       	mov	r5, r1
   12290:	24 ff       	sbrs	r18, 4
   12292:	11 c0       	rjmp	.+34     	; 0x122b6 <vfprintf+0x680>
   12294:	b7 01       	movw	r22, r14
   12296:	80 e3       	ldi	r24, 0x30	; 48
   12298:	90 e0       	ldi	r25, 0x00	; 0
   1229a:	2b 8b       	std	Y+19, r18	; 0x13
   1229c:	7d d1       	rcall	.+762    	; 0x12598 <fputc>
   1229e:	2b 89       	ldd	r18, Y+19	; 0x13
   122a0:	22 ff       	sbrs	r18, 2
   122a2:	16 c0       	rjmp	.+44     	; 0x122d0 <vfprintf+0x69a>
   122a4:	21 ff       	sbrs	r18, 1
   122a6:	03 c0       	rjmp	.+6      	; 0x122ae <vfprintf+0x678>
   122a8:	88 e5       	ldi	r24, 0x58	; 88
   122aa:	90 e0       	ldi	r25, 0x00	; 0
   122ac:	02 c0       	rjmp	.+4      	; 0x122b2 <vfprintf+0x67c>
   122ae:	88 e7       	ldi	r24, 0x78	; 120
   122b0:	90 e0       	ldi	r25, 0x00	; 0
   122b2:	b7 01       	movw	r22, r14
   122b4:	0c c0       	rjmp	.+24     	; 0x122ce <vfprintf+0x698>
   122b6:	82 2f       	mov	r24, r18
   122b8:	86 78       	andi	r24, 0x86	; 134
   122ba:	51 f0       	breq	.+20     	; 0x122d0 <vfprintf+0x69a>
   122bc:	21 fd       	sbrc	r18, 1
   122be:	02 c0       	rjmp	.+4      	; 0x122c4 <vfprintf+0x68e>
   122c0:	80 e2       	ldi	r24, 0x20	; 32
   122c2:	01 c0       	rjmp	.+2      	; 0x122c6 <vfprintf+0x690>
   122c4:	8b e2       	ldi	r24, 0x2B	; 43
   122c6:	27 fd       	sbrc	r18, 7
   122c8:	8d e2       	ldi	r24, 0x2D	; 45
   122ca:	b7 01       	movw	r22, r14
   122cc:	90 e0       	ldi	r25, 0x00	; 0
   122ce:	64 d1       	rcall	.+712    	; 0x12598 <fputc>
   122d0:	c1 16       	cp	r12, r17
   122d2:	30 f4       	brcc	.+12     	; 0x122e0 <vfprintf+0x6aa>
   122d4:	b7 01       	movw	r22, r14
   122d6:	80 e3       	ldi	r24, 0x30	; 48
   122d8:	90 e0       	ldi	r25, 0x00	; 0
   122da:	5e d1       	rcall	.+700    	; 0x12598 <fputc>
   122dc:	11 50       	subi	r17, 0x01	; 1
   122de:	f8 cf       	rjmp	.-16     	; 0x122d0 <vfprintf+0x69a>
   122e0:	ca 94       	dec	r12
   122e2:	f4 01       	movw	r30, r8
   122e4:	ec 0d       	add	r30, r12
   122e6:	f1 1d       	adc	r31, r1
   122e8:	80 81       	ld	r24, Z
   122ea:	b7 01       	movw	r22, r14
   122ec:	90 e0       	ldi	r25, 0x00	; 0
   122ee:	54 d1       	rcall	.+680    	; 0x12598 <fputc>
   122f0:	c1 10       	cpse	r12, r1
   122f2:	f6 cf       	rjmp	.-20     	; 0x122e0 <vfprintf+0x6aa>
   122f4:	55 20       	and	r5, r5
   122f6:	09 f4       	brne	.+2      	; 0x122fa <vfprintf+0x6c4>
   122f8:	dd cc       	rjmp	.-1606   	; 0x11cb4 <vfprintf+0x7e>
   122fa:	b7 01       	movw	r22, r14
   122fc:	80 e2       	ldi	r24, 0x20	; 32
   122fe:	90 e0       	ldi	r25, 0x00	; 0
   12300:	4b d1       	rcall	.+662    	; 0x12598 <fputc>
   12302:	5a 94       	dec	r5
   12304:	f7 cf       	rjmp	.-18     	; 0x122f4 <vfprintf+0x6be>
   12306:	f7 01       	movw	r30, r14
   12308:	86 81       	ldd	r24, Z+6	; 0x06
   1230a:	97 81       	ldd	r25, Z+7	; 0x07
   1230c:	02 c0       	rjmp	.+4      	; 0x12312 <vfprintf+0x6dc>
   1230e:	8f ef       	ldi	r24, 0xFF	; 255
   12310:	9f ef       	ldi	r25, 0xFF	; 255
   12312:	63 96       	adiw	r28, 0x13	; 19
   12314:	0f b6       	in	r0, 0x3f	; 63
   12316:	f8 94       	cli
   12318:	de bf       	out	0x3e, r29	; 62
   1231a:	0f be       	out	0x3f, r0	; 63
   1231c:	cd bf       	out	0x3d, r28	; 61
   1231e:	df 91       	pop	r29
   12320:	cf 91       	pop	r28
   12322:	1f 91       	pop	r17
   12324:	0f 91       	pop	r16
   12326:	ff 90       	pop	r15
   12328:	ef 90       	pop	r14
   1232a:	df 90       	pop	r13
   1232c:	cf 90       	pop	r12
   1232e:	bf 90       	pop	r11
   12330:	af 90       	pop	r10
   12332:	9f 90       	pop	r9
   12334:	8f 90       	pop	r8
   12336:	7f 90       	pop	r7
   12338:	6f 90       	pop	r6
   1233a:	5f 90       	pop	r5
   1233c:	4f 90       	pop	r4
   1233e:	3f 90       	pop	r3
   12340:	2f 90       	pop	r2
   12342:	08 95       	ret

00012344 <__divmodhi4>:
   12344:	97 fb       	bst	r25, 7
   12346:	07 2e       	mov	r0, r23
   12348:	16 f4       	brtc	.+4      	; 0x1234e <__divmodhi4+0xa>
   1234a:	00 94       	com	r0
   1234c:	06 d0       	rcall	.+12     	; 0x1235a <__divmodhi4_neg1>
   1234e:	77 fd       	sbrc	r23, 7
   12350:	08 d0       	rcall	.+16     	; 0x12362 <__divmodhi4_neg2>
   12352:	20 d0       	rcall	.+64     	; 0x12394 <__udivmodhi4>
   12354:	07 fc       	sbrc	r0, 7
   12356:	05 d0       	rcall	.+10     	; 0x12362 <__divmodhi4_neg2>
   12358:	3e f4       	brtc	.+14     	; 0x12368 <__divmodhi4_exit>

0001235a <__divmodhi4_neg1>:
   1235a:	90 95       	com	r25
   1235c:	81 95       	neg	r24
   1235e:	9f 4f       	sbci	r25, 0xFF	; 255
   12360:	08 95       	ret

00012362 <__divmodhi4_neg2>:
   12362:	70 95       	com	r23
   12364:	61 95       	neg	r22
   12366:	7f 4f       	sbci	r23, 0xFF	; 255

00012368 <__divmodhi4_exit>:
   12368:	08 95       	ret

0001236a <__tablejump2__>:
   1236a:	ee 0f       	add	r30, r30
   1236c:	ff 1f       	adc	r31, r31

0001236e <__tablejump__>:
   1236e:	05 90       	lpm	r0, Z+
   12370:	f4 91       	lpm	r31, Z
   12372:	e0 2d       	mov	r30, r0
   12374:	19 94       	eijmp

00012376 <__umulhisi3>:
   12376:	a2 9f       	mul	r26, r18
   12378:	b0 01       	movw	r22, r0
   1237a:	b3 9f       	mul	r27, r19
   1237c:	c0 01       	movw	r24, r0
   1237e:	a3 9f       	mul	r26, r19
   12380:	70 0d       	add	r23, r0
   12382:	81 1d       	adc	r24, r1
   12384:	11 24       	eor	r1, r1
   12386:	91 1d       	adc	r25, r1
   12388:	b2 9f       	mul	r27, r18
   1238a:	70 0d       	add	r23, r0
   1238c:	81 1d       	adc	r24, r1
   1238e:	11 24       	eor	r1, r1
   12390:	91 1d       	adc	r25, r1
   12392:	08 95       	ret

00012394 <__udivmodhi4>:
   12394:	aa 1b       	sub	r26, r26
   12396:	bb 1b       	sub	r27, r27
   12398:	51 e1       	ldi	r21, 0x11	; 17
   1239a:	07 c0       	rjmp	.+14     	; 0x123aa <__udivmodhi4_ep>

0001239c <__udivmodhi4_loop>:
   1239c:	aa 1f       	adc	r26, r26
   1239e:	bb 1f       	adc	r27, r27
   123a0:	a6 17       	cp	r26, r22
   123a2:	b7 07       	cpc	r27, r23
   123a4:	10 f0       	brcs	.+4      	; 0x123aa <__udivmodhi4_ep>
   123a6:	a6 1b       	sub	r26, r22
   123a8:	b7 0b       	sbc	r27, r23

000123aa <__udivmodhi4_ep>:
   123aa:	88 1f       	adc	r24, r24
   123ac:	99 1f       	adc	r25, r25
   123ae:	5a 95       	dec	r21
   123b0:	a9 f7       	brne	.-22     	; 0x1239c <__udivmodhi4_loop>
   123b2:	80 95       	com	r24
   123b4:	90 95       	com	r25
   123b6:	bc 01       	movw	r22, r24
   123b8:	cd 01       	movw	r24, r26
   123ba:	08 95       	ret

000123bc <__ftoa_engine>:
   123bc:	28 30       	cpi	r18, 0x08	; 8
   123be:	08 f0       	brcs	.+2      	; 0x123c2 <__ftoa_engine+0x6>
   123c0:	27 e0       	ldi	r18, 0x07	; 7
   123c2:	33 27       	eor	r19, r19
   123c4:	da 01       	movw	r26, r20
   123c6:	99 0f       	add	r25, r25
   123c8:	31 1d       	adc	r19, r1
   123ca:	87 fd       	sbrc	r24, 7
   123cc:	91 60       	ori	r25, 0x01	; 1
   123ce:	00 96       	adiw	r24, 0x00	; 0
   123d0:	61 05       	cpc	r22, r1
   123d2:	71 05       	cpc	r23, r1
   123d4:	39 f4       	brne	.+14     	; 0x123e4 <__ftoa_engine+0x28>
   123d6:	32 60       	ori	r19, 0x02	; 2
   123d8:	2e 5f       	subi	r18, 0xFE	; 254
   123da:	3d 93       	st	X+, r19
   123dc:	30 e3       	ldi	r19, 0x30	; 48
   123de:	2a 95       	dec	r18
   123e0:	e1 f7       	brne	.-8      	; 0x123da <__ftoa_engine+0x1e>
   123e2:	08 95       	ret
   123e4:	9f 3f       	cpi	r25, 0xFF	; 255
   123e6:	30 f0       	brcs	.+12     	; 0x123f4 <__ftoa_engine+0x38>
   123e8:	80 38       	cpi	r24, 0x80	; 128
   123ea:	71 05       	cpc	r23, r1
   123ec:	61 05       	cpc	r22, r1
   123ee:	09 f0       	breq	.+2      	; 0x123f2 <__ftoa_engine+0x36>
   123f0:	3c 5f       	subi	r19, 0xFC	; 252
   123f2:	3c 5f       	subi	r19, 0xFC	; 252
   123f4:	3d 93       	st	X+, r19
   123f6:	91 30       	cpi	r25, 0x01	; 1
   123f8:	08 f0       	brcs	.+2      	; 0x123fc <__ftoa_engine+0x40>
   123fa:	80 68       	ori	r24, 0x80	; 128
   123fc:	91 1d       	adc	r25, r1
   123fe:	df 93       	push	r29
   12400:	cf 93       	push	r28
   12402:	1f 93       	push	r17
   12404:	0f 93       	push	r16
   12406:	ff 92       	push	r15
   12408:	ef 92       	push	r14
   1240a:	19 2f       	mov	r17, r25
   1240c:	98 7f       	andi	r25, 0xF8	; 248
   1240e:	96 95       	lsr	r25
   12410:	e9 2f       	mov	r30, r25
   12412:	96 95       	lsr	r25
   12414:	96 95       	lsr	r25
   12416:	e9 0f       	add	r30, r25
   12418:	ff 27       	eor	r31, r31
   1241a:	e8 50       	subi	r30, 0x08	; 8
   1241c:	f5 4f       	sbci	r31, 0xF5	; 245
   1241e:	99 27       	eor	r25, r25
   12420:	33 27       	eor	r19, r19
   12422:	ee 24       	eor	r14, r14
   12424:	ff 24       	eor	r15, r15
   12426:	a7 01       	movw	r20, r14
   12428:	e7 01       	movw	r28, r14
   1242a:	05 90       	lpm	r0, Z+
   1242c:	08 94       	sec
   1242e:	07 94       	ror	r0
   12430:	28 f4       	brcc	.+10     	; 0x1243c <__ftoa_engine+0x80>
   12432:	36 0f       	add	r19, r22
   12434:	e7 1e       	adc	r14, r23
   12436:	f8 1e       	adc	r15, r24
   12438:	49 1f       	adc	r20, r25
   1243a:	51 1d       	adc	r21, r1
   1243c:	66 0f       	add	r22, r22
   1243e:	77 1f       	adc	r23, r23
   12440:	88 1f       	adc	r24, r24
   12442:	99 1f       	adc	r25, r25
   12444:	06 94       	lsr	r0
   12446:	a1 f7       	brne	.-24     	; 0x12430 <__ftoa_engine+0x74>
   12448:	05 90       	lpm	r0, Z+
   1244a:	07 94       	ror	r0
   1244c:	28 f4       	brcc	.+10     	; 0x12458 <__ftoa_engine+0x9c>
   1244e:	e7 0e       	add	r14, r23
   12450:	f8 1e       	adc	r15, r24
   12452:	49 1f       	adc	r20, r25
   12454:	56 1f       	adc	r21, r22
   12456:	c1 1d       	adc	r28, r1
   12458:	77 0f       	add	r23, r23
   1245a:	88 1f       	adc	r24, r24
   1245c:	99 1f       	adc	r25, r25
   1245e:	66 1f       	adc	r22, r22
   12460:	06 94       	lsr	r0
   12462:	a1 f7       	brne	.-24     	; 0x1244c <__ftoa_engine+0x90>
   12464:	05 90       	lpm	r0, Z+
   12466:	07 94       	ror	r0
   12468:	28 f4       	brcc	.+10     	; 0x12474 <__ftoa_engine+0xb8>
   1246a:	f8 0e       	add	r15, r24
   1246c:	49 1f       	adc	r20, r25
   1246e:	56 1f       	adc	r21, r22
   12470:	c7 1f       	adc	r28, r23
   12472:	d1 1d       	adc	r29, r1
   12474:	88 0f       	add	r24, r24
   12476:	99 1f       	adc	r25, r25
   12478:	66 1f       	adc	r22, r22
   1247a:	77 1f       	adc	r23, r23
   1247c:	06 94       	lsr	r0
   1247e:	a1 f7       	brne	.-24     	; 0x12468 <__ftoa_engine+0xac>
   12480:	05 90       	lpm	r0, Z+
   12482:	07 94       	ror	r0
   12484:	20 f4       	brcc	.+8      	; 0x1248e <__ftoa_engine+0xd2>
   12486:	49 0f       	add	r20, r25
   12488:	56 1f       	adc	r21, r22
   1248a:	c7 1f       	adc	r28, r23
   1248c:	d8 1f       	adc	r29, r24
   1248e:	99 0f       	add	r25, r25
   12490:	66 1f       	adc	r22, r22
   12492:	77 1f       	adc	r23, r23
   12494:	88 1f       	adc	r24, r24
   12496:	06 94       	lsr	r0
   12498:	a9 f7       	brne	.-22     	; 0x12484 <__ftoa_engine+0xc8>
   1249a:	84 91       	lpm	r24, Z
   1249c:	10 95       	com	r17
   1249e:	17 70       	andi	r17, 0x07	; 7
   124a0:	41 f0       	breq	.+16     	; 0x124b2 <__ftoa_engine+0xf6>
   124a2:	d6 95       	lsr	r29
   124a4:	c7 95       	ror	r28
   124a6:	57 95       	ror	r21
   124a8:	47 95       	ror	r20
   124aa:	f7 94       	ror	r15
   124ac:	e7 94       	ror	r14
   124ae:	1a 95       	dec	r17
   124b0:	c1 f7       	brne	.-16     	; 0x124a2 <__ftoa_engine+0xe6>
   124b2:	ee e9       	ldi	r30, 0x9E	; 158
   124b4:	fa e0       	ldi	r31, 0x0A	; 10
   124b6:	68 94       	set
   124b8:	15 90       	lpm	r1, Z+
   124ba:	15 91       	lpm	r17, Z+
   124bc:	35 91       	lpm	r19, Z+
   124be:	65 91       	lpm	r22, Z+
   124c0:	95 91       	lpm	r25, Z+
   124c2:	05 90       	lpm	r0, Z+
   124c4:	7f e2       	ldi	r23, 0x2F	; 47
   124c6:	73 95       	inc	r23
   124c8:	e1 18       	sub	r14, r1
   124ca:	f1 0a       	sbc	r15, r17
   124cc:	43 0b       	sbc	r20, r19
   124ce:	56 0b       	sbc	r21, r22
   124d0:	c9 0b       	sbc	r28, r25
   124d2:	d0 09       	sbc	r29, r0
   124d4:	c0 f7       	brcc	.-16     	; 0x124c6 <__ftoa_engine+0x10a>
   124d6:	e1 0c       	add	r14, r1
   124d8:	f1 1e       	adc	r15, r17
   124da:	43 1f       	adc	r20, r19
   124dc:	56 1f       	adc	r21, r22
   124de:	c9 1f       	adc	r28, r25
   124e0:	d0 1d       	adc	r29, r0
   124e2:	7e f4       	brtc	.+30     	; 0x12502 <__ftoa_engine+0x146>
   124e4:	70 33       	cpi	r23, 0x30	; 48
   124e6:	11 f4       	brne	.+4      	; 0x124ec <__ftoa_engine+0x130>
   124e8:	8a 95       	dec	r24
   124ea:	e6 cf       	rjmp	.-52     	; 0x124b8 <__ftoa_engine+0xfc>
   124ec:	e8 94       	clt
   124ee:	01 50       	subi	r16, 0x01	; 1
   124f0:	30 f0       	brcs	.+12     	; 0x124fe <__ftoa_engine+0x142>
   124f2:	08 0f       	add	r16, r24
   124f4:	0a f4       	brpl	.+2      	; 0x124f8 <__ftoa_engine+0x13c>
   124f6:	00 27       	eor	r16, r16
   124f8:	02 17       	cp	r16, r18
   124fa:	08 f4       	brcc	.+2      	; 0x124fe <__ftoa_engine+0x142>
   124fc:	20 2f       	mov	r18, r16
   124fe:	23 95       	inc	r18
   12500:	02 2f       	mov	r16, r18
   12502:	7a 33       	cpi	r23, 0x3A	; 58
   12504:	28 f0       	brcs	.+10     	; 0x12510 <__ftoa_engine+0x154>
   12506:	79 e3       	ldi	r23, 0x39	; 57
   12508:	7d 93       	st	X+, r23
   1250a:	2a 95       	dec	r18
   1250c:	e9 f7       	brne	.-6      	; 0x12508 <__ftoa_engine+0x14c>
   1250e:	10 c0       	rjmp	.+32     	; 0x12530 <__ftoa_engine+0x174>
   12510:	7d 93       	st	X+, r23
   12512:	2a 95       	dec	r18
   12514:	89 f6       	brne	.-94     	; 0x124b8 <__ftoa_engine+0xfc>
   12516:	06 94       	lsr	r0
   12518:	97 95       	ror	r25
   1251a:	67 95       	ror	r22
   1251c:	37 95       	ror	r19
   1251e:	17 95       	ror	r17
   12520:	17 94       	ror	r1
   12522:	e1 18       	sub	r14, r1
   12524:	f1 0a       	sbc	r15, r17
   12526:	43 0b       	sbc	r20, r19
   12528:	56 0b       	sbc	r21, r22
   1252a:	c9 0b       	sbc	r28, r25
   1252c:	d0 09       	sbc	r29, r0
   1252e:	98 f0       	brcs	.+38     	; 0x12556 <__ftoa_engine+0x19a>
   12530:	23 95       	inc	r18
   12532:	7e 91       	ld	r23, -X
   12534:	73 95       	inc	r23
   12536:	7a 33       	cpi	r23, 0x3A	; 58
   12538:	08 f0       	brcs	.+2      	; 0x1253c <__ftoa_engine+0x180>
   1253a:	70 e3       	ldi	r23, 0x30	; 48
   1253c:	7c 93       	st	X, r23
   1253e:	20 13       	cpse	r18, r16
   12540:	b8 f7       	brcc	.-18     	; 0x12530 <__ftoa_engine+0x174>
   12542:	7e 91       	ld	r23, -X
   12544:	70 61       	ori	r23, 0x10	; 16
   12546:	7d 93       	st	X+, r23
   12548:	30 f0       	brcs	.+12     	; 0x12556 <__ftoa_engine+0x19a>
   1254a:	83 95       	inc	r24
   1254c:	71 e3       	ldi	r23, 0x31	; 49
   1254e:	7d 93       	st	X+, r23
   12550:	70 e3       	ldi	r23, 0x30	; 48
   12552:	2a 95       	dec	r18
   12554:	e1 f7       	brne	.-8      	; 0x1254e <__ftoa_engine+0x192>
   12556:	11 24       	eor	r1, r1
   12558:	ef 90       	pop	r14
   1255a:	ff 90       	pop	r15
   1255c:	0f 91       	pop	r16
   1255e:	1f 91       	pop	r17
   12560:	cf 91       	pop	r28
   12562:	df 91       	pop	r29
   12564:	99 27       	eor	r25, r25
   12566:	87 fd       	sbrc	r24, 7
   12568:	90 95       	com	r25
   1256a:	08 95       	ret

0001256c <strnlen_P>:
   1256c:	fc 01       	movw	r30, r24
   1256e:	05 90       	lpm	r0, Z+
   12570:	61 50       	subi	r22, 0x01	; 1
   12572:	70 40       	sbci	r23, 0x00	; 0
   12574:	01 10       	cpse	r0, r1
   12576:	d8 f7       	brcc	.-10     	; 0x1256e <strnlen_P+0x2>
   12578:	80 95       	com	r24
   1257a:	90 95       	com	r25
   1257c:	8e 0f       	add	r24, r30
   1257e:	9f 1f       	adc	r25, r31
   12580:	08 95       	ret

00012582 <strnlen>:
   12582:	fc 01       	movw	r30, r24
   12584:	61 50       	subi	r22, 0x01	; 1
   12586:	70 40       	sbci	r23, 0x00	; 0
   12588:	01 90       	ld	r0, Z+
   1258a:	01 10       	cpse	r0, r1
   1258c:	d8 f7       	brcc	.-10     	; 0x12584 <strnlen+0x2>
   1258e:	80 95       	com	r24
   12590:	90 95       	com	r25
   12592:	8e 0f       	add	r24, r30
   12594:	9f 1f       	adc	r25, r31
   12596:	08 95       	ret

00012598 <fputc>:
   12598:	0f 93       	push	r16
   1259a:	1f 93       	push	r17
   1259c:	cf 93       	push	r28
   1259e:	df 93       	push	r29
   125a0:	18 2f       	mov	r17, r24
   125a2:	09 2f       	mov	r16, r25
   125a4:	eb 01       	movw	r28, r22
   125a6:	8b 81       	ldd	r24, Y+3	; 0x03
   125a8:	81 fd       	sbrc	r24, 1
   125aa:	03 c0       	rjmp	.+6      	; 0x125b2 <fputc+0x1a>
   125ac:	8f ef       	ldi	r24, 0xFF	; 255
   125ae:	9f ef       	ldi	r25, 0xFF	; 255
   125b0:	20 c0       	rjmp	.+64     	; 0x125f2 <fputc+0x5a>
   125b2:	82 ff       	sbrs	r24, 2
   125b4:	10 c0       	rjmp	.+32     	; 0x125d6 <fputc+0x3e>
   125b6:	4e 81       	ldd	r20, Y+6	; 0x06
   125b8:	5f 81       	ldd	r21, Y+7	; 0x07
   125ba:	2c 81       	ldd	r18, Y+4	; 0x04
   125bc:	3d 81       	ldd	r19, Y+5	; 0x05
   125be:	42 17       	cp	r20, r18
   125c0:	53 07       	cpc	r21, r19
   125c2:	7c f4       	brge	.+30     	; 0x125e2 <fputc+0x4a>
   125c4:	e8 81       	ld	r30, Y
   125c6:	f9 81       	ldd	r31, Y+1	; 0x01
   125c8:	9f 01       	movw	r18, r30
   125ca:	2f 5f       	subi	r18, 0xFF	; 255
   125cc:	3f 4f       	sbci	r19, 0xFF	; 255
   125ce:	39 83       	std	Y+1, r19	; 0x01
   125d0:	28 83       	st	Y, r18
   125d2:	10 83       	st	Z, r17
   125d4:	06 c0       	rjmp	.+12     	; 0x125e2 <fputc+0x4a>
   125d6:	e8 85       	ldd	r30, Y+8	; 0x08
   125d8:	f9 85       	ldd	r31, Y+9	; 0x09
   125da:	81 2f       	mov	r24, r17
   125dc:	19 95       	eicall
   125de:	89 2b       	or	r24, r25
   125e0:	29 f7       	brne	.-54     	; 0x125ac <fputc+0x14>
   125e2:	2e 81       	ldd	r18, Y+6	; 0x06
   125e4:	3f 81       	ldd	r19, Y+7	; 0x07
   125e6:	2f 5f       	subi	r18, 0xFF	; 255
   125e8:	3f 4f       	sbci	r19, 0xFF	; 255
   125ea:	3f 83       	std	Y+7, r19	; 0x07
   125ec:	2e 83       	std	Y+6, r18	; 0x06
   125ee:	81 2f       	mov	r24, r17
   125f0:	90 2f       	mov	r25, r16
   125f2:	df 91       	pop	r29
   125f4:	cf 91       	pop	r28
   125f6:	1f 91       	pop	r17
   125f8:	0f 91       	pop	r16
   125fa:	08 95       	ret

000125fc <printf>:
   125fc:	cf 93       	push	r28
   125fe:	df 93       	push	r29
   12600:	cd b7       	in	r28, 0x3d	; 61
   12602:	de b7       	in	r29, 0x3e	; 62
   12604:	fe 01       	movw	r30, r28
   12606:	36 96       	adiw	r30, 0x06	; 6
   12608:	61 91       	ld	r22, Z+
   1260a:	71 91       	ld	r23, Z+
   1260c:	af 01       	movw	r20, r30
   1260e:	80 91 4b 03 	lds	r24, 0x034B
   12612:	90 91 4c 03 	lds	r25, 0x034C
   12616:	0f db       	rcall	.-2530   	; 0x11c36 <vfprintf>
   12618:	df 91       	pop	r29
   1261a:	cf 91       	pop	r28
   1261c:	08 95       	ret

0001261e <puts>:
   1261e:	0f 93       	push	r16
   12620:	1f 93       	push	r17
   12622:	cf 93       	push	r28
   12624:	df 93       	push	r29
   12626:	e0 91 4b 03 	lds	r30, 0x034B
   1262a:	f0 91 4c 03 	lds	r31, 0x034C
   1262e:	23 81       	ldd	r18, Z+3	; 0x03
   12630:	21 ff       	sbrs	r18, 1
   12632:	1b c0       	rjmp	.+54     	; 0x1266a <puts+0x4c>
   12634:	ec 01       	movw	r28, r24
   12636:	00 e0       	ldi	r16, 0x00	; 0
   12638:	10 e0       	ldi	r17, 0x00	; 0
   1263a:	89 91       	ld	r24, Y+
   1263c:	60 91 4b 03 	lds	r22, 0x034B
   12640:	70 91 4c 03 	lds	r23, 0x034C
   12644:	db 01       	movw	r26, r22
   12646:	18 96       	adiw	r26, 0x08	; 8
   12648:	ed 91       	ld	r30, X+
   1264a:	fc 91       	ld	r31, X
   1264c:	19 97       	sbiw	r26, 0x09	; 9
   1264e:	88 23       	and	r24, r24
   12650:	31 f0       	breq	.+12     	; 0x1265e <puts+0x40>
   12652:	19 95       	eicall
   12654:	89 2b       	or	r24, r25
   12656:	89 f3       	breq	.-30     	; 0x1263a <puts+0x1c>
   12658:	0f ef       	ldi	r16, 0xFF	; 255
   1265a:	1f ef       	ldi	r17, 0xFF	; 255
   1265c:	ee cf       	rjmp	.-36     	; 0x1263a <puts+0x1c>
   1265e:	8a e0       	ldi	r24, 0x0A	; 10
   12660:	19 95       	eicall
   12662:	89 2b       	or	r24, r25
   12664:	11 f4       	brne	.+4      	; 0x1266a <puts+0x4c>
   12666:	c8 01       	movw	r24, r16
   12668:	02 c0       	rjmp	.+4      	; 0x1266e <puts+0x50>
   1266a:	8f ef       	ldi	r24, 0xFF	; 255
   1266c:	9f ef       	ldi	r25, 0xFF	; 255
   1266e:	df 91       	pop	r29
   12670:	cf 91       	pop	r28
   12672:	1f 91       	pop	r17
   12674:	0f 91       	pop	r16
   12676:	08 95       	ret

00012678 <__ultoa_invert>:
   12678:	fa 01       	movw	r30, r20
   1267a:	aa 27       	eor	r26, r26
   1267c:	28 30       	cpi	r18, 0x08	; 8
   1267e:	51 f1       	breq	.+84     	; 0x126d4 <__ultoa_invert+0x5c>
   12680:	20 31       	cpi	r18, 0x10	; 16
   12682:	81 f1       	breq	.+96     	; 0x126e4 <__ultoa_invert+0x6c>
   12684:	e8 94       	clt
   12686:	6f 93       	push	r22
   12688:	6e 7f       	andi	r22, 0xFE	; 254
   1268a:	6e 5f       	subi	r22, 0xFE	; 254
   1268c:	7f 4f       	sbci	r23, 0xFF	; 255
   1268e:	8f 4f       	sbci	r24, 0xFF	; 255
   12690:	9f 4f       	sbci	r25, 0xFF	; 255
   12692:	af 4f       	sbci	r26, 0xFF	; 255
   12694:	b1 e0       	ldi	r27, 0x01	; 1
   12696:	3e d0       	rcall	.+124    	; 0x12714 <__ultoa_invert+0x9c>
   12698:	b4 e0       	ldi	r27, 0x04	; 4
   1269a:	3c d0       	rcall	.+120    	; 0x12714 <__ultoa_invert+0x9c>
   1269c:	67 0f       	add	r22, r23
   1269e:	78 1f       	adc	r23, r24
   126a0:	89 1f       	adc	r24, r25
   126a2:	9a 1f       	adc	r25, r26
   126a4:	a1 1d       	adc	r26, r1
   126a6:	68 0f       	add	r22, r24
   126a8:	79 1f       	adc	r23, r25
   126aa:	8a 1f       	adc	r24, r26
   126ac:	91 1d       	adc	r25, r1
   126ae:	a1 1d       	adc	r26, r1
   126b0:	6a 0f       	add	r22, r26
   126b2:	71 1d       	adc	r23, r1
   126b4:	81 1d       	adc	r24, r1
   126b6:	91 1d       	adc	r25, r1
   126b8:	a1 1d       	adc	r26, r1
   126ba:	20 d0       	rcall	.+64     	; 0x126fc <__ultoa_invert+0x84>
   126bc:	09 f4       	brne	.+2      	; 0x126c0 <__ultoa_invert+0x48>
   126be:	68 94       	set
   126c0:	3f 91       	pop	r19
   126c2:	2a e0       	ldi	r18, 0x0A	; 10
   126c4:	26 9f       	mul	r18, r22
   126c6:	11 24       	eor	r1, r1
   126c8:	30 19       	sub	r19, r0
   126ca:	30 5d       	subi	r19, 0xD0	; 208
   126cc:	31 93       	st	Z+, r19
   126ce:	de f6       	brtc	.-74     	; 0x12686 <__ultoa_invert+0xe>
   126d0:	cf 01       	movw	r24, r30
   126d2:	08 95       	ret
   126d4:	46 2f       	mov	r20, r22
   126d6:	47 70       	andi	r20, 0x07	; 7
   126d8:	40 5d       	subi	r20, 0xD0	; 208
   126da:	41 93       	st	Z+, r20
   126dc:	b3 e0       	ldi	r27, 0x03	; 3
   126de:	0f d0       	rcall	.+30     	; 0x126fe <__ultoa_invert+0x86>
   126e0:	c9 f7       	brne	.-14     	; 0x126d4 <__ultoa_invert+0x5c>
   126e2:	f6 cf       	rjmp	.-20     	; 0x126d0 <__ultoa_invert+0x58>
   126e4:	46 2f       	mov	r20, r22
   126e6:	4f 70       	andi	r20, 0x0F	; 15
   126e8:	40 5d       	subi	r20, 0xD0	; 208
   126ea:	4a 33       	cpi	r20, 0x3A	; 58
   126ec:	18 f0       	brcs	.+6      	; 0x126f4 <__ultoa_invert+0x7c>
   126ee:	49 5d       	subi	r20, 0xD9	; 217
   126f0:	31 fd       	sbrc	r19, 1
   126f2:	40 52       	subi	r20, 0x20	; 32
   126f4:	41 93       	st	Z+, r20
   126f6:	02 d0       	rcall	.+4      	; 0x126fc <__ultoa_invert+0x84>
   126f8:	a9 f7       	brne	.-22     	; 0x126e4 <__ultoa_invert+0x6c>
   126fa:	ea cf       	rjmp	.-44     	; 0x126d0 <__ultoa_invert+0x58>
   126fc:	b4 e0       	ldi	r27, 0x04	; 4
   126fe:	a6 95       	lsr	r26
   12700:	97 95       	ror	r25
   12702:	87 95       	ror	r24
   12704:	77 95       	ror	r23
   12706:	67 95       	ror	r22
   12708:	ba 95       	dec	r27
   1270a:	c9 f7       	brne	.-14     	; 0x126fe <__ultoa_invert+0x86>
   1270c:	00 97       	sbiw	r24, 0x00	; 0
   1270e:	61 05       	cpc	r22, r1
   12710:	71 05       	cpc	r23, r1
   12712:	08 95       	ret
   12714:	9b 01       	movw	r18, r22
   12716:	ac 01       	movw	r20, r24
   12718:	0a 2e       	mov	r0, r26
   1271a:	06 94       	lsr	r0
   1271c:	57 95       	ror	r21
   1271e:	47 95       	ror	r20
   12720:	37 95       	ror	r19
   12722:	27 95       	ror	r18
   12724:	ba 95       	dec	r27
   12726:	c9 f7       	brne	.-14     	; 0x1271a <__ultoa_invert+0xa2>
   12728:	62 0f       	add	r22, r18
   1272a:	73 1f       	adc	r23, r19
   1272c:	84 1f       	adc	r24, r20
   1272e:	95 1f       	adc	r25, r21
   12730:	a0 1d       	adc	r26, r0
   12732:	08 95       	ret

00012734 <_exit>:
   12734:	f8 94       	cli

00012736 <__stop_program>:
   12736:	ff cf       	rjmp	.-2      	; 0x12736 <__stop_program>
