
Node2.elf:     file format elf32-avr

Sections:
Idx Name          Size      VMA       LMA       File off  Algn
  0 .data         000000f6  00800200  00000ef8  00000f8c  2**0
                  CONTENTS, ALLOC, LOAD, DATA
  1 .text         00000ef8  00000000  00000000  00000094  2**1
                  CONTENTS, ALLOC, LOAD, READONLY, CODE
  2 .bss          00000037  008002f6  008002f6  00001082  2**0
                  ALLOC
  3 .comment      0000005c  00000000  00000000  00001082  2**0
                  CONTENTS, READONLY
  4 .debug_aranges 00000238  00000000  00000000  000010de  2**0
                  CONTENTS, READONLY, DEBUGGING
  5 .debug_info   000017e8  00000000  00000000  00001316  2**0
                  CONTENTS, READONLY, DEBUGGING
  6 .debug_abbrev 00000c24  00000000  00000000  00002afe  2**0
                  CONTENTS, READONLY, DEBUGGING
  7 .debug_line   00001165  00000000  00000000  00003722  2**0
                  CONTENTS, READONLY, DEBUGGING
  8 .debug_frame  00000548  00000000  00000000  00004888  2**2
                  CONTENTS, READONLY, DEBUGGING
  9 .debug_str    00000604  00000000  00000000  00004dd0  2**0
                  CONTENTS, READONLY, DEBUGGING
 10 .debug_loc    00000b86  00000000  00000000  000053d4  2**0
                  CONTENTS, READONLY, DEBUGGING
 11 .debug_ranges 000001a8  00000000  00000000  00005f5a  2**0
                  CONTENTS, READONLY, DEBUGGING

Disassembly of section .text:

00000000 <__vectors>:
   0:	c2 c0       	rjmp	.+388    	; 0x186 <__ctors_end>
   2:	00 00       	nop
   4:	45 c2       	rjmp	.+1162   	; 0x490 <__vector_1>
   6:	00 00       	nop
   8:	dd c0       	rjmp	.+442    	; 0x1c4 <__bad_interrupt>
   a:	00 00       	nop
   c:	db c0       	rjmp	.+438    	; 0x1c4 <__bad_interrupt>
   e:	00 00       	nop
  10:	d9 c0       	rjmp	.+434    	; 0x1c4 <__bad_interrupt>
  12:	00 00       	nop
  14:	d7 c0       	rjmp	.+430    	; 0x1c4 <__bad_interrupt>
  16:	00 00       	nop
  18:	d5 c0       	rjmp	.+426    	; 0x1c4 <__bad_interrupt>
  1a:	00 00       	nop
  1c:	d3 c0       	rjmp	.+422    	; 0x1c4 <__bad_interrupt>
  1e:	00 00       	nop
  20:	d1 c0       	rjmp	.+418    	; 0x1c4 <__bad_interrupt>
  22:	00 00       	nop
  24:	cf c0       	rjmp	.+414    	; 0x1c4 <__bad_interrupt>
  26:	00 00       	nop
  28:	cd c0       	rjmp	.+410    	; 0x1c4 <__bad_interrupt>
  2a:	00 00       	nop
  2c:	cb c0       	rjmp	.+406    	; 0x1c4 <__bad_interrupt>
  2e:	00 00       	nop
  30:	c9 c0       	rjmp	.+402    	; 0x1c4 <__bad_interrupt>
  32:	00 00       	nop
  34:	c7 c0       	rjmp	.+398    	; 0x1c4 <__bad_interrupt>
  36:	00 00       	nop
  38:	c5 c0       	rjmp	.+394    	; 0x1c4 <__bad_interrupt>
  3a:	00 00       	nop
  3c:	c3 c0       	rjmp	.+390    	; 0x1c4 <__bad_interrupt>
  3e:	00 00       	nop
  40:	c1 c0       	rjmp	.+386    	; 0x1c4 <__bad_interrupt>
  42:	00 00       	nop
  44:	bf c0       	rjmp	.+382    	; 0x1c4 <__bad_interrupt>
  46:	00 00       	nop
  48:	bd c0       	rjmp	.+378    	; 0x1c4 <__bad_interrupt>
  4a:	00 00       	nop
  4c:	bb c0       	rjmp	.+374    	; 0x1c4 <__bad_interrupt>
  4e:	00 00       	nop
  50:	b9 c0       	rjmp	.+370    	; 0x1c4 <__bad_interrupt>
  52:	00 00       	nop
  54:	b7 c0       	rjmp	.+366    	; 0x1c4 <__bad_interrupt>
  56:	00 00       	nop
  58:	b5 c0       	rjmp	.+362    	; 0x1c4 <__bad_interrupt>
  5a:	00 00       	nop
  5c:	b3 c0       	rjmp	.+358    	; 0x1c4 <__bad_interrupt>
  5e:	00 00       	nop
  60:	b1 c0       	rjmp	.+354    	; 0x1c4 <__bad_interrupt>
  62:	00 00       	nop
  64:	af c0       	rjmp	.+350    	; 0x1c4 <__bad_interrupt>
  66:	00 00       	nop
  68:	ad c0       	rjmp	.+346    	; 0x1c4 <__bad_interrupt>
  6a:	00 00       	nop
  6c:	ab c0       	rjmp	.+342    	; 0x1c4 <__bad_interrupt>
  6e:	00 00       	nop
  70:	a9 c0       	rjmp	.+338    	; 0x1c4 <__bad_interrupt>
  72:	00 00       	nop
  74:	a7 c0       	rjmp	.+334    	; 0x1c4 <__bad_interrupt>
  76:	00 00       	nop
  78:	a5 c0       	rjmp	.+330    	; 0x1c4 <__bad_interrupt>
  7a:	00 00       	nop
  7c:	a3 c0       	rjmp	.+326    	; 0x1c4 <__bad_interrupt>
  7e:	00 00       	nop
  80:	a1 c0       	rjmp	.+322    	; 0x1c4 <__bad_interrupt>
  82:	00 00       	nop
  84:	9f c0       	rjmp	.+318    	; 0x1c4 <__bad_interrupt>
  86:	00 00       	nop
  88:	9d c0       	rjmp	.+314    	; 0x1c4 <__bad_interrupt>
  8a:	00 00       	nop
  8c:	9b c0       	rjmp	.+310    	; 0x1c4 <__bad_interrupt>
  8e:	00 00       	nop
  90:	99 c0       	rjmp	.+306    	; 0x1c4 <__bad_interrupt>
  92:	00 00       	nop
  94:	97 c0       	rjmp	.+302    	; 0x1c4 <__bad_interrupt>
  96:	00 00       	nop
  98:	95 c0       	rjmp	.+298    	; 0x1c4 <__bad_interrupt>
  9a:	00 00       	nop
  9c:	a9 c3       	rjmp	.+1874   	; 0x7f0 <__vector_39>
  9e:	00 00       	nop
  a0:	91 c0       	rjmp	.+290    	; 0x1c4 <__bad_interrupt>
  a2:	00 00       	nop
  a4:	8f c0       	rjmp	.+286    	; 0x1c4 <__bad_interrupt>
  a6:	00 00       	nop
  a8:	8d c0       	rjmp	.+282    	; 0x1c4 <__bad_interrupt>
  aa:	00 00       	nop
  ac:	8b c0       	rjmp	.+278    	; 0x1c4 <__bad_interrupt>
  ae:	00 00       	nop
  b0:	89 c0       	rjmp	.+274    	; 0x1c4 <__bad_interrupt>
  b2:	00 00       	nop
  b4:	87 c0       	rjmp	.+270    	; 0x1c4 <__bad_interrupt>
  b6:	00 00       	nop
  b8:	85 c0       	rjmp	.+266    	; 0x1c4 <__bad_interrupt>
  ba:	00 00       	nop
  bc:	83 c0       	rjmp	.+262    	; 0x1c4 <__bad_interrupt>
  be:	00 00       	nop
  c0:	81 c0       	rjmp	.+258    	; 0x1c4 <__bad_interrupt>
  c2:	00 00       	nop
  c4:	7f c0       	rjmp	.+254    	; 0x1c4 <__bad_interrupt>
  c6:	00 00       	nop
  c8:	7d c0       	rjmp	.+250    	; 0x1c4 <__bad_interrupt>
  ca:	00 00       	nop
  cc:	7b c0       	rjmp	.+246    	; 0x1c4 <__bad_interrupt>
  ce:	00 00       	nop
  d0:	79 c0       	rjmp	.+242    	; 0x1c4 <__bad_interrupt>
  d2:	00 00       	nop
  d4:	77 c0       	rjmp	.+238    	; 0x1c4 <__bad_interrupt>
  d6:	00 00       	nop
  d8:	75 c0       	rjmp	.+234    	; 0x1c4 <__bad_interrupt>
  da:	00 00       	nop
  dc:	73 c0       	rjmp	.+230    	; 0x1c4 <__bad_interrupt>
  de:	00 00       	nop
  e0:	71 c0       	rjmp	.+226    	; 0x1c4 <__bad_interrupt>
  e2:	00 00       	nop
  e4:	13 04       	cpc	r1, r3
  e6:	65 04       	cpc	r6, r5
  e8:	65 04       	cpc	r6, r5
  ea:	65 04       	cpc	r6, r5
  ec:	65 04       	cpc	r6, r5
  ee:	65 04       	cpc	r6, r5
  f0:	65 04       	cpc	r6, r5
  f2:	65 04       	cpc	r6, r5
  f4:	13 04       	cpc	r1, r3
  f6:	65 04       	cpc	r6, r5
  f8:	65 04       	cpc	r6, r5
  fa:	65 04       	cpc	r6, r5
  fc:	65 04       	cpc	r6, r5
  fe:	65 04       	cpc	r6, r5
 100:	65 04       	cpc	r6, r5
 102:	65 04       	cpc	r6, r5
 104:	15 04       	cpc	r1, r5
 106:	65 04       	cpc	r6, r5
 108:	65 04       	cpc	r6, r5
 10a:	65 04       	cpc	r6, r5
 10c:	65 04       	cpc	r6, r5
 10e:	65 04       	cpc	r6, r5
 110:	65 04       	cpc	r6, r5
 112:	65 04       	cpc	r6, r5
 114:	65 04       	cpc	r6, r5
 116:	65 04       	cpc	r6, r5
 118:	65 04       	cpc	r6, r5
 11a:	65 04       	cpc	r6, r5
 11c:	65 04       	cpc	r6, r5
 11e:	65 04       	cpc	r6, r5
 120:	65 04       	cpc	r6, r5
 122:	65 04       	cpc	r6, r5
 124:	15 04       	cpc	r1, r5
 126:	65 04       	cpc	r6, r5
 128:	65 04       	cpc	r6, r5
 12a:	65 04       	cpc	r6, r5
 12c:	65 04       	cpc	r6, r5
 12e:	65 04       	cpc	r6, r5
 130:	65 04       	cpc	r6, r5
 132:	65 04       	cpc	r6, r5
 134:	65 04       	cpc	r6, r5
 136:	65 04       	cpc	r6, r5
 138:	65 04       	cpc	r6, r5
 13a:	65 04       	cpc	r6, r5
 13c:	65 04       	cpc	r6, r5
 13e:	65 04       	cpc	r6, r5
 140:	65 04       	cpc	r6, r5
 142:	65 04       	cpc	r6, r5
 144:	61 04       	cpc	r6, r1
 146:	65 04       	cpc	r6, r5
 148:	65 04       	cpc	r6, r5
 14a:	65 04       	cpc	r6, r5
 14c:	65 04       	cpc	r6, r5
 14e:	65 04       	cpc	r6, r5
 150:	65 04       	cpc	r6, r5
 152:	65 04       	cpc	r6, r5
 154:	3e 04       	cpc	r3, r14
 156:	65 04       	cpc	r6, r5
 158:	65 04       	cpc	r6, r5
 15a:	65 04       	cpc	r6, r5
 15c:	65 04       	cpc	r6, r5
 15e:	65 04       	cpc	r6, r5
 160:	65 04       	cpc	r6, r5
 162:	65 04       	cpc	r6, r5
 164:	65 04       	cpc	r6, r5
 166:	65 04       	cpc	r6, r5
 168:	65 04       	cpc	r6, r5
 16a:	65 04       	cpc	r6, r5
 16c:	65 04       	cpc	r6, r5
 16e:	65 04       	cpc	r6, r5
 170:	65 04       	cpc	r6, r5
 172:	65 04       	cpc	r6, r5
 174:	32 04       	cpc	r3, r2
 176:	65 04       	cpc	r6, r5
 178:	65 04       	cpc	r6, r5
 17a:	65 04       	cpc	r6, r5
 17c:	65 04       	cpc	r6, r5
 17e:	65 04       	cpc	r6, r5
 180:	65 04       	cpc	r6, r5
 182:	65 04       	cpc	r6, r5
 184:	50 04       	cpc	r5, r0

00000186 <__ctors_end>:
 186:	11 24       	eor	r1, r1
 188:	1f be       	out	0x3f, r1	; 63
 18a:	cf ef       	ldi	r28, 0xFF	; 255
 18c:	d1 e2       	ldi	r29, 0x21	; 33
 18e:	de bf       	out	0x3e, r29	; 62
 190:	cd bf       	out	0x3d, r28	; 61
 192:	00 e0       	ldi	r16, 0x00	; 0
 194:	0c bf       	out	0x3c, r16	; 60

00000196 <__do_copy_data>:
 196:	12 e0       	ldi	r17, 0x02	; 2
 198:	a0 e0       	ldi	r26, 0x00	; 0
 19a:	b2 e0       	ldi	r27, 0x02	; 2
 19c:	e8 ef       	ldi	r30, 0xF8	; 248
 19e:	fe e0       	ldi	r31, 0x0E	; 14
 1a0:	00 e0       	ldi	r16, 0x00	; 0
 1a2:	0b bf       	out	0x3b, r16	; 59
 1a4:	02 c0       	rjmp	.+4      	; 0x1aa <__do_copy_data+0x14>
 1a6:	07 90       	elpm	r0, Z+
 1a8:	0d 92       	st	X+, r0
 1aa:	a6 3f       	cpi	r26, 0xF6	; 246
 1ac:	b1 07       	cpc	r27, r17
 1ae:	d9 f7       	brne	.-10     	; 0x1a6 <__do_copy_data+0x10>

000001b0 <__do_clear_bss>:
 1b0:	23 e0       	ldi	r18, 0x03	; 3
 1b2:	a6 ef       	ldi	r26, 0xF6	; 246
 1b4:	b2 e0       	ldi	r27, 0x02	; 2
 1b6:	01 c0       	rjmp	.+2      	; 0x1ba <.do_clear_bss_start>

000001b8 <.do_clear_bss_loop>:
 1b8:	1d 92       	st	X+, r1

000001ba <.do_clear_bss_start>:
 1ba:	ad 32       	cpi	r26, 0x2D	; 45
 1bc:	b2 07       	cpc	r27, r18
 1be:	e1 f7       	brne	.-8      	; 0x1b8 <.do_clear_bss_loop>
 1c0:	e8 d2       	rcall	.+1488   	; 0x792 <main>
 1c2:	98 c6       	rjmp	.+3376   	; 0xef4 <_exit>

000001c4 <__bad_interrupt>:
 1c4:	1d cf       	rjmp	.-454    	; 0x0 <__vectors>

000001c6 <adc_init>:
#include <util/delay.h>
#include "adc_driver.h"


void adc_init(){
	ADCSRA	|= (1 << ADEN) | (1 << ADPS0) | (1 << ADPS1) | (1 << ADPS2);
 1c6:	ea e7       	ldi	r30, 0x7A	; 122
 1c8:	f0 e0       	ldi	r31, 0x00	; 0
 1ca:	80 81       	ld	r24, Z
 1cc:	87 68       	ori	r24, 0x87	; 135
 1ce:	80 83       	st	Z, r24
	ADMUX	|= (1<<REFS0);
 1d0:	ec e7       	ldi	r30, 0x7C	; 124
 1d2:	f0 e0       	ldi	r31, 0x00	; 0
 1d4:	80 81       	ld	r24, Z
 1d6:	80 64       	ori	r24, 0x40	; 64
 1d8:	80 83       	st	Z, r24
	ADMUX	&= ~(1<<REFS1); 
 1da:	80 81       	ld	r24, Z
 1dc:	8f 77       	andi	r24, 0x7F	; 127
 1de:	80 83       	st	Z, r24
 1e0:	08 95       	ret

000001e2 <adc_read>:
}

uint16_t adc_read(uint8_t channel){
	ADMUX	|= ((1<<channel) & 0x03);
 1e2:	ec e7       	ldi	r30, 0x7C	; 124
 1e4:	f0 e0       	ldi	r31, 0x00	; 0
 1e6:	90 81       	ld	r25, Z
 1e8:	21 e0       	ldi	r18, 0x01	; 1
 1ea:	30 e0       	ldi	r19, 0x00	; 0
 1ec:	02 c0       	rjmp	.+4      	; 0x1f2 <adc_read+0x10>
 1ee:	22 0f       	add	r18, r18
 1f0:	33 1f       	adc	r19, r19
 1f2:	8a 95       	dec	r24
 1f4:	e2 f7       	brpl	.-8      	; 0x1ee <adc_read+0xc>
 1f6:	23 70       	andi	r18, 0x03	; 3
 1f8:	92 2b       	or	r25, r18
 1fa:	90 83       	st	Z, r25
	ADCSRA	|= (1 << ADSC);
 1fc:	ea e7       	ldi	r30, 0x7A	; 122
 1fe:	f0 e0       	ldi	r31, 0x00	; 0
 200:	80 81       	ld	r24, Z
 202:	80 64       	ori	r24, 0x40	; 64
 204:	80 83       	st	Z, r24

	while((ADCSRA & (1<<ADSC))){ ; }
 206:	80 81       	ld	r24, Z
 208:	86 fd       	sbrc	r24, 6
 20a:	fd cf       	rjmp	.-6      	; 0x206 <adc_read+0x24>

	return ADC;
 20c:	80 91 78 00 	lds	r24, 0x0078
 210:	90 91 79 00 	lds	r25, 0x0079
}
 214:	08 95       	ret

00000216 <can_init>:
	#else
		//round up by default
		__ticks_dc = (uint32_t)(ceil(fabs(__tmp)));
	#endif

	__builtin_avr_delay_cycles(__ticks_dc);
 216:	e7 d1       	rcall	.+974    	; 0x5e6 <mcp2515_init>
 218:	8f e0       	ldi	r24, 0x0F	; 15
 21a:	d8 d1       	rcall	.+944    	; 0x5cc <mcp2515_read>
 21c:	1f 92       	push	r1
 21e:	8f 93       	push	r24
 220:	8f e0       	ldi	r24, 0x0F	; 15
 222:	92 e0       	ldi	r25, 0x02	; 2
 224:	9f 93       	push	r25
 226:	8f 93       	push	r24
 228:	93 d3       	rcall	.+1830   	; 0x950 <printf>
 22a:	4f ef       	ldi	r20, 0xFF	; 255
 22c:	60 e6       	ldi	r22, 0x60	; 96
 22e:	80 e6       	ldi	r24, 0x60	; 96
 230:	b4 d1       	rcall	.+872    	; 0x59a <mcp2515_bit_modify>
 232:	40 e0       	ldi	r20, 0x00	; 0
 234:	64 e0       	ldi	r22, 0x04	; 4
 236:	80 e6       	ldi	r24, 0x60	; 96
 238:	b0 d1       	rcall	.+864    	; 0x59a <mcp2515_bit_modify>
 23a:	4f ef       	ldi	r20, 0xFF	; 255
 23c:	61 e0       	ldi	r22, 0x01	; 1
 23e:	8b e2       	ldi	r24, 0x2B	; 43
 240:	ac d1       	rcall	.+856    	; 0x59a <mcp2515_bit_modify>
 242:	40 e0       	ldi	r20, 0x00	; 0
 244:	60 ee       	ldi	r22, 0xE0	; 224
 246:	8f e0       	ldi	r24, 0x0F	; 15
 248:	a8 d1       	rcall	.+848    	; 0x59a <mcp2515_bit_modify>
 24a:	0f 90       	pop	r0
 24c:	0f 90       	pop	r0
 24e:	0f 90       	pop	r0
 250:	0f 90       	pop	r0
 252:	08 95       	ret

00000254 <can_transmit_complete>:
 254:	80 e3       	ldi	r24, 0x30	; 48
 256:	ba d1       	rcall	.+884    	; 0x5cc <mcp2515_read>
 258:	86 95       	lsr	r24
 25a:	86 95       	lsr	r24
 25c:	86 95       	lsr	r24
 25e:	91 e0       	ldi	r25, 0x01	; 1
 260:	89 27       	eor	r24, r25
 262:	81 70       	andi	r24, 0x01	; 1
 264:	90 e0       	ldi	r25, 0x00	; 0
 266:	08 95       	ret

00000268 <can_message_send>:
 268:	1f 93       	push	r17
 26a:	cf 93       	push	r28
 26c:	df 93       	push	r29
 26e:	ec 01       	movw	r28, r24
 270:	f1 df       	rcall	.-30     	; 0x254 <can_transmit_complete>
 272:	89 2b       	or	r24, r25
 274:	e9 f3       	breq	.-6      	; 0x270 <can_message_send+0x8>
 276:	68 81       	ld	r22, Y
 278:	79 81       	ldd	r23, Y+1	; 0x01
 27a:	75 95       	asr	r23
 27c:	67 95       	ror	r22
 27e:	75 95       	asr	r23
 280:	67 95       	ror	r22
 282:	75 95       	asr	r23
 284:	67 95       	ror	r22
 286:	81 e3       	ldi	r24, 0x31	; 49
 288:	6c d1       	rcall	.+728    	; 0x562 <mcp2515_write>
 28a:	68 81       	ld	r22, Y
 28c:	79 81       	ldd	r23, Y+1	; 0x01
 28e:	66 0f       	add	r22, r22
 290:	77 1f       	adc	r23, r23
 292:	62 95       	swap	r22
 294:	72 95       	swap	r23
 296:	70 7f       	andi	r23, 0xF0	; 240
 298:	76 27       	eor	r23, r22
 29a:	60 7f       	andi	r22, 0xF0	; 240
 29c:	76 27       	eor	r23, r22
 29e:	82 e3       	ldi	r24, 0x32	; 50
 2a0:	60 d1       	rcall	.+704    	; 0x562 <mcp2515_write>
 2a2:	6a 81       	ldd	r22, Y+2	; 0x02
 2a4:	6f 70       	andi	r22, 0x0F	; 15
 2a6:	85 e3       	ldi	r24, 0x35	; 53
 2a8:	5c d1       	rcall	.+696    	; 0x562 <mcp2515_write>
 2aa:	8a 81       	ldd	r24, Y+2	; 0x02
 2ac:	88 23       	and	r24, r24
 2ae:	61 f0       	breq	.+24     	; 0x2c8 <can_message_send+0x60>
 2b0:	10 e0       	ldi	r17, 0x00	; 0
 2b2:	fe 01       	movw	r30, r28
 2b4:	e1 0f       	add	r30, r17
 2b6:	f1 1d       	adc	r31, r1
 2b8:	63 81       	ldd	r22, Z+3	; 0x03
 2ba:	86 e3       	ldi	r24, 0x36	; 54
 2bc:	81 0f       	add	r24, r17
 2be:	51 d1       	rcall	.+674    	; 0x562 <mcp2515_write>
 2c0:	1f 5f       	subi	r17, 0xFF	; 255
 2c2:	8a 81       	ldd	r24, Y+2	; 0x02
 2c4:	18 17       	cp	r17, r24
 2c6:	a8 f3       	brcs	.-22     	; 0x2b2 <can_message_send+0x4a>
 2c8:	81 e0       	ldi	r24, 0x01	; 1
 2ca:	5a d1       	rcall	.+692    	; 0x580 <mcp2515_request_to_send>
 2cc:	df 91       	pop	r29
 2ce:	cf 91       	pop	r28
 2d0:	1f 91       	pop	r17
 2d2:	08 95       	ret

000002d4 <can_data_receive>:
 2d4:	9f 92       	push	r9
 2d6:	af 92       	push	r10
 2d8:	bf 92       	push	r11
 2da:	cf 92       	push	r12
 2dc:	df 92       	push	r13
 2de:	ef 92       	push	r14
 2e0:	ff 92       	push	r15
 2e2:	0f 93       	push	r16
 2e4:	1f 93       	push	r17
 2e6:	cf 93       	push	r28
 2e8:	df 93       	push	r29
 2ea:	cd b7       	in	r28, 0x3d	; 61
 2ec:	de b7       	in	r29, 0x3e	; 62
 2ee:	2b 97       	sbiw	r28, 0x0b	; 11
 2f0:	0f b6       	in	r0, 0x3f	; 63
 2f2:	f8 94       	cli
 2f4:	de bf       	out	0x3e, r29	; 62
 2f6:	0f be       	out	0x3f, r0	; 63
 2f8:	cd bf       	out	0x3d, r28	; 61
 2fa:	7c 01       	movw	r14, r24
 2fc:	8c e2       	ldi	r24, 0x2C	; 44
 2fe:	66 d1       	rcall	.+716    	; 0x5cc <mcp2515_read>
 300:	80 ff       	sbrs	r24, 0
 302:	30 c0       	rjmp	.+96     	; 0x364 <can_data_receive+0x90>
 304:	81 e6       	ldi	r24, 0x61	; 97
 306:	62 d1       	rcall	.+708    	; 0x5cc <mcp2515_read>
 308:	c8 2e       	mov	r12, r24
 30a:	82 e6       	ldi	r24, 0x62	; 98
 30c:	5f d1       	rcall	.+702    	; 0x5cc <mcp2515_read>
 30e:	82 95       	swap	r24
 310:	86 95       	lsr	r24
 312:	87 70       	andi	r24, 0x07	; 7
 314:	d1 2c       	mov	r13, r1
 316:	cc 0c       	add	r12, r12
 318:	dd 1c       	adc	r13, r13
 31a:	cc 0c       	add	r12, r12
 31c:	dd 1c       	adc	r13, r13
 31e:	cc 0c       	add	r12, r12
 320:	dd 1c       	adc	r13, r13
 322:	c8 2a       	or	r12, r24
 324:	85 e6       	ldi	r24, 0x65	; 101
 326:	52 d1       	rcall	.+676    	; 0x5cc <mcp2515_read>
 328:	8f 70       	andi	r24, 0x0F	; 15
 32a:	98 2e       	mov	r9, r24
 32c:	a1 f0       	breq	.+40     	; 0x356 <can_data_receive+0x82>
 32e:	8e 01       	movw	r16, r28
 330:	0c 5f       	subi	r16, 0xFC	; 252
 332:	1f 4f       	sbci	r17, 0xFF	; 255
 334:	0f 2e       	mov	r0, r31
 336:	f6 e6       	ldi	r31, 0x66	; 102
 338:	af 2e       	mov	r10, r31
 33a:	f0 2d       	mov	r31, r0
 33c:	a8 0e       	add	r10, r24
 33e:	0f 2e       	mov	r0, r31
 340:	f6 e6       	ldi	r31, 0x66	; 102
 342:	bf 2e       	mov	r11, r31
 344:	f0 2d       	mov	r31, r0
 346:	8b 2d       	mov	r24, r11
 348:	41 d1       	rcall	.+642    	; 0x5cc <mcp2515_read>
 34a:	f8 01       	movw	r30, r16
 34c:	81 93       	st	Z+, r24
 34e:	8f 01       	movw	r16, r30
 350:	b3 94       	inc	r11
 352:	ba 10       	cpse	r11, r10
 354:	f8 cf       	rjmp	.-16     	; 0x346 <can_data_receive+0x72>
 356:	10 92 26 03 	sts	0x0326, r1
 35a:	40 e0       	ldi	r20, 0x00	; 0
 35c:	61 e0       	ldi	r22, 0x01	; 1
 35e:	8c e2       	ldi	r24, 0x2C	; 44
 360:	1c d1       	rcall	.+568    	; 0x59a <mcp2515_bit_modify>
 362:	03 c0       	rjmp	.+6      	; 0x36a <can_data_receive+0x96>
 364:	cc 24       	eor	r12, r12
 366:	ca 94       	dec	r12
 368:	dc 2c       	mov	r13, r12
 36a:	da 82       	std	Y+2, r13	; 0x02
 36c:	c9 82       	std	Y+1, r12	; 0x01
 36e:	9b 82       	std	Y+3, r9	; 0x03
 370:	8b e0       	ldi	r24, 0x0B	; 11
 372:	fe 01       	movw	r30, r28
 374:	31 96       	adiw	r30, 0x01	; 1
 376:	d7 01       	movw	r26, r14
 378:	01 90       	ld	r0, Z+
 37a:	0d 92       	st	X+, r0
 37c:	8a 95       	dec	r24
 37e:	e1 f7       	brne	.-8      	; 0x378 <can_data_receive+0xa4>
 380:	c7 01       	movw	r24, r14
 382:	2b 96       	adiw	r28, 0x0b	; 11
 384:	0f b6       	in	r0, 0x3f	; 63
 386:	f8 94       	cli
 388:	de bf       	out	0x3e, r29	; 62
 38a:	0f be       	out	0x3f, r0	; 63
 38c:	cd bf       	out	0x3d, r28	; 61
 38e:	df 91       	pop	r29
 390:	cf 91       	pop	r28
 392:	1f 91       	pop	r17
 394:	0f 91       	pop	r16
 396:	ff 90       	pop	r15
 398:	ef 90       	pop	r14
 39a:	df 90       	pop	r13
 39c:	cf 90       	pop	r12
 39e:	bf 90       	pop	r11
 3a0:	af 90       	pop	r10
 3a2:	9f 90       	pop	r9
 3a4:	08 95       	ret

000003a6 <can_print_message>:
 3a6:	ff 92       	push	r15
 3a8:	0f 93       	push	r16
 3aa:	1f 93       	push	r17
 3ac:	cf 93       	push	r28
 3ae:	df 93       	push	r29
 3b0:	ec 01       	movw	r28, r24
 3b2:	88 81       	ld	r24, Y
 3b4:	99 81       	ldd	r25, Y+1	; 0x01
 3b6:	8f 3f       	cpi	r24, 0xFF	; 255
 3b8:	2f ef       	ldi	r18, 0xFF	; 255
 3ba:	92 07       	cpc	r25, r18
 3bc:	21 f4       	brne	.+8      	; 0x3c6 <can_print_message+0x20>
 3be:	8e e2       	ldi	r24, 0x2E	; 46
 3c0:	92 e0       	ldi	r25, 0x02	; 2
 3c2:	d7 d2       	rcall	.+1454   	; 0x972 <puts>
 3c4:	3d c0       	rjmp	.+122    	; 0x440 <can_print_message+0x9a>
 3c6:	2a 81       	ldd	r18, Y+2	; 0x02
 3c8:	1f 92       	push	r1
 3ca:	2f 93       	push	r18
 3cc:	9f 93       	push	r25
 3ce:	8f 93       	push	r24
 3d0:	84 e4       	ldi	r24, 0x44	; 68
 3d2:	92 e0       	ldi	r25, 0x02	; 2
 3d4:	9f 93       	push	r25
 3d6:	8f 93       	push	r24
 3d8:	bb d2       	rcall	.+1398   	; 0x950 <printf>
 3da:	2b 81       	ldd	r18, Y+3	; 0x03
 3dc:	82 2f       	mov	r24, r18
 3de:	99 27       	eor	r25, r25
 3e0:	87 fd       	sbrc	r24, 7
 3e2:	90 95       	com	r25
 3e4:	9f 93       	push	r25
 3e6:	2f 93       	push	r18
 3e8:	86 e6       	ldi	r24, 0x66	; 102
 3ea:	92 e0       	ldi	r25, 0x02	; 2
 3ec:	9f 93       	push	r25
 3ee:	8f 93       	push	r24
 3f0:	af d2       	rcall	.+1374   	; 0x950 <printf>
 3f2:	8d b7       	in	r24, 0x3d	; 61
 3f4:	9e b7       	in	r25, 0x3e	; 62
 3f6:	0a 96       	adiw	r24, 0x0a	; 10
 3f8:	0f b6       	in	r0, 0x3f	; 63
 3fa:	f8 94       	cli
 3fc:	9e bf       	out	0x3e, r25	; 62
 3fe:	0f be       	out	0x3f, r0	; 63
 400:	8d bf       	out	0x3d, r24	; 61
 402:	8a 81       	ldd	r24, Y+2	; 0x02
 404:	82 30       	cpi	r24, 0x02	; 2
 406:	c8 f0       	brcs	.+50     	; 0x43a <can_print_message+0x94>
 408:	ff 24       	eor	r15, r15
 40a:	f3 94       	inc	r15
 40c:	09 e7       	ldi	r16, 0x79	; 121
 40e:	12 e0       	ldi	r17, 0x02	; 2
 410:	fe 01       	movw	r30, r28
 412:	ef 0d       	add	r30, r15
 414:	f1 1d       	adc	r31, r1
 416:	23 81       	ldd	r18, Z+3	; 0x03
 418:	82 2f       	mov	r24, r18
 41a:	99 27       	eor	r25, r25
 41c:	87 fd       	sbrc	r24, 7
 41e:	90 95       	com	r25
 420:	9f 93       	push	r25
 422:	2f 93       	push	r18
 424:	1f 93       	push	r17
 426:	0f 93       	push	r16
 428:	93 d2       	rcall	.+1318   	; 0x950 <printf>
 42a:	f3 94       	inc	r15
 42c:	0f 90       	pop	r0
 42e:	0f 90       	pop	r0
 430:	0f 90       	pop	r0
 432:	0f 90       	pop	r0
 434:	8a 81       	ldd	r24, Y+2	; 0x02
 436:	f8 16       	cp	r15, r24
 438:	58 f3       	brcs	.-42     	; 0x410 <can_print_message+0x6a>
 43a:	8e e7       	ldi	r24, 0x7E	; 126
 43c:	92 e0       	ldi	r25, 0x02	; 2
 43e:	99 d2       	rcall	.+1330   	; 0x972 <puts>
 440:	df 91       	pop	r29
 442:	cf 91       	pop	r28
 444:	1f 91       	pop	r17
 446:	0f 91       	pop	r16
 448:	ff 90       	pop	r15
 44a:	08 95       	ret

0000044c <can_interrupt_vector>:
 44c:	cf 93       	push	r28
 44e:	df 93       	push	r29
 450:	cd b7       	in	r28, 0x3d	; 61
 452:	de b7       	in	r29, 0x3e	; 62
 454:	2b 97       	sbiw	r28, 0x0b	; 11
 456:	0f b6       	in	r0, 0x3f	; 63
 458:	f8 94       	cli
 45a:	de bf       	out	0x3e, r29	; 62
 45c:	0f be       	out	0x3f, r0	; 63
 45e:	cd bf       	out	0x3d, r28	; 61
 460:	ce 01       	movw	r24, r28
 462:	01 96       	adiw	r24, 0x01	; 1
 464:	37 df       	rcall	.-402    	; 0x2d4 <can_data_receive>
 466:	8b e0       	ldi	r24, 0x0B	; 11
 468:	fe 01       	movw	r30, r28
 46a:	31 96       	adiw	r30, 0x01	; 1
 46c:	a1 e0       	ldi	r26, 0x01	; 1
 46e:	b3 e0       	ldi	r27, 0x03	; 3
 470:	01 90       	ld	r0, Z+
 472:	0d 92       	st	X+, r0
 474:	8a 95       	dec	r24
 476:	e1 f7       	brne	.-8      	; 0x470 <can_interrupt_vector+0x24>
 478:	81 e0       	ldi	r24, 0x01	; 1
 47a:	93 e0       	ldi	r25, 0x03	; 3
 47c:	94 df       	rcall	.-216    	; 0x3a6 <can_print_message>
 47e:	2b 96       	adiw	r28, 0x0b	; 11
 480:	0f b6       	in	r0, 0x3f	; 63
 482:	f8 94       	cli
 484:	de bf       	out	0x3e, r29	; 62
 486:	0f be       	out	0x3f, r0	; 63
 488:	cd bf       	out	0x3d, r28	; 61
 48a:	df 91       	pop	r29
 48c:	cf 91       	pop	r28
 48e:	08 95       	ret

00000490 <__vector_1>:
 490:	1f 92       	push	r1
 492:	0f 92       	push	r0
 494:	0f b6       	in	r0, 0x3f	; 63
 496:	0f 92       	push	r0
 498:	11 24       	eor	r1, r1
 49a:	0b b6       	in	r0, 0x3b	; 59
 49c:	0f 92       	push	r0
 49e:	2f 93       	push	r18
 4a0:	3f 93       	push	r19
 4a2:	4f 93       	push	r20
 4a4:	5f 93       	push	r21
 4a6:	6f 93       	push	r22
 4a8:	7f 93       	push	r23
 4aa:	8f 93       	push	r24
 4ac:	9f 93       	push	r25
 4ae:	af 93       	push	r26
 4b0:	bf 93       	push	r27
 4b2:	ef 93       	push	r30
 4b4:	ff 93       	push	r31
 4b6:	ca df       	rcall	.-108    	; 0x44c <can_interrupt_vector>
 4b8:	ff 91       	pop	r31
 4ba:	ef 91       	pop	r30
 4bc:	bf 91       	pop	r27
 4be:	af 91       	pop	r26
 4c0:	9f 91       	pop	r25
 4c2:	8f 91       	pop	r24
 4c4:	7f 91       	pop	r23
 4c6:	6f 91       	pop	r22
 4c8:	5f 91       	pop	r21
 4ca:	4f 91       	pop	r20
 4cc:	3f 91       	pop	r19
 4ce:	2f 91       	pop	r18
 4d0:	0f 90       	pop	r0
 4d2:	0b be       	out	0x3b, r0	; 59
 4d4:	0f 90       	pop	r0
 4d6:	0f be       	out	0x3f, r0	; 63
 4d8:	0f 90       	pop	r0
 4da:	1f 90       	pop	r1
 4dc:	18 95       	reti

000004de <can_handle_message>:
	}
}



void can_handle_message(){
 4de:	cf 93       	push	r28
 4e0:	df 93       	push	r29
 4e2:	cd b7       	in	r28, 0x3d	; 61
 4e4:	de b7       	in	r29, 0x3e	; 62
 4e6:	2b 97       	sbiw	r28, 0x0b	; 11
 4e8:	0f b6       	in	r0, 0x3f	; 63
 4ea:	f8 94       	cli
 4ec:	de bf       	out	0x3e, r29	; 62
 4ee:	0f be       	out	0x3f, r0	; 63
 4f0:	cd bf       	out	0x3d, r28	; 61
	static can_message_t message;
	message = can_data_receive();
 4f2:	ce 01       	movw	r24, r28
 4f4:	01 96       	adiw	r24, 0x01	; 1
 4f6:	ee de       	rcall	.-548    	; 0x2d4 <can_data_receive>
 4f8:	8b e0       	ldi	r24, 0x0B	; 11
 4fa:	fe 01       	movw	r30, r28
 4fc:	31 96       	adiw	r30, 0x01	; 1
 4fe:	a6 ef       	ldi	r26, 0xF6	; 246
 500:	b2 e0       	ldi	r27, 0x02	; 2
 502:	01 90       	ld	r0, Z+
 504:	0d 92       	st	X+, r0
 506:	8a 95       	dec	r24
 508:	e1 f7       	brne	.-8      	; 0x502 <can_handle_message+0x24>
	
	switch(message.id){
 50a:	80 91 f6 02 	lds	r24, 0x02F6
 50e:	90 91 f7 02 	lds	r25, 0x02F7
 512:	81 30       	cpi	r24, 0x01	; 1
 514:	91 05       	cpc	r25, r1
 516:	19 f0       	breq	.+6      	; 0x51e <can_handle_message+0x40>
 518:	03 97       	sbiw	r24, 0x03	; 3
 51a:	49 f0       	breq	.+18     	; 0x52e <can_handle_message+0x50>
 51c:	19 c0       	rjmp	.+50     	; 0x550 <can_handle_message+0x72>
		case JOY_CAN_ID:
			pwm_set_servo(-message.data[0]);
 51e:	80 91 f9 02 	lds	r24, 0x02F9
 522:	99 27       	eor	r25, r25
 524:	81 95       	neg	r24
 526:	0c f4       	brge	.+2      	; 0x52a <can_handle_message+0x4c>
 528:	90 95       	com	r25
 52a:	99 d0       	rcall	.+306    	; 0x65e <pwm_set_servo>
			return;
 52c:	11 c0       	rjmp	.+34     	; 0x550 <can_handle_message+0x72>
		case BUTTON_CAN_ID:
			PORTH &= ~(1<<PH3);
 52e:	e2 e0       	ldi	r30, 0x02	; 2
 530:	f1 e0       	ldi	r31, 0x01	; 1
 532:	80 81       	ld	r24, Z
 534:	87 7f       	andi	r24, 0xF7	; 247
 536:	80 83       	st	Z, r24
 538:	2f ef       	ldi	r18, 0xFF	; 255
 53a:	81 ee       	ldi	r24, 0xE1	; 225
 53c:	94 e0       	ldi	r25, 0x04	; 4
 53e:	21 50       	subi	r18, 0x01	; 1
 540:	80 40       	sbci	r24, 0x00	; 0
 542:	90 40       	sbci	r25, 0x00	; 0
 544:	e1 f7       	brne	.-8      	; 0x53e <can_handle_message+0x60>
 546:	00 c0       	rjmp	.+0      	; 0x548 <can_handle_message+0x6a>
 548:	00 00       	nop
			_delay_ms(100);
			PORTH |= (1<<PH3);
 54a:	80 81       	ld	r24, Z
 54c:	88 60       	ori	r24, 0x08	; 8
 54e:	80 83       	st	Z, r24

		
	//can_print_message(message);
	
	pwm_set_servo(-message.data[0]);
}
 550:	2b 96       	adiw	r28, 0x0b	; 11
 552:	0f b6       	in	r0, 0x3f	; 63
 554:	f8 94       	cli
 556:	de bf       	out	0x3e, r29	; 62
 558:	0f be       	out	0x3f, r0	; 63
 55a:	cd bf       	out	0x3d, r28	; 61
 55c:	df 91       	pop	r29
 55e:	cf 91       	pop	r28
 560:	08 95       	ret

00000562 <mcp2515_write>:
	} else {
		;//printf("MCP2515 is in config mode after reset\n");
	}
}

void mcp2515_write(uint8_t address, uint8_t data){
 562:	cf 93       	push	r28
 564:	df 93       	push	r29
 566:	d8 2f       	mov	r29, r24
 568:	c6 2f       	mov	r28, r22
	spi_select();
 56a:	a8 d0       	rcall	.+336    	; 0x6bc <spi_select>

	spi_send(MCP_WRITE);
 56c:	82 e0       	ldi	r24, 0x02	; 2
 56e:	9a d0       	rcall	.+308    	; 0x6a4 <spi_send>
	spi_send(address);
 570:	8d 2f       	mov	r24, r29
 572:	98 d0       	rcall	.+304    	; 0x6a4 <spi_send>
	spi_send(data);
 574:	8c 2f       	mov	r24, r28
 576:	96 d0       	rcall	.+300    	; 0x6a4 <spi_send>

	spi_deselect();
 578:	a3 d0       	rcall	.+326    	; 0x6c0 <spi_deselect>
}
 57a:	df 91       	pop	r29
 57c:	cf 91       	pop	r28
 57e:	08 95       	ret

00000580 <mcp2515_request_to_send>:

void mcp2515_request_to_send(uint8_t command){
 580:	cf 93       	push	r28
	//Check last 3 bits of given command
	if (command <= 7) {
 582:	88 30       	cpi	r24, 0x08	; 8
 584:	18 f4       	brcc	.+6      	; 0x58c <mcp2515_request_to_send+0xc>
		command = MCP_RTS | command;
 586:	c8 2f       	mov	r28, r24
 588:	c0 68       	ori	r28, 0x80	; 128
 58a:	01 c0       	rjmp	.+2      	; 0x58e <mcp2515_request_to_send+0xe>
	} else {
		command = MCP_RTS;
 58c:	c0 e8       	ldi	r28, 0x80	; 128
	}

	//Select, send RTS command, then deselect
	spi_select();
 58e:	96 d0       	rcall	.+300    	; 0x6bc <spi_select>
	spi_send(command);
 590:	8c 2f       	mov	r24, r28
 592:	88 d0       	rcall	.+272    	; 0x6a4 <spi_send>
	spi_deselect();
 594:	95 d0       	rcall	.+298    	; 0x6c0 <spi_deselect>
}
 596:	cf 91       	pop	r28
 598:	08 95       	ret

0000059a <mcp2515_bit_modify>:

void mcp2515_bit_modify(uint8_t address, uint8_t mask, uint8_t data){
 59a:	1f 93       	push	r17
 59c:	cf 93       	push	r28
 59e:	df 93       	push	r29
 5a0:	18 2f       	mov	r17, r24
 5a2:	d6 2f       	mov	r29, r22
 5a4:	c4 2f       	mov	r28, r20
	spi_select();
 5a6:	8a d0       	rcall	.+276    	; 0x6bc <spi_select>

	spi_send(MCP_BITMOD);
 5a8:	85 e0       	ldi	r24, 0x05	; 5
 5aa:	7c d0       	rcall	.+248    	; 0x6a4 <spi_send>
	spi_send(address);
 5ac:	81 2f       	mov	r24, r17
 5ae:	7a d0       	rcall	.+244    	; 0x6a4 <spi_send>
	spi_send(mask);
 5b0:	8d 2f       	mov	r24, r29
 5b2:	78 d0       	rcall	.+240    	; 0x6a4 <spi_send>
	spi_send(data);
 5b4:	8c 2f       	mov	r24, r28
 5b6:	76 d0       	rcall	.+236    	; 0x6a4 <spi_send>

	spi_deselect();
 5b8:	83 d0       	rcall	.+262    	; 0x6c0 <spi_deselect>
}
 5ba:	df 91       	pop	r29
 5bc:	cf 91       	pop	r28
 5be:	1f 91       	pop	r17
 5c0:	08 95       	ret

000005c2 <mcp2515_reset>:

void mcp2515_reset(){
	spi_select();
 5c2:	7c d0       	rcall	.+248    	; 0x6bc <spi_select>
	spi_send(MCP_RESET);	
 5c4:	80 ec       	ldi	r24, 0xC0	; 192
 5c6:	6e d0       	rcall	.+220    	; 0x6a4 <spi_send>
	spi_deselect();
 5c8:	7b c0       	rjmp	.+246    	; 0x6c0 <spi_deselect>
 5ca:	08 95       	ret

000005cc <mcp2515_read>:
}


uint8_t mcp2515_read(uint8_t address){
 5cc:	cf 93       	push	r28
 5ce:	c8 2f       	mov	r28, r24
	uint8_t result;

	spi_select();
 5d0:	75 d0       	rcall	.+234    	; 0x6bc <spi_select>
	
	//Send command and address, then read result
	spi_send(MCP_READ);
 5d2:	83 e0       	ldi	r24, 0x03	; 3
 5d4:	67 d0       	rcall	.+206    	; 0x6a4 <spi_send>
	spi_send(address);
 5d6:	8c 2f       	mov	r24, r28
 5d8:	65 d0       	rcall	.+202    	; 0x6a4 <spi_send>

	result = spi_read();
 5da:	69 d0       	rcall	.+210    	; 0x6ae <spi_read>
 5dc:	c8 2f       	mov	r28, r24
	spi_deselect();
 5de:	70 d0       	rcall	.+224    	; 0x6c0 <spi_deselect>

	return result;	
}
 5e0:	8c 2f       	mov	r24, r28
 5e2:	cf 91       	pop	r28
 5e4:	08 95       	ret

000005e6 <mcp2515_init>:
#include <util/delay.h>
#include "uart_driver.h"
#include "spi_driver.h"
#include "mcp2515_driver.h"

void mcp2515_init() {
 5e6:	cf 93       	push	r28
 5e8:	df 93       	push	r29
 5ea:	1f 92       	push	r1
 5ec:	cd b7       	in	r28, 0x3d	; 61
 5ee:	de b7       	in	r29, 0x3e	; 62
	//NO NEED, ALREADY ENABLED
	//Enable interrupt when message is recieved (RX0IE = 1)
	//mcp2515_bit_modify(MCP_CANINTE, 0x01, 0xff);

	//Start SPI driver
	spi_init();
 5f0:	51 d0       	rcall	.+162    	; 0x694 <spi_init>

	mcp2515_reset();
 5f2:	e7 df       	rcall	.-50     	; 0x5c2 <mcp2515_reset>
	
	//Testing for correct initialization
	value_check = mcp2515_read(MCP_CANSTAT);
 5f4:	8e e0       	ldi	r24, 0x0E	; 14
 5f6:	ea df       	rcall	.-44     	; 0x5cc <mcp2515_read>
 5f8:	89 83       	std	Y+1, r24	; 0x01
	
	if ((value_check & MODE_MASK) != MODE_CONFIG) {
 5fa:	89 81       	ldd	r24, Y+1	; 0x01
 5fc:	80 7e       	andi	r24, 0xE0	; 224
 5fe:	80 38       	cpi	r24, 0x80	; 128
 600:	19 f0       	breq	.+6      	; 0x608 <mcp2515_init+0x22>
		printf("MCP2515 is not in config mode after reset\n");
 602:	81 e9       	ldi	r24, 0x91	; 145
 604:	92 e0       	ldi	r25, 0x02	; 2
 606:	b5 d1       	rcall	.+874    	; 0x972 <puts>
	} else {
		;//printf("MCP2515 is in config mode after reset\n");
	}
}
 608:	0f 90       	pop	r0
 60a:	df 91       	pop	r29
 60c:	cf 91       	pop	r28
 60e:	08 95       	ret

00000610 <pwm_init>:
	ICR3 = DUTY_CYCLE_STEPS;
	pwm_set_value(MID_SERVO);
}

void pwm_set_value(uint16_t val) {
	OCR3A = val;
 610:	6b 9a       	sbi	0x0d, 3	; 13
 612:	a1 e9       	ldi	r26, 0x91	; 145
 614:	b0 e0       	ldi	r27, 0x00	; 0
 616:	8c 91       	ld	r24, X
 618:	82 60       	ori	r24, 0x02	; 2
 61a:	8c 93       	st	X, r24
 61c:	8c 91       	ld	r24, X
 61e:	8a 7f       	andi	r24, 0xFA	; 250
 620:	8c 93       	st	X, r24
 622:	e0 e9       	ldi	r30, 0x90	; 144
 624:	f0 e0       	ldi	r31, 0x00	; 0
 626:	80 81       	ld	r24, Z
 628:	82 60       	ori	r24, 0x02	; 2
 62a:	80 83       	st	Z, r24
 62c:	80 81       	ld	r24, Z
 62e:	8e 7f       	andi	r24, 0xFE	; 254
 630:	80 83       	st	Z, r24
 632:	8c 91       	ld	r24, X
 634:	88 61       	ori	r24, 0x18	; 24
 636:	8c 93       	st	X, r24
 638:	80 81       	ld	r24, Z
 63a:	80 68       	ori	r24, 0x80	; 128
 63c:	80 83       	st	Z, r24
 63e:	80 81       	ld	r24, Z
 640:	8f 7b       	andi	r24, 0xBF	; 191
 642:	80 83       	st	Z, r24
 644:	80 e4       	ldi	r24, 0x40	; 64
 646:	9c e9       	ldi	r25, 0x9C	; 156
 648:	90 93 97 00 	sts	0x0097, r25
 64c:	80 93 96 00 	sts	0x0096, r24
 650:	88 eb       	ldi	r24, 0xB8	; 184
 652:	9b e0       	ldi	r25, 0x0B	; 11
 654:	90 93 99 00 	sts	0x0099, r25
 658:	80 93 98 00 	sts	0x0098, r24
 65c:	08 95       	ret

0000065e <pwm_set_servo>:
}

void pwm_set_servo(int16_t val){
	val += 128;
 65e:	9c 01       	movw	r18, r24
 660:	20 58       	subi	r18, 0x80	; 128
 662:	3f 4f       	sbci	r19, 0xFF	; 255
	//printf("%d\n", val);
	val = (val*(VAL_SCALE/UNDERFLOW_FIX)) / 255 * UNDERFLOW_FIX + MIN_SERVO;
 664:	4b e4       	ldi	r20, 0x4B	; 75
 666:	42 9f       	mul	r20, r18
 668:	c0 01       	movw	r24, r0
 66a:	43 9f       	mul	r20, r19
 66c:	90 0d       	add	r25, r0
 66e:	11 24       	eor	r1, r1
 670:	6f ef       	ldi	r22, 0xFF	; 255
 672:	70 e0       	ldi	r23, 0x00	; 0
 674:	40 d1       	rcall	.+640    	; 0x8f6 <__divmodhi4>
 676:	66 0f       	add	r22, r22
 678:	77 1f       	adc	r23, r23
 67a:	62 95       	swap	r22
 67c:	72 95       	swap	r23
 67e:	70 7f       	andi	r23, 0xF0	; 240
 680:	76 27       	eor	r23, r22
 682:	60 7f       	andi	r22, 0xF0	; 240
 684:	76 27       	eor	r23, r22
 686:	68 5f       	subi	r22, 0xF8	; 248
 688:	78 4f       	sbci	r23, 0xF8	; 248
	ICR3 = DUTY_CYCLE_STEPS;
	pwm_set_value(MID_SERVO);
}

void pwm_set_value(uint16_t val) {
	OCR3A = val;
 68a:	70 93 99 00 	sts	0x0099, r23
 68e:	60 93 98 00 	sts	0x0098, r22
 692:	08 95       	ret

00000694 <spi_init>:
#define SPI_MISO PB3
#define SPI_SCK PB1 

void spi_init(){
	//Set MOSI, SCK and SS as output pins 	
	DDRB |= (1 << SPI_MOSI) | (1 << SPI_SCK) | (1 << SPI_SS);
 694:	84 b1       	in	r24, 0x04	; 4
 696:	87 60       	ori	r24, 0x07	; 7
 698:	84 b9       	out	0x04, r24	; 4
	
	//Set MISO as input pin
	DDRB &= ~(1 << SPI_MISO);
 69a:	23 98       	cbi	0x04, 3	; 4
	
	//Enable SPI in master mode and set clock rate fosc/16
	SPCR |= (1 << SPE) | (1 << MSTR) | (1 << SPR0);
 69c:	8c b5       	in	r24, 0x2c	; 44
 69e:	81 65       	ori	r24, 0x51	; 81
 6a0:	8c bd       	out	0x2c, r24	; 44
 6a2:	08 95       	ret

000006a4 <spi_send>:
	return SPDR;
}

void spi_send(char data){
	//Start transmission
	SPDR = data;
 6a4:	8e bd       	out	0x2e, r24	; 46
	
	//Wait for transmission, checks if register is empty 
	while(!(SPSR & (1 << SPIF)));
 6a6:	0d b4       	in	r0, 0x2d	; 45
 6a8:	07 fe       	sbrs	r0, 7
 6aa:	fd cf       	rjmp	.-6      	; 0x6a6 <spi_send+0x2>
}
 6ac:	08 95       	ret

000006ae <spi_read>:
}


uint8_t spi_read(){
	//Dummy send in order to read from slave
	spi_send(0xaa);
 6ae:	8a ea       	ldi	r24, 0xAA	; 170
 6b0:	f9 df       	rcall	.-14     	; 0x6a4 <spi_send>
	
	while(!(SPSR & (1 << SPIF)));
 6b2:	0d b4       	in	r0, 0x2d	; 45
 6b4:	07 fe       	sbrs	r0, 7
 6b6:	fd cf       	rjmp	.-6      	; 0x6b2 <spi_read+0x4>

	return SPDR;
 6b8:	8e b5       	in	r24, 0x2e	; 46
}
 6ba:	08 95       	ret

000006bc <spi_select>:
	while(!(SPSR & (1 << SPIF)));
}

void spi_select(){
	//Set !SS to 0 for selection of slave
	PORTB &= ~(1 << SPI_SS);
 6bc:	28 98       	cbi	0x05, 0	; 5
 6be:	08 95       	ret

000006c0 <spi_deselect>:
}

void spi_deselect(){
	//Set !SS to 1 for deselection of slave
	PORTB |= (1 << SPI_SS);
 6c0:	28 9a       	sbi	0x05, 0	; 5
 6c2:	08 95       	ret

000006c4 <uart_sendChar>:

}

void uart_sendChar(unsigned char data){
	//Wait for empty transmitter buffer
	while(!(UCSR0A & (1<<UDRE0)));
 6c4:	e0 ec       	ldi	r30, 0xC0	; 192
 6c6:	f0 e0       	ldi	r31, 0x00	; 0
 6c8:	90 81       	ld	r25, Z
 6ca:	95 ff       	sbrs	r25, 5
 6cc:	fd cf       	rjmp	.-6      	; 0x6c8 <uart_sendChar+0x4>
		
	//Put data into buffer, then send the data
	UDR0 = data;
 6ce:	80 93 c6 00 	sts	0x00C6, r24
 6d2:	08 95       	ret

000006d4 <uart_getChar>:
}


unsigned int uart_getChar(){
	//Wait for the data to be received 
	while(!(UCSR0A & (1<<RXC0))){}
 6d4:	e0 ec       	ldi	r30, 0xC0	; 192
 6d6:	f0 e0       	ldi	r31, 0x00	; 0
 6d8:	80 81       	ld	r24, Z
 6da:	88 23       	and	r24, r24
 6dc:	ec f7       	brge	.-6      	; 0x6d8 <uart_getChar+0x4>
	
	//Get status and the 9th bit, then data from buffer
	return UDR0;
 6de:	80 91 c6 00 	lds	r24, 0x00C6
}
 6e2:	90 e0       	ldi	r25, 0x00	; 0
 6e4:	08 95       	ret

000006e6 <uart_init>:

static FILE uart_io = FDEV_SETUP_STREAM(uart_sendChar, uart_getChar, _FDEV_SETUP_RW);

void uart_init(unsigned int ubrr){
	//Set baud rate
	UBRR0L = (unsigned int) ubrr;
 6e6:	80 93 c4 00 	sts	0x00C4, r24
	
	//Enable receiver and transmitter
	UCSR0B = (1<<RXEN0) | (1<<TXEN0);
 6ea:	88 e1       	ldi	r24, 0x18	; 24
 6ec:	80 93 c1 00 	sts	0x00C1, r24
	
	stdout = &uart_io;
 6f0:	80 e0       	ldi	r24, 0x00	; 0
 6f2:	92 e0       	ldi	r25, 0x02	; 2
 6f4:	90 93 2a 03 	sts	0x032A, r25
 6f8:	80 93 29 03 	sts	0x0329, r24
	stdin = &uart_io;
 6fc:	90 93 28 03 	sts	0x0328, r25
 700:	80 93 27 03 	sts	0x0327, r24
 704:	08 95       	ret

00000706 <ir_obstructed>:
	for (uint8_t i = 0; i < FILTER_BUFFER_SIZE; i++ ){
		ir_obstructed();
	}
}

uint8_t ir_obstructed(){
 706:	cf 93       	push	r28
 708:	df 93       	push	r29
	static uint16_t ringbuffer_filter[FILTER_BUFFER_SIZE];
	static uint8_t ringbuffer_index;

	//return adc_read(IR_CHANNEL);

	if (ringbuffer_index >= FILTER_BUFFER_SIZE - 1){
 70a:	80 91 1e 03 	lds	r24, 0x031E
 70e:	87 30       	cpi	r24, 0x07	; 7
 710:	18 f0       	brcs	.+6      	; 0x718 <ir_obstructed+0x12>
		ringbuffer_index = 0;
 712:	10 92 1e 03 	sts	0x031E, r1
 716:	03 c0       	rjmp	.+6      	; 0x71e <ir_obstructed+0x18>
	} else { ringbuffer_index++; }
 718:	8f 5f       	subi	r24, 0xFF	; 255
 71a:	80 93 1e 03 	sts	0x031E, r24
			
	ringbuffer_filter[ringbuffer_index] = adc_read(IR_CHANNEL) / FILTER_BUFFER_SIZE;
 71e:	c0 91 1e 03 	lds	r28, 0x031E
 722:	d0 e0       	ldi	r29, 0x00	; 0
 724:	80 e0       	ldi	r24, 0x00	; 0
 726:	5d dd       	rcall	.-1350   	; 0x1e2 <adc_read>
 728:	cc 0f       	add	r28, r28
 72a:	dd 1f       	adc	r29, r29
 72c:	c2 5f       	subi	r28, 0xF2	; 242
 72e:	dc 4f       	sbci	r29, 0xFC	; 252
 730:	96 95       	lsr	r25
 732:	87 95       	ror	r24
 734:	96 95       	lsr	r25
 736:	87 95       	ror	r24
 738:	96 95       	lsr	r25
 73a:	87 95       	ror	r24
 73c:	99 83       	std	Y+1, r25	; 0x01
 73e:	88 83       	st	Y, r24
 740:	ee e0       	ldi	r30, 0x0E	; 14
 742:	f3 e0       	ldi	r31, 0x03	; 3
 744:	4e e1       	ldi	r20, 0x1E	; 30
 746:	53 e0       	ldi	r21, 0x03	; 3



	uint16_t avg = 0;
 748:	20 e0       	ldi	r18, 0x00	; 0
 74a:	30 e0       	ldi	r19, 0x00	; 0
	for (uint8_t i = 0; i < FILTER_BUFFER_SIZE; i++) {
		avg += ringbuffer_filter[i] ;
 74c:	81 91       	ld	r24, Z+
 74e:	91 91       	ld	r25, Z+
 750:	28 0f       	add	r18, r24
 752:	39 1f       	adc	r19, r25
	ringbuffer_filter[ringbuffer_index] = adc_read(IR_CHANNEL) / FILTER_BUFFER_SIZE;



	uint16_t avg = 0;
	for (uint8_t i = 0; i < FILTER_BUFFER_SIZE; i++) {
 754:	e4 17       	cp	r30, r20
 756:	f5 07       	cpc	r31, r21
 758:	c9 f7       	brne	.-14     	; 0x74c <ir_obstructed+0x46>
	}
	printf(" ]\n");*/
	/*printf("avg:  %d\n",avg);
	printf("read: %d\n\n",adc_read(0));*/
	
	if (avg < FILTER_THRESHOLD) {
 75a:	81 e0       	ldi	r24, 0x01	; 1
 75c:	24 3b       	cpi	r18, 0xB4	; 180
 75e:	31 05       	cpc	r19, r1
 760:	08 f0       	brcs	.+2      	; 0x764 <ir_obstructed+0x5e>
 762:	80 e0       	ldi	r24, 0x00	; 0
		return 1;
	}

	return 0;
}
 764:	df 91       	pop	r29
 766:	cf 91       	pop	r28
 768:	08 95       	ret

0000076a <ir_filter_init>:
#include "Drivers/uart_driver.h"

#define FILTER_THRESHOLD 180
#define FILTER_BUFFER_SIZE 8

void ir_filter_init() {
 76a:	cf 93       	push	r28
 76c:	c8 e0       	ldi	r28, 0x08	; 8
	for (uint8_t i = 0; i < FILTER_BUFFER_SIZE; i++ ){
		ir_obstructed();
 76e:	cb df       	rcall	.-106    	; 0x706 <ir_obstructed>
 770:	c1 50       	subi	r28, 0x01	; 1

#define FILTER_THRESHOLD 180
#define FILTER_BUFFER_SIZE 8

void ir_filter_init() {
	for (uint8_t i = 0; i < FILTER_BUFFER_SIZE; i++ ){
 772:	e9 f7       	brne	.-6      	; 0x76e <ir_filter_init+0x4>
		ir_obstructed();
	}
}
 774:	cf 91       	pop	r28
 776:	08 95       	ret

00000778 <ir_edge_detected>:
}

uint8_t ir_edge_detected() {
	static uint8_t last;
	static uint8_t current;
	current = ir_obstructed();
 778:	c6 df       	rcall	.-116    	; 0x706 <ir_obstructed>
 77a:	80 93 0d 03 	sts	0x030D, r24
	if (last != current){
 77e:	90 91 0c 03 	lds	r25, 0x030C
 782:	89 17       	cp	r24, r25
 784:	21 f0       	breq	.+8      	; 0x78e <ir_edge_detected+0x16>
		last = current;
 786:	80 93 0c 03 	sts	0x030C, r24
		return 1;
 78a:	81 e0       	ldi	r24, 0x01	; 1
 78c:	08 95       	ret
	}
	return 0;
 78e:	80 e0       	ldi	r24, 0x00	; 0
 790:	08 95       	ret

00000792 <main>:
#include "Drivers/pwm_driver.h"
#include "Drivers/adc_driver.h"
#include "ir.h"
#include "test_node_2.h"

int main(void){
 792:	cf 93       	push	r28
 794:	df 93       	push	r29
 796:	cd b7       	in	r28, 0x3d	; 61
 798:	de b7       	in	r29, 0x3e	; 62
 79a:	2b 97       	sbiw	r28, 0x0b	; 11
 79c:	0f b6       	in	r0, 0x3f	; 63
 79e:	f8 94       	cli
 7a0:	de bf       	out	0x3e, r29	; 62
 7a2:	0f be       	out	0x3f, r0	; 63
 7a4:	cd bf       	out	0x3d, r28	; 61
	uart_init(MYUBRR);
 7a6:	87 e6       	ldi	r24, 0x67	; 103
 7a8:	90 e0       	ldi	r25, 0x00	; 0
 7aa:	9d df       	rcall	.-198    	; 0x6e6 <uart_init>
	can_init();
 7ac:	34 dd       	rcall	.-1432   	; 0x216 <can_init>
	pwm_init();
 7ae:	30 df       	rcall	.-416    	; 0x610 <pwm_init>
	printf("ir\n");
 7b0:	82 ef       	ldi	r24, 0xF2	; 242
 7b2:	92 e0       	ldi	r25, 0x02	; 2
 7b4:	de d0       	rcall	.+444    	; 0x972 <puts>
	adc_init();
 7b6:	07 dd       	rcall	.-1522   	; 0x1c6 <adc_init>
	ir_filter_init();
 7b8:	d8 df       	rcall	.-80     	; 0x76a <ir_filter_init>
	//pwm_test();
	//can_test();
	
	DDRH |= (1<<PH3);
 7ba:	e1 e0       	ldi	r30, 0x01	; 1
 7bc:	f1 e0       	ldi	r31, 0x01	; 1
 7be:	80 81       	ld	r24, Z
 7c0:	88 60       	ori	r24, 0x08	; 8
 7c2:	80 83       	st	Z, r24

	can_message_t ir_message;
	ir_message.length = 1;
 7c4:	81 e0       	ldi	r24, 0x01	; 1
 7c6:	8b 83       	std	Y+3, r24	; 0x03
	ir_message.id = IR_CAN_ID;
 7c8:	82 e0       	ldi	r24, 0x02	; 2
 7ca:	90 e0       	ldi	r25, 0x00	; 0
 7cc:	9a 83       	std	Y+2, r25	; 0x02
 7ce:	89 83       	std	Y+1, r24	; 0x01
	while(1){
		can_handle_message();
 7d0:	86 de       	rcall	.-756    	; 0x4de <can_handle_message>
		//pwm_set_value(150);
		//printf("%d\n", TCNT3);
		//_delay_ms(8);
		if (ir_edge_detected()){
 7d2:	d2 df       	rcall	.-92     	; 0x778 <ir_edge_detected>
 7d4:	88 23       	and	r24, r24
 7d6:	29 f0       	breq	.+10     	; 0x7e2 <main+0x50>
			ir_message.data[0] = ir_obstructed();
 7d8:	96 df       	rcall	.-212    	; 0x706 <ir_obstructed>
 7da:	8c 83       	std	Y+4, r24	; 0x04
			can_message_send(&ir_message);
 7dc:	ce 01       	movw	r24, r28
 7de:	01 96       	adiw	r24, 0x01	; 1
 7e0:	43 dd       	rcall	.-1402   	; 0x268 <can_message_send>
 7e2:	8f e7       	ldi	r24, 0x7F	; 127
 7e4:	9b eb       	ldi	r25, 0xBB	; 187
 7e6:	01 97       	sbiw	r24, 0x01	; 1
 7e8:	f1 f7       	brne	.-4      	; 0x7e6 <main+0x54>
 7ea:	00 c0       	rjmp	.+0      	; 0x7ec <main+0x5a>
 7ec:	00 00       	nop
 7ee:	f0 cf       	rjmp	.-32     	; 0x7d0 <main+0x3e>

000007f0 <__vector_39>:
This function is the Interrupt Service Routine (ISR), and called when the TWI interrupt is triggered;
that is whenever a TWI event has occurred. This function should not be called directly from the main
application.
****************************************************************************/
ISR(TWI_vect)
{
 7f0:	1f 92       	push	r1
 7f2:	0f 92       	push	r0
 7f4:	0f b6       	in	r0, 0x3f	; 63
 7f6:	0f 92       	push	r0
 7f8:	11 24       	eor	r1, r1
 7fa:	0b b6       	in	r0, 0x3b	; 59
 7fc:	0f 92       	push	r0
 7fe:	2f 93       	push	r18
 800:	3f 93       	push	r19
 802:	8f 93       	push	r24
 804:	9f 93       	push	r25
 806:	af 93       	push	r26
 808:	bf 93       	push	r27
 80a:	ef 93       	push	r30
 80c:	ff 93       	push	r31
	static unsigned char TWI_bufPtr;
	
	switch (TWSR)
 80e:	80 91 b9 00 	lds	r24, 0x00B9
 812:	90 e0       	ldi	r25, 0x00	; 0
 814:	fc 01       	movw	r30, r24
 816:	38 97       	sbiw	r30, 0x08	; 8
 818:	e1 35       	cpi	r30, 0x51	; 81
 81a:	f1 05       	cpc	r31, r1
 81c:	08 f0       	brcs	.+2      	; 0x820 <__vector_39+0x30>
 81e:	55 c0       	rjmp	.+170    	; 0x8ca <__vector_39+0xda>
 820:	ee 58       	subi	r30, 0x8E	; 142
 822:	ff 4f       	sbci	r31, 0xFF	; 255
 824:	7b c0       	rjmp	.+246    	; 0x91c <__tablejump2__>
	{
		case TWI_START:             // START has been transmitted
		case TWI_REP_START:         // Repeated START has been transmitted
		TWI_bufPtr = 0;                                     // Set buffer pointer to the TWI Address location
 826:	10 92 1f 03 	sts	0x031F, r1
		case TWI_MTX_ADR_ACK:       // SLA+W has been tramsmitted and ACK received
		case TWI_MTX_DATA_ACK:      // Data byte has been tramsmitted and ACK received
		if (TWI_bufPtr < TWI_msgSize)
 82a:	e0 91 1f 03 	lds	r30, 0x031F
 82e:	80 91 21 03 	lds	r24, 0x0321
 832:	e8 17       	cp	r30, r24
 834:	70 f4       	brcc	.+28     	; 0x852 <__vector_39+0x62>
		{
			TWDR = TWI_buf[TWI_bufPtr++];
 836:	81 e0       	ldi	r24, 0x01	; 1
 838:	8e 0f       	add	r24, r30
 83a:	80 93 1f 03 	sts	0x031F, r24
 83e:	f0 e0       	ldi	r31, 0x00	; 0
 840:	ee 5d       	subi	r30, 0xDE	; 222
 842:	fc 4f       	sbci	r31, 0xFC	; 252
 844:	80 81       	ld	r24, Z
 846:	80 93 bb 00 	sts	0x00BB, r24
			TWCR = (1<<TWEN)|                                 // TWI Interface enabled
 84a:	85 e8       	ldi	r24, 0x85	; 133
 84c:	80 93 bc 00 	sts	0x00BC, r24
 850:	43 c0       	rjmp	.+134    	; 0x8d8 <__vector_39+0xe8>
			(1<<TWIE)|(1<<TWINT)|                      // Enable TWI Interupt and clear the flag to send byte
			(0<<TWEA)|(0<<TWSTA)|(0<<TWSTO)|           //
			(0<<TWWC);                                 //
		}else                    // Send STOP after last byte
		{
			TWI_statusReg.lastTransOK = TRUE;                 // Set status bits to completed successfully.
 852:	80 91 20 03 	lds	r24, 0x0320
 856:	81 60       	ori	r24, 0x01	; 1
 858:	80 93 20 03 	sts	0x0320, r24
			TWCR = (1<<TWEN)|                                 // TWI Interface enabled
 85c:	84 e9       	ldi	r24, 0x94	; 148
 85e:	80 93 bc 00 	sts	0x00BC, r24
 862:	3a c0       	rjmp	.+116    	; 0x8d8 <__vector_39+0xe8>
			(0<<TWEA)|(0<<TWSTA)|(1<<TWSTO)|           // Initiate a STOP condition.
			(0<<TWWC);                                 //
		}
		break;
		case TWI_MRX_DATA_ACK:      // Data byte has been received and ACK tramsmitted
		TWI_buf[TWI_bufPtr++] = TWDR;
 864:	e0 91 1f 03 	lds	r30, 0x031F
 868:	81 e0       	ldi	r24, 0x01	; 1
 86a:	8e 0f       	add	r24, r30
 86c:	80 93 1f 03 	sts	0x031F, r24
 870:	80 91 bb 00 	lds	r24, 0x00BB
 874:	f0 e0       	ldi	r31, 0x00	; 0
 876:	ee 5d       	subi	r30, 0xDE	; 222
 878:	fc 4f       	sbci	r31, 0xFC	; 252
 87a:	80 83       	st	Z, r24
		case TWI_MRX_ADR_ACK:       // SLA+R has been tramsmitted and ACK received
		if (TWI_bufPtr < (TWI_msgSize-1) )                  // Detect the last byte to NACK it.
 87c:	20 91 1f 03 	lds	r18, 0x031F
 880:	30 e0       	ldi	r19, 0x00	; 0
 882:	80 91 21 03 	lds	r24, 0x0321
 886:	90 e0       	ldi	r25, 0x00	; 0
 888:	01 97       	sbiw	r24, 0x01	; 1
 88a:	28 17       	cp	r18, r24
 88c:	39 07       	cpc	r19, r25
 88e:	24 f4       	brge	.+8      	; 0x898 <__vector_39+0xa8>
		{
			TWCR = (1<<TWEN)|                                 // TWI Interface enabled
 890:	85 ec       	ldi	r24, 0xC5	; 197
 892:	80 93 bc 00 	sts	0x00BC, r24
 896:	20 c0       	rjmp	.+64     	; 0x8d8 <__vector_39+0xe8>
			(1<<TWIE)|(1<<TWINT)|                      // Enable TWI Interupt and clear the flag to read next byte
			(1<<TWEA)|(0<<TWSTA)|(0<<TWSTO)|           // Send ACK after reception
			(0<<TWWC);                                 //
		}else                    // Send NACK after next reception
		{
			TWCR = (1<<TWEN)|                                 // TWI Interface enabled
 898:	85 e8       	ldi	r24, 0x85	; 133
 89a:	80 93 bc 00 	sts	0x00BC, r24
 89e:	1c c0       	rjmp	.+56     	; 0x8d8 <__vector_39+0xe8>
			(0<<TWEA)|(0<<TWSTA)|(0<<TWSTO)|           // Send NACK after reception
			(0<<TWWC);                                 //
		}
		break;
		case TWI_MRX_DATA_NACK:     // Data byte has been received and NACK tramsmitted
		TWI_buf[TWI_bufPtr] = TWDR;
 8a0:	80 91 bb 00 	lds	r24, 0x00BB
 8a4:	e0 91 1f 03 	lds	r30, 0x031F
 8a8:	f0 e0       	ldi	r31, 0x00	; 0
 8aa:	ee 5d       	subi	r30, 0xDE	; 222
 8ac:	fc 4f       	sbci	r31, 0xFC	; 252
 8ae:	80 83       	st	Z, r24
		TWI_statusReg.lastTransOK = TRUE;                 // Set status bits to completed successfully.
 8b0:	80 91 20 03 	lds	r24, 0x0320
 8b4:	81 60       	ori	r24, 0x01	; 1
 8b6:	80 93 20 03 	sts	0x0320, r24
		TWCR = (1<<TWEN)|                                 // TWI Interface enabled
 8ba:	84 e9       	ldi	r24, 0x94	; 148
 8bc:	80 93 bc 00 	sts	0x00BC, r24
		(0<<TWIE)|(1<<TWINT)|                      // Disable TWI Interrupt and clear the flag
		(0<<TWEA)|(0<<TWSTA)|(1<<TWSTO)|           // Initiate a STOP condition.
		(0<<TWWC);                                 //
		break;
 8c0:	0b c0       	rjmp	.+22     	; 0x8d8 <__vector_39+0xe8>
		case TWI_ARB_LOST:          // Arbitration lost
		TWCR = (1<<TWEN)|                                 // TWI Interface enabled
 8c2:	85 ea       	ldi	r24, 0xA5	; 165
 8c4:	80 93 bc 00 	sts	0x00BC, r24
		(1<<TWIE)|(1<<TWINT)|                      // Enable TWI Interupt and clear the flag
		(0<<TWEA)|(1<<TWSTA)|(0<<TWSTO)|           // Initiate a (RE)START condition.
		(0<<TWWC);                                 //
		break;
 8c8:	07 c0       	rjmp	.+14     	; 0x8d8 <__vector_39+0xe8>
		case TWI_MRX_ADR_NACK:      // SLA+R has been tramsmitted and NACK received
		case TWI_MTX_DATA_NACK:     // Data byte has been tramsmitted and NACK received
		//    case TWI_NO_STATE              // No relevant state information available; TWINT = ?0?
		case TWI_BUS_ERROR:         // Bus error due to an illegal START or STOP condition
		default:
		TWI_state = TWSR;                                 // Store TWSR and automatically sets clears noErrors bit.
 8ca:	80 91 b9 00 	lds	r24, 0x00B9
 8ce:	80 93 0e 02 	sts	0x020E, r24
		// Reset TWI Interface
		TWCR = (1<<TWEN)|                                 // Enable TWI-interface and release TWI pins
 8d2:	84 e0       	ldi	r24, 0x04	; 4
 8d4:	80 93 bc 00 	sts	0x00BC, r24
		(0<<TWIE)|(0<<TWINT)|                      // Disable Interupt
		(0<<TWEA)|(0<<TWSTA)|(0<<TWSTO)|           // No Signal requests
		(0<<TWWC);                                 //
	}
 8d8:	ff 91       	pop	r31
 8da:	ef 91       	pop	r30
 8dc:	bf 91       	pop	r27
 8de:	af 91       	pop	r26
 8e0:	9f 91       	pop	r25
 8e2:	8f 91       	pop	r24
 8e4:	3f 91       	pop	r19
 8e6:	2f 91       	pop	r18
 8e8:	0f 90       	pop	r0
 8ea:	0b be       	out	0x3b, r0	; 59
 8ec:	0f 90       	pop	r0
 8ee:	0f be       	out	0x3f, r0	; 63
 8f0:	0f 90       	pop	r0
 8f2:	1f 90       	pop	r1
 8f4:	18 95       	reti

000008f6 <__divmodhi4>:
 8f6:	97 fb       	bst	r25, 7
 8f8:	07 2e       	mov	r0, r23
 8fa:	16 f4       	brtc	.+4      	; 0x900 <__divmodhi4+0xa>
 8fc:	00 94       	com	r0
 8fe:	06 d0       	rcall	.+12     	; 0x90c <__divmodhi4_neg1>
 900:	77 fd       	sbrc	r23, 7
 902:	08 d0       	rcall	.+16     	; 0x914 <__divmodhi4_neg2>
 904:	11 d0       	rcall	.+34     	; 0x928 <__udivmodhi4>
 906:	07 fc       	sbrc	r0, 7
 908:	05 d0       	rcall	.+10     	; 0x914 <__divmodhi4_neg2>
 90a:	3e f4       	brtc	.+14     	; 0x91a <__divmodhi4_exit>

0000090c <__divmodhi4_neg1>:
 90c:	90 95       	com	r25
 90e:	81 95       	neg	r24
 910:	9f 4f       	sbci	r25, 0xFF	; 255
 912:	08 95       	ret

00000914 <__divmodhi4_neg2>:
 914:	70 95       	com	r23
 916:	61 95       	neg	r22
 918:	7f 4f       	sbci	r23, 0xFF	; 255

0000091a <__divmodhi4_exit>:
 91a:	08 95       	ret

0000091c <__tablejump2__>:
 91c:	ee 0f       	add	r30, r30
 91e:	ff 1f       	adc	r31, r31

00000920 <__tablejump__>:
 920:	05 90       	lpm	r0, Z+
 922:	f4 91       	lpm	r31, Z
 924:	e0 2d       	mov	r30, r0
 926:	19 94       	eijmp

00000928 <__udivmodhi4>:
 928:	aa 1b       	sub	r26, r26
 92a:	bb 1b       	sub	r27, r27
 92c:	51 e1       	ldi	r21, 0x11	; 17
 92e:	07 c0       	rjmp	.+14     	; 0x93e <__udivmodhi4_ep>

00000930 <__udivmodhi4_loop>:
 930:	aa 1f       	adc	r26, r26
 932:	bb 1f       	adc	r27, r27
 934:	a6 17       	cp	r26, r22
 936:	b7 07       	cpc	r27, r23
 938:	10 f0       	brcs	.+4      	; 0x93e <__udivmodhi4_ep>
 93a:	a6 1b       	sub	r26, r22
 93c:	b7 0b       	sbc	r27, r23

0000093e <__udivmodhi4_ep>:
 93e:	88 1f       	adc	r24, r24
 940:	99 1f       	adc	r25, r25
 942:	5a 95       	dec	r21
 944:	a9 f7       	brne	.-22     	; 0x930 <__udivmodhi4_loop>
 946:	80 95       	com	r24
 948:	90 95       	com	r25
 94a:	bc 01       	movw	r22, r24
 94c:	cd 01       	movw	r24, r26
 94e:	08 95       	ret

00000950 <printf>:
 950:	cf 93       	push	r28
 952:	df 93       	push	r29
 954:	cd b7       	in	r28, 0x3d	; 61
 956:	de b7       	in	r29, 0x3e	; 62
 958:	fe 01       	movw	r30, r28
 95a:	36 96       	adiw	r30, 0x06	; 6
 95c:	61 91       	ld	r22, Z+
 95e:	71 91       	ld	r23, Z+
 960:	af 01       	movw	r20, r30
 962:	80 91 29 03 	lds	r24, 0x0329
 966:	90 91 2a 03 	lds	r25, 0x032A
 96a:	30 d0       	rcall	.+96     	; 0x9cc <vfprintf>
 96c:	df 91       	pop	r29
 96e:	cf 91       	pop	r28
 970:	08 95       	ret

00000972 <puts>:
 972:	0f 93       	push	r16
 974:	1f 93       	push	r17
 976:	cf 93       	push	r28
 978:	df 93       	push	r29
 97a:	e0 91 29 03 	lds	r30, 0x0329
 97e:	f0 91 2a 03 	lds	r31, 0x032A
 982:	23 81       	ldd	r18, Z+3	; 0x03
 984:	21 ff       	sbrs	r18, 1
 986:	1b c0       	rjmp	.+54     	; 0x9be <puts+0x4c>
 988:	ec 01       	movw	r28, r24
 98a:	00 e0       	ldi	r16, 0x00	; 0
 98c:	10 e0       	ldi	r17, 0x00	; 0
 98e:	89 91       	ld	r24, Y+
 990:	60 91 29 03 	lds	r22, 0x0329
 994:	70 91 2a 03 	lds	r23, 0x032A
 998:	db 01       	movw	r26, r22
 99a:	18 96       	adiw	r26, 0x08	; 8
 99c:	ed 91       	ld	r30, X+
 99e:	fc 91       	ld	r31, X
 9a0:	19 97       	sbiw	r26, 0x09	; 9
 9a2:	88 23       	and	r24, r24
 9a4:	31 f0       	breq	.+12     	; 0x9b2 <puts+0x40>
 9a6:	19 95       	eicall
 9a8:	89 2b       	or	r24, r25
 9aa:	89 f3       	breq	.-30     	; 0x98e <puts+0x1c>
 9ac:	0f ef       	ldi	r16, 0xFF	; 255
 9ae:	1f ef       	ldi	r17, 0xFF	; 255
 9b0:	ee cf       	rjmp	.-36     	; 0x98e <puts+0x1c>
 9b2:	8a e0       	ldi	r24, 0x0A	; 10
 9b4:	19 95       	eicall
 9b6:	89 2b       	or	r24, r25
 9b8:	11 f4       	brne	.+4      	; 0x9be <puts+0x4c>
 9ba:	c8 01       	movw	r24, r16
 9bc:	02 c0       	rjmp	.+4      	; 0x9c2 <puts+0x50>
 9be:	8f ef       	ldi	r24, 0xFF	; 255
 9c0:	9f ef       	ldi	r25, 0xFF	; 255
 9c2:	df 91       	pop	r29
 9c4:	cf 91       	pop	r28
 9c6:	1f 91       	pop	r17
 9c8:	0f 91       	pop	r16
 9ca:	08 95       	ret

000009cc <vfprintf>:
 9cc:	2f 92       	push	r2
 9ce:	3f 92       	push	r3
 9d0:	4f 92       	push	r4
 9d2:	5f 92       	push	r5
 9d4:	6f 92       	push	r6
 9d6:	7f 92       	push	r7
 9d8:	8f 92       	push	r8
 9da:	9f 92       	push	r9
 9dc:	af 92       	push	r10
 9de:	bf 92       	push	r11
 9e0:	cf 92       	push	r12
 9e2:	df 92       	push	r13
 9e4:	ef 92       	push	r14
 9e6:	ff 92       	push	r15
 9e8:	0f 93       	push	r16
 9ea:	1f 93       	push	r17
 9ec:	cf 93       	push	r28
 9ee:	df 93       	push	r29
 9f0:	cd b7       	in	r28, 0x3d	; 61
 9f2:	de b7       	in	r29, 0x3e	; 62
 9f4:	2c 97       	sbiw	r28, 0x0c	; 12
 9f6:	0f b6       	in	r0, 0x3f	; 63
 9f8:	f8 94       	cli
 9fa:	de bf       	out	0x3e, r29	; 62
 9fc:	0f be       	out	0x3f, r0	; 63
 9fe:	cd bf       	out	0x3d, r28	; 61
 a00:	7c 01       	movw	r14, r24
 a02:	6b 01       	movw	r12, r22
 a04:	8a 01       	movw	r16, r20
 a06:	fc 01       	movw	r30, r24
 a08:	17 82       	std	Z+7, r1	; 0x07
 a0a:	16 82       	std	Z+6, r1	; 0x06
 a0c:	83 81       	ldd	r24, Z+3	; 0x03
 a0e:	81 ff       	sbrs	r24, 1
 a10:	b0 c1       	rjmp	.+864    	; 0xd72 <vfprintf+0x3a6>
 a12:	ce 01       	movw	r24, r28
 a14:	01 96       	adiw	r24, 0x01	; 1
 a16:	4c 01       	movw	r8, r24
 a18:	f7 01       	movw	r30, r14
 a1a:	93 81       	ldd	r25, Z+3	; 0x03
 a1c:	f6 01       	movw	r30, r12
 a1e:	93 fd       	sbrc	r25, 3
 a20:	85 91       	lpm	r24, Z+
 a22:	93 ff       	sbrs	r25, 3
 a24:	81 91       	ld	r24, Z+
 a26:	6f 01       	movw	r12, r30
 a28:	88 23       	and	r24, r24
 a2a:	09 f4       	brne	.+2      	; 0xa2e <vfprintf+0x62>
 a2c:	9e c1       	rjmp	.+828    	; 0xd6a <vfprintf+0x39e>
 a2e:	85 32       	cpi	r24, 0x25	; 37
 a30:	39 f4       	brne	.+14     	; 0xa40 <vfprintf+0x74>
 a32:	93 fd       	sbrc	r25, 3
 a34:	85 91       	lpm	r24, Z+
 a36:	93 ff       	sbrs	r25, 3
 a38:	81 91       	ld	r24, Z+
 a3a:	6f 01       	movw	r12, r30
 a3c:	85 32       	cpi	r24, 0x25	; 37
 a3e:	21 f4       	brne	.+8      	; 0xa48 <vfprintf+0x7c>
 a40:	b7 01       	movw	r22, r14
 a42:	90 e0       	ldi	r25, 0x00	; 0
 a44:	c7 d1       	rcall	.+910    	; 0xdd4 <fputc>
 a46:	e8 cf       	rjmp	.-48     	; 0xa18 <vfprintf+0x4c>
 a48:	51 2c       	mov	r5, r1
 a4a:	31 2c       	mov	r3, r1
 a4c:	20 e0       	ldi	r18, 0x00	; 0
 a4e:	20 32       	cpi	r18, 0x20	; 32
 a50:	a0 f4       	brcc	.+40     	; 0xa7a <vfprintf+0xae>
 a52:	8b 32       	cpi	r24, 0x2B	; 43
 a54:	69 f0       	breq	.+26     	; 0xa70 <vfprintf+0xa4>
 a56:	30 f4       	brcc	.+12     	; 0xa64 <vfprintf+0x98>
 a58:	80 32       	cpi	r24, 0x20	; 32
 a5a:	59 f0       	breq	.+22     	; 0xa72 <vfprintf+0xa6>
 a5c:	83 32       	cpi	r24, 0x23	; 35
 a5e:	69 f4       	brne	.+26     	; 0xa7a <vfprintf+0xae>
 a60:	20 61       	ori	r18, 0x10	; 16
 a62:	2c c0       	rjmp	.+88     	; 0xabc <vfprintf+0xf0>
 a64:	8d 32       	cpi	r24, 0x2D	; 45
 a66:	39 f0       	breq	.+14     	; 0xa76 <vfprintf+0xaa>
 a68:	80 33       	cpi	r24, 0x30	; 48
 a6a:	39 f4       	brne	.+14     	; 0xa7a <vfprintf+0xae>
 a6c:	21 60       	ori	r18, 0x01	; 1
 a6e:	26 c0       	rjmp	.+76     	; 0xabc <vfprintf+0xf0>
 a70:	22 60       	ori	r18, 0x02	; 2
 a72:	24 60       	ori	r18, 0x04	; 4
 a74:	23 c0       	rjmp	.+70     	; 0xabc <vfprintf+0xf0>
 a76:	28 60       	ori	r18, 0x08	; 8
 a78:	21 c0       	rjmp	.+66     	; 0xabc <vfprintf+0xf0>
 a7a:	27 fd       	sbrc	r18, 7
 a7c:	27 c0       	rjmp	.+78     	; 0xacc <vfprintf+0x100>
 a7e:	30 ed       	ldi	r19, 0xD0	; 208
 a80:	38 0f       	add	r19, r24
 a82:	3a 30       	cpi	r19, 0x0A	; 10
 a84:	78 f4       	brcc	.+30     	; 0xaa4 <vfprintf+0xd8>
 a86:	26 ff       	sbrs	r18, 6
 a88:	06 c0       	rjmp	.+12     	; 0xa96 <vfprintf+0xca>
 a8a:	fa e0       	ldi	r31, 0x0A	; 10
 a8c:	5f 9e       	mul	r5, r31
 a8e:	30 0d       	add	r19, r0
 a90:	11 24       	eor	r1, r1
 a92:	53 2e       	mov	r5, r19
 a94:	13 c0       	rjmp	.+38     	; 0xabc <vfprintf+0xf0>
 a96:	8a e0       	ldi	r24, 0x0A	; 10
 a98:	38 9e       	mul	r3, r24
 a9a:	30 0d       	add	r19, r0
 a9c:	11 24       	eor	r1, r1
 a9e:	33 2e       	mov	r3, r19
 aa0:	20 62       	ori	r18, 0x20	; 32
 aa2:	0c c0       	rjmp	.+24     	; 0xabc <vfprintf+0xf0>
 aa4:	8e 32       	cpi	r24, 0x2E	; 46
 aa6:	21 f4       	brne	.+8      	; 0xab0 <vfprintf+0xe4>
 aa8:	26 fd       	sbrc	r18, 6
 aaa:	5f c1       	rjmp	.+702    	; 0xd6a <vfprintf+0x39e>
 aac:	20 64       	ori	r18, 0x40	; 64
 aae:	06 c0       	rjmp	.+12     	; 0xabc <vfprintf+0xf0>
 ab0:	8c 36       	cpi	r24, 0x6C	; 108
 ab2:	11 f4       	brne	.+4      	; 0xab8 <vfprintf+0xec>
 ab4:	20 68       	ori	r18, 0x80	; 128
 ab6:	02 c0       	rjmp	.+4      	; 0xabc <vfprintf+0xf0>
 ab8:	88 36       	cpi	r24, 0x68	; 104
 aba:	41 f4       	brne	.+16     	; 0xacc <vfprintf+0x100>
 abc:	f6 01       	movw	r30, r12
 abe:	93 fd       	sbrc	r25, 3
 ac0:	85 91       	lpm	r24, Z+
 ac2:	93 ff       	sbrs	r25, 3
 ac4:	81 91       	ld	r24, Z+
 ac6:	6f 01       	movw	r12, r30
 ac8:	81 11       	cpse	r24, r1
 aca:	c1 cf       	rjmp	.-126    	; 0xa4e <vfprintf+0x82>
 acc:	98 2f       	mov	r25, r24
 ace:	9f 7d       	andi	r25, 0xDF	; 223
 ad0:	95 54       	subi	r25, 0x45	; 69
 ad2:	93 30       	cpi	r25, 0x03	; 3
 ad4:	28 f4       	brcc	.+10     	; 0xae0 <vfprintf+0x114>
 ad6:	0c 5f       	subi	r16, 0xFC	; 252
 ad8:	1f 4f       	sbci	r17, 0xFF	; 255
 ada:	ff e3       	ldi	r31, 0x3F	; 63
 adc:	f9 83       	std	Y+1, r31	; 0x01
 ade:	0d c0       	rjmp	.+26     	; 0xafa <vfprintf+0x12e>
 ae0:	83 36       	cpi	r24, 0x63	; 99
 ae2:	31 f0       	breq	.+12     	; 0xaf0 <vfprintf+0x124>
 ae4:	83 37       	cpi	r24, 0x73	; 115
 ae6:	71 f0       	breq	.+28     	; 0xb04 <vfprintf+0x138>
 ae8:	83 35       	cpi	r24, 0x53	; 83
 aea:	09 f0       	breq	.+2      	; 0xaee <vfprintf+0x122>
 aec:	57 c0       	rjmp	.+174    	; 0xb9c <vfprintf+0x1d0>
 aee:	21 c0       	rjmp	.+66     	; 0xb32 <vfprintf+0x166>
 af0:	f8 01       	movw	r30, r16
 af2:	80 81       	ld	r24, Z
 af4:	89 83       	std	Y+1, r24	; 0x01
 af6:	0e 5f       	subi	r16, 0xFE	; 254
 af8:	1f 4f       	sbci	r17, 0xFF	; 255
 afa:	44 24       	eor	r4, r4
 afc:	43 94       	inc	r4
 afe:	51 2c       	mov	r5, r1
 b00:	54 01       	movw	r10, r8
 b02:	14 c0       	rjmp	.+40     	; 0xb2c <vfprintf+0x160>
 b04:	38 01       	movw	r6, r16
 b06:	f2 e0       	ldi	r31, 0x02	; 2
 b08:	6f 0e       	add	r6, r31
 b0a:	71 1c       	adc	r7, r1
 b0c:	f8 01       	movw	r30, r16
 b0e:	a0 80       	ld	r10, Z
 b10:	b1 80       	ldd	r11, Z+1	; 0x01
 b12:	26 ff       	sbrs	r18, 6
 b14:	03 c0       	rjmp	.+6      	; 0xb1c <vfprintf+0x150>
 b16:	65 2d       	mov	r22, r5
 b18:	70 e0       	ldi	r23, 0x00	; 0
 b1a:	02 c0       	rjmp	.+4      	; 0xb20 <vfprintf+0x154>
 b1c:	6f ef       	ldi	r22, 0xFF	; 255
 b1e:	7f ef       	ldi	r23, 0xFF	; 255
 b20:	c5 01       	movw	r24, r10
 b22:	2c 87       	std	Y+12, r18	; 0x0c
 b24:	4c d1       	rcall	.+664    	; 0xdbe <strnlen>
 b26:	2c 01       	movw	r4, r24
 b28:	83 01       	movw	r16, r6
 b2a:	2c 85       	ldd	r18, Y+12	; 0x0c
 b2c:	2f 77       	andi	r18, 0x7F	; 127
 b2e:	22 2e       	mov	r2, r18
 b30:	16 c0       	rjmp	.+44     	; 0xb5e <vfprintf+0x192>
 b32:	38 01       	movw	r6, r16
 b34:	f2 e0       	ldi	r31, 0x02	; 2
 b36:	6f 0e       	add	r6, r31
 b38:	71 1c       	adc	r7, r1
 b3a:	f8 01       	movw	r30, r16
 b3c:	a0 80       	ld	r10, Z
 b3e:	b1 80       	ldd	r11, Z+1	; 0x01
 b40:	26 ff       	sbrs	r18, 6
 b42:	03 c0       	rjmp	.+6      	; 0xb4a <vfprintf+0x17e>
 b44:	65 2d       	mov	r22, r5
 b46:	70 e0       	ldi	r23, 0x00	; 0
 b48:	02 c0       	rjmp	.+4      	; 0xb4e <vfprintf+0x182>
 b4a:	6f ef       	ldi	r22, 0xFF	; 255
 b4c:	7f ef       	ldi	r23, 0xFF	; 255
 b4e:	c5 01       	movw	r24, r10
 b50:	2c 87       	std	Y+12, r18	; 0x0c
 b52:	2a d1       	rcall	.+596    	; 0xda8 <strnlen_P>
 b54:	2c 01       	movw	r4, r24
 b56:	2c 85       	ldd	r18, Y+12	; 0x0c
 b58:	20 68       	ori	r18, 0x80	; 128
 b5a:	22 2e       	mov	r2, r18
 b5c:	83 01       	movw	r16, r6
 b5e:	23 fc       	sbrc	r2, 3
 b60:	19 c0       	rjmp	.+50     	; 0xb94 <vfprintf+0x1c8>
 b62:	83 2d       	mov	r24, r3
 b64:	90 e0       	ldi	r25, 0x00	; 0
 b66:	48 16       	cp	r4, r24
 b68:	59 06       	cpc	r5, r25
 b6a:	a0 f4       	brcc	.+40     	; 0xb94 <vfprintf+0x1c8>
 b6c:	b7 01       	movw	r22, r14
 b6e:	80 e2       	ldi	r24, 0x20	; 32
 b70:	90 e0       	ldi	r25, 0x00	; 0
 b72:	30 d1       	rcall	.+608    	; 0xdd4 <fputc>
 b74:	3a 94       	dec	r3
 b76:	f5 cf       	rjmp	.-22     	; 0xb62 <vfprintf+0x196>
 b78:	f5 01       	movw	r30, r10
 b7a:	27 fc       	sbrc	r2, 7
 b7c:	85 91       	lpm	r24, Z+
 b7e:	27 fe       	sbrs	r2, 7
 b80:	81 91       	ld	r24, Z+
 b82:	5f 01       	movw	r10, r30
 b84:	b7 01       	movw	r22, r14
 b86:	90 e0       	ldi	r25, 0x00	; 0
 b88:	25 d1       	rcall	.+586    	; 0xdd4 <fputc>
 b8a:	31 10       	cpse	r3, r1
 b8c:	3a 94       	dec	r3
 b8e:	f1 e0       	ldi	r31, 0x01	; 1
 b90:	4f 1a       	sub	r4, r31
 b92:	51 08       	sbc	r5, r1
 b94:	41 14       	cp	r4, r1
 b96:	51 04       	cpc	r5, r1
 b98:	79 f7       	brne	.-34     	; 0xb78 <vfprintf+0x1ac>
 b9a:	de c0       	rjmp	.+444    	; 0xd58 <vfprintf+0x38c>
 b9c:	84 36       	cpi	r24, 0x64	; 100
 b9e:	11 f0       	breq	.+4      	; 0xba4 <vfprintf+0x1d8>
 ba0:	89 36       	cpi	r24, 0x69	; 105
 ba2:	31 f5       	brne	.+76     	; 0xbf0 <vfprintf+0x224>
 ba4:	f8 01       	movw	r30, r16
 ba6:	27 ff       	sbrs	r18, 7
 ba8:	07 c0       	rjmp	.+14     	; 0xbb8 <vfprintf+0x1ec>
 baa:	60 81       	ld	r22, Z
 bac:	71 81       	ldd	r23, Z+1	; 0x01
 bae:	82 81       	ldd	r24, Z+2	; 0x02
 bb0:	93 81       	ldd	r25, Z+3	; 0x03
 bb2:	0c 5f       	subi	r16, 0xFC	; 252
 bb4:	1f 4f       	sbci	r17, 0xFF	; 255
 bb6:	08 c0       	rjmp	.+16     	; 0xbc8 <vfprintf+0x1fc>
 bb8:	60 81       	ld	r22, Z
 bba:	71 81       	ldd	r23, Z+1	; 0x01
 bbc:	88 27       	eor	r24, r24
 bbe:	77 fd       	sbrc	r23, 7
 bc0:	80 95       	com	r24
 bc2:	98 2f       	mov	r25, r24
 bc4:	0e 5f       	subi	r16, 0xFE	; 254
 bc6:	1f 4f       	sbci	r17, 0xFF	; 255
 bc8:	2f 76       	andi	r18, 0x6F	; 111
 bca:	b2 2e       	mov	r11, r18
 bcc:	97 ff       	sbrs	r25, 7
 bce:	09 c0       	rjmp	.+18     	; 0xbe2 <vfprintf+0x216>
 bd0:	90 95       	com	r25
 bd2:	80 95       	com	r24
 bd4:	70 95       	com	r23
 bd6:	61 95       	neg	r22
 bd8:	7f 4f       	sbci	r23, 0xFF	; 255
 bda:	8f 4f       	sbci	r24, 0xFF	; 255
 bdc:	9f 4f       	sbci	r25, 0xFF	; 255
 bde:	20 68       	ori	r18, 0x80	; 128
 be0:	b2 2e       	mov	r11, r18
 be2:	2a e0       	ldi	r18, 0x0A	; 10
 be4:	30 e0       	ldi	r19, 0x00	; 0
 be6:	a4 01       	movw	r20, r8
 be8:	27 d1       	rcall	.+590    	; 0xe38 <__ultoa_invert>
 bea:	a8 2e       	mov	r10, r24
 bec:	a8 18       	sub	r10, r8
 bee:	43 c0       	rjmp	.+134    	; 0xc76 <vfprintf+0x2aa>
 bf0:	85 37       	cpi	r24, 0x75	; 117
 bf2:	29 f4       	brne	.+10     	; 0xbfe <vfprintf+0x232>
 bf4:	2f 7e       	andi	r18, 0xEF	; 239
 bf6:	b2 2e       	mov	r11, r18
 bf8:	2a e0       	ldi	r18, 0x0A	; 10
 bfa:	30 e0       	ldi	r19, 0x00	; 0
 bfc:	25 c0       	rjmp	.+74     	; 0xc48 <vfprintf+0x27c>
 bfe:	f2 2f       	mov	r31, r18
 c00:	f9 7f       	andi	r31, 0xF9	; 249
 c02:	bf 2e       	mov	r11, r31
 c04:	8f 36       	cpi	r24, 0x6F	; 111
 c06:	c1 f0       	breq	.+48     	; 0xc38 <vfprintf+0x26c>
 c08:	18 f4       	brcc	.+6      	; 0xc10 <vfprintf+0x244>
 c0a:	88 35       	cpi	r24, 0x58	; 88
 c0c:	79 f0       	breq	.+30     	; 0xc2c <vfprintf+0x260>
 c0e:	ad c0       	rjmp	.+346    	; 0xd6a <vfprintf+0x39e>
 c10:	80 37       	cpi	r24, 0x70	; 112
 c12:	19 f0       	breq	.+6      	; 0xc1a <vfprintf+0x24e>
 c14:	88 37       	cpi	r24, 0x78	; 120
 c16:	21 f0       	breq	.+8      	; 0xc20 <vfprintf+0x254>
 c18:	a8 c0       	rjmp	.+336    	; 0xd6a <vfprintf+0x39e>
 c1a:	2f 2f       	mov	r18, r31
 c1c:	20 61       	ori	r18, 0x10	; 16
 c1e:	b2 2e       	mov	r11, r18
 c20:	b4 fe       	sbrs	r11, 4
 c22:	0d c0       	rjmp	.+26     	; 0xc3e <vfprintf+0x272>
 c24:	8b 2d       	mov	r24, r11
 c26:	84 60       	ori	r24, 0x04	; 4
 c28:	b8 2e       	mov	r11, r24
 c2a:	09 c0       	rjmp	.+18     	; 0xc3e <vfprintf+0x272>
 c2c:	24 ff       	sbrs	r18, 4
 c2e:	0a c0       	rjmp	.+20     	; 0xc44 <vfprintf+0x278>
 c30:	9f 2f       	mov	r25, r31
 c32:	96 60       	ori	r25, 0x06	; 6
 c34:	b9 2e       	mov	r11, r25
 c36:	06 c0       	rjmp	.+12     	; 0xc44 <vfprintf+0x278>
 c38:	28 e0       	ldi	r18, 0x08	; 8
 c3a:	30 e0       	ldi	r19, 0x00	; 0
 c3c:	05 c0       	rjmp	.+10     	; 0xc48 <vfprintf+0x27c>
 c3e:	20 e1       	ldi	r18, 0x10	; 16
 c40:	30 e0       	ldi	r19, 0x00	; 0
 c42:	02 c0       	rjmp	.+4      	; 0xc48 <vfprintf+0x27c>
 c44:	20 e1       	ldi	r18, 0x10	; 16
 c46:	32 e0       	ldi	r19, 0x02	; 2
 c48:	f8 01       	movw	r30, r16
 c4a:	b7 fe       	sbrs	r11, 7
 c4c:	07 c0       	rjmp	.+14     	; 0xc5c <vfprintf+0x290>
 c4e:	60 81       	ld	r22, Z
 c50:	71 81       	ldd	r23, Z+1	; 0x01
 c52:	82 81       	ldd	r24, Z+2	; 0x02
 c54:	93 81       	ldd	r25, Z+3	; 0x03
 c56:	0c 5f       	subi	r16, 0xFC	; 252
 c58:	1f 4f       	sbci	r17, 0xFF	; 255
 c5a:	06 c0       	rjmp	.+12     	; 0xc68 <vfprintf+0x29c>
 c5c:	60 81       	ld	r22, Z
 c5e:	71 81       	ldd	r23, Z+1	; 0x01
 c60:	80 e0       	ldi	r24, 0x00	; 0
 c62:	90 e0       	ldi	r25, 0x00	; 0
 c64:	0e 5f       	subi	r16, 0xFE	; 254
 c66:	1f 4f       	sbci	r17, 0xFF	; 255
 c68:	a4 01       	movw	r20, r8
 c6a:	e6 d0       	rcall	.+460    	; 0xe38 <__ultoa_invert>
 c6c:	a8 2e       	mov	r10, r24
 c6e:	a8 18       	sub	r10, r8
 c70:	fb 2d       	mov	r31, r11
 c72:	ff 77       	andi	r31, 0x7F	; 127
 c74:	bf 2e       	mov	r11, r31
 c76:	b6 fe       	sbrs	r11, 6
 c78:	0b c0       	rjmp	.+22     	; 0xc90 <vfprintf+0x2c4>
 c7a:	2b 2d       	mov	r18, r11
 c7c:	2e 7f       	andi	r18, 0xFE	; 254
 c7e:	a5 14       	cp	r10, r5
 c80:	50 f4       	brcc	.+20     	; 0xc96 <vfprintf+0x2ca>
 c82:	b4 fe       	sbrs	r11, 4
 c84:	0a c0       	rjmp	.+20     	; 0xc9a <vfprintf+0x2ce>
 c86:	b2 fc       	sbrc	r11, 2
 c88:	08 c0       	rjmp	.+16     	; 0xc9a <vfprintf+0x2ce>
 c8a:	2b 2d       	mov	r18, r11
 c8c:	2e 7e       	andi	r18, 0xEE	; 238
 c8e:	05 c0       	rjmp	.+10     	; 0xc9a <vfprintf+0x2ce>
 c90:	7a 2c       	mov	r7, r10
 c92:	2b 2d       	mov	r18, r11
 c94:	03 c0       	rjmp	.+6      	; 0xc9c <vfprintf+0x2d0>
 c96:	7a 2c       	mov	r7, r10
 c98:	01 c0       	rjmp	.+2      	; 0xc9c <vfprintf+0x2d0>
 c9a:	75 2c       	mov	r7, r5
 c9c:	24 ff       	sbrs	r18, 4
 c9e:	0d c0       	rjmp	.+26     	; 0xcba <vfprintf+0x2ee>
 ca0:	fe 01       	movw	r30, r28
 ca2:	ea 0d       	add	r30, r10
 ca4:	f1 1d       	adc	r31, r1
 ca6:	80 81       	ld	r24, Z
 ca8:	80 33       	cpi	r24, 0x30	; 48
 caa:	11 f4       	brne	.+4      	; 0xcb0 <vfprintf+0x2e4>
 cac:	29 7e       	andi	r18, 0xE9	; 233
 cae:	09 c0       	rjmp	.+18     	; 0xcc2 <vfprintf+0x2f6>
 cb0:	22 ff       	sbrs	r18, 2
 cb2:	06 c0       	rjmp	.+12     	; 0xcc0 <vfprintf+0x2f4>
 cb4:	73 94       	inc	r7
 cb6:	73 94       	inc	r7
 cb8:	04 c0       	rjmp	.+8      	; 0xcc2 <vfprintf+0x2f6>
 cba:	82 2f       	mov	r24, r18
 cbc:	86 78       	andi	r24, 0x86	; 134
 cbe:	09 f0       	breq	.+2      	; 0xcc2 <vfprintf+0x2f6>
 cc0:	73 94       	inc	r7
 cc2:	23 fd       	sbrc	r18, 3
 cc4:	12 c0       	rjmp	.+36     	; 0xcea <vfprintf+0x31e>
 cc6:	20 ff       	sbrs	r18, 0
 cc8:	06 c0       	rjmp	.+12     	; 0xcd6 <vfprintf+0x30a>
 cca:	5a 2c       	mov	r5, r10
 ccc:	73 14       	cp	r7, r3
 cce:	18 f4       	brcc	.+6      	; 0xcd6 <vfprintf+0x30a>
 cd0:	53 0c       	add	r5, r3
 cd2:	57 18       	sub	r5, r7
 cd4:	73 2c       	mov	r7, r3
 cd6:	73 14       	cp	r7, r3
 cd8:	60 f4       	brcc	.+24     	; 0xcf2 <vfprintf+0x326>
 cda:	b7 01       	movw	r22, r14
 cdc:	80 e2       	ldi	r24, 0x20	; 32
 cde:	90 e0       	ldi	r25, 0x00	; 0
 ce0:	2c 87       	std	Y+12, r18	; 0x0c
 ce2:	78 d0       	rcall	.+240    	; 0xdd4 <fputc>
 ce4:	73 94       	inc	r7
 ce6:	2c 85       	ldd	r18, Y+12	; 0x0c
 ce8:	f6 cf       	rjmp	.-20     	; 0xcd6 <vfprintf+0x30a>
 cea:	73 14       	cp	r7, r3
 cec:	10 f4       	brcc	.+4      	; 0xcf2 <vfprintf+0x326>
 cee:	37 18       	sub	r3, r7
 cf0:	01 c0       	rjmp	.+2      	; 0xcf4 <vfprintf+0x328>
 cf2:	31 2c       	mov	r3, r1
 cf4:	24 ff       	sbrs	r18, 4
 cf6:	11 c0       	rjmp	.+34     	; 0xd1a <vfprintf+0x34e>
 cf8:	b7 01       	movw	r22, r14
 cfa:	80 e3       	ldi	r24, 0x30	; 48
 cfc:	90 e0       	ldi	r25, 0x00	; 0
 cfe:	2c 87       	std	Y+12, r18	; 0x0c
 d00:	69 d0       	rcall	.+210    	; 0xdd4 <fputc>
 d02:	2c 85       	ldd	r18, Y+12	; 0x0c
 d04:	22 ff       	sbrs	r18, 2
 d06:	16 c0       	rjmp	.+44     	; 0xd34 <vfprintf+0x368>
 d08:	21 ff       	sbrs	r18, 1
 d0a:	03 c0       	rjmp	.+6      	; 0xd12 <vfprintf+0x346>
 d0c:	88 e5       	ldi	r24, 0x58	; 88
 d0e:	90 e0       	ldi	r25, 0x00	; 0
 d10:	02 c0       	rjmp	.+4      	; 0xd16 <vfprintf+0x34a>
 d12:	88 e7       	ldi	r24, 0x78	; 120
 d14:	90 e0       	ldi	r25, 0x00	; 0
 d16:	b7 01       	movw	r22, r14
 d18:	0c c0       	rjmp	.+24     	; 0xd32 <vfprintf+0x366>
 d1a:	82 2f       	mov	r24, r18
 d1c:	86 78       	andi	r24, 0x86	; 134
 d1e:	51 f0       	breq	.+20     	; 0xd34 <vfprintf+0x368>
 d20:	21 fd       	sbrc	r18, 1
 d22:	02 c0       	rjmp	.+4      	; 0xd28 <vfprintf+0x35c>
 d24:	80 e2       	ldi	r24, 0x20	; 32
 d26:	01 c0       	rjmp	.+2      	; 0xd2a <vfprintf+0x35e>
 d28:	8b e2       	ldi	r24, 0x2B	; 43
 d2a:	27 fd       	sbrc	r18, 7
 d2c:	8d e2       	ldi	r24, 0x2D	; 45
 d2e:	b7 01       	movw	r22, r14
 d30:	90 e0       	ldi	r25, 0x00	; 0
 d32:	50 d0       	rcall	.+160    	; 0xdd4 <fputc>
 d34:	a5 14       	cp	r10, r5
 d36:	30 f4       	brcc	.+12     	; 0xd44 <vfprintf+0x378>
 d38:	b7 01       	movw	r22, r14
 d3a:	80 e3       	ldi	r24, 0x30	; 48
 d3c:	90 e0       	ldi	r25, 0x00	; 0
 d3e:	4a d0       	rcall	.+148    	; 0xdd4 <fputc>
 d40:	5a 94       	dec	r5
 d42:	f8 cf       	rjmp	.-16     	; 0xd34 <vfprintf+0x368>
 d44:	aa 94       	dec	r10
 d46:	f4 01       	movw	r30, r8
 d48:	ea 0d       	add	r30, r10
 d4a:	f1 1d       	adc	r31, r1
 d4c:	80 81       	ld	r24, Z
 d4e:	b7 01       	movw	r22, r14
 d50:	90 e0       	ldi	r25, 0x00	; 0
 d52:	40 d0       	rcall	.+128    	; 0xdd4 <fputc>
 d54:	a1 10       	cpse	r10, r1
 d56:	f6 cf       	rjmp	.-20     	; 0xd44 <vfprintf+0x378>
 d58:	33 20       	and	r3, r3
 d5a:	09 f4       	brne	.+2      	; 0xd5e <vfprintf+0x392>
 d5c:	5d ce       	rjmp	.-838    	; 0xa18 <vfprintf+0x4c>
 d5e:	b7 01       	movw	r22, r14
 d60:	80 e2       	ldi	r24, 0x20	; 32
 d62:	90 e0       	ldi	r25, 0x00	; 0
 d64:	37 d0       	rcall	.+110    	; 0xdd4 <fputc>
 d66:	3a 94       	dec	r3
 d68:	f7 cf       	rjmp	.-18     	; 0xd58 <vfprintf+0x38c>
 d6a:	f7 01       	movw	r30, r14
 d6c:	86 81       	ldd	r24, Z+6	; 0x06
 d6e:	97 81       	ldd	r25, Z+7	; 0x07
 d70:	02 c0       	rjmp	.+4      	; 0xd76 <vfprintf+0x3aa>
 d72:	8f ef       	ldi	r24, 0xFF	; 255
 d74:	9f ef       	ldi	r25, 0xFF	; 255
 d76:	2c 96       	adiw	r28, 0x0c	; 12
 d78:	0f b6       	in	r0, 0x3f	; 63
 d7a:	f8 94       	cli
 d7c:	de bf       	out	0x3e, r29	; 62
 d7e:	0f be       	out	0x3f, r0	; 63
 d80:	cd bf       	out	0x3d, r28	; 61
 d82:	df 91       	pop	r29
 d84:	cf 91       	pop	r28
 d86:	1f 91       	pop	r17
 d88:	0f 91       	pop	r16
 d8a:	ff 90       	pop	r15
 d8c:	ef 90       	pop	r14
 d8e:	df 90       	pop	r13
 d90:	cf 90       	pop	r12
 d92:	bf 90       	pop	r11
 d94:	af 90       	pop	r10
 d96:	9f 90       	pop	r9
 d98:	8f 90       	pop	r8
 d9a:	7f 90       	pop	r7
 d9c:	6f 90       	pop	r6
 d9e:	5f 90       	pop	r5
 da0:	4f 90       	pop	r4
 da2:	3f 90       	pop	r3
 da4:	2f 90       	pop	r2
 da6:	08 95       	ret

00000da8 <strnlen_P>:
 da8:	fc 01       	movw	r30, r24
 daa:	05 90       	lpm	r0, Z+
 dac:	61 50       	subi	r22, 0x01	; 1
 dae:	70 40       	sbci	r23, 0x00	; 0
 db0:	01 10       	cpse	r0, r1
 db2:	d8 f7       	brcc	.-10     	; 0xdaa <strnlen_P+0x2>
 db4:	80 95       	com	r24
 db6:	90 95       	com	r25
 db8:	8e 0f       	add	r24, r30
 dba:	9f 1f       	adc	r25, r31
 dbc:	08 95       	ret

00000dbe <strnlen>:
 dbe:	fc 01       	movw	r30, r24
 dc0:	61 50       	subi	r22, 0x01	; 1
 dc2:	70 40       	sbci	r23, 0x00	; 0
 dc4:	01 90       	ld	r0, Z+
 dc6:	01 10       	cpse	r0, r1
 dc8:	d8 f7       	brcc	.-10     	; 0xdc0 <strnlen+0x2>
 dca:	80 95       	com	r24
 dcc:	90 95       	com	r25
 dce:	8e 0f       	add	r24, r30
 dd0:	9f 1f       	adc	r25, r31
 dd2:	08 95       	ret

00000dd4 <fputc>:
 dd4:	0f 93       	push	r16
 dd6:	1f 93       	push	r17
 dd8:	cf 93       	push	r28
 dda:	df 93       	push	r29
 ddc:	18 2f       	mov	r17, r24
 dde:	09 2f       	mov	r16, r25
 de0:	eb 01       	movw	r28, r22
 de2:	8b 81       	ldd	r24, Y+3	; 0x03
 de4:	81 fd       	sbrc	r24, 1
 de6:	03 c0       	rjmp	.+6      	; 0xdee <fputc+0x1a>
 de8:	8f ef       	ldi	r24, 0xFF	; 255
 dea:	9f ef       	ldi	r25, 0xFF	; 255
 dec:	20 c0       	rjmp	.+64     	; 0xe2e <fputc+0x5a>
 dee:	82 ff       	sbrs	r24, 2
 df0:	10 c0       	rjmp	.+32     	; 0xe12 <fputc+0x3e>
 df2:	4e 81       	ldd	r20, Y+6	; 0x06
 df4:	5f 81       	ldd	r21, Y+7	; 0x07
 df6:	2c 81       	ldd	r18, Y+4	; 0x04
 df8:	3d 81       	ldd	r19, Y+5	; 0x05
 dfa:	42 17       	cp	r20, r18
 dfc:	53 07       	cpc	r21, r19
 dfe:	7c f4       	brge	.+30     	; 0xe1e <fputc+0x4a>
 e00:	e8 81       	ld	r30, Y
 e02:	f9 81       	ldd	r31, Y+1	; 0x01
 e04:	9f 01       	movw	r18, r30
 e06:	2f 5f       	subi	r18, 0xFF	; 255
 e08:	3f 4f       	sbci	r19, 0xFF	; 255
 e0a:	39 83       	std	Y+1, r19	; 0x01
 e0c:	28 83       	st	Y, r18
 e0e:	10 83       	st	Z, r17
 e10:	06 c0       	rjmp	.+12     	; 0xe1e <fputc+0x4a>
 e12:	e8 85       	ldd	r30, Y+8	; 0x08
 e14:	f9 85       	ldd	r31, Y+9	; 0x09
 e16:	81 2f       	mov	r24, r17
 e18:	19 95       	eicall
 e1a:	89 2b       	or	r24, r25
 e1c:	29 f7       	brne	.-54     	; 0xde8 <fputc+0x14>
 e1e:	2e 81       	ldd	r18, Y+6	; 0x06
 e20:	3f 81       	ldd	r19, Y+7	; 0x07
 e22:	2f 5f       	subi	r18, 0xFF	; 255
 e24:	3f 4f       	sbci	r19, 0xFF	; 255
 e26:	3f 83       	std	Y+7, r19	; 0x07
 e28:	2e 83       	std	Y+6, r18	; 0x06
 e2a:	81 2f       	mov	r24, r17
 e2c:	90 2f       	mov	r25, r16
 e2e:	df 91       	pop	r29
 e30:	cf 91       	pop	r28
 e32:	1f 91       	pop	r17
 e34:	0f 91       	pop	r16
 e36:	08 95       	ret

00000e38 <__ultoa_invert>:
 e38:	fa 01       	movw	r30, r20
 e3a:	aa 27       	eor	r26, r26
 e3c:	28 30       	cpi	r18, 0x08	; 8
 e3e:	51 f1       	breq	.+84     	; 0xe94 <__ultoa_invert+0x5c>
 e40:	20 31       	cpi	r18, 0x10	; 16
 e42:	81 f1       	breq	.+96     	; 0xea4 <__ultoa_invert+0x6c>
 e44:	e8 94       	clt
 e46:	6f 93       	push	r22
 e48:	6e 7f       	andi	r22, 0xFE	; 254
 e4a:	6e 5f       	subi	r22, 0xFE	; 254
 e4c:	7f 4f       	sbci	r23, 0xFF	; 255
 e4e:	8f 4f       	sbci	r24, 0xFF	; 255
 e50:	9f 4f       	sbci	r25, 0xFF	; 255
 e52:	af 4f       	sbci	r26, 0xFF	; 255
 e54:	b1 e0       	ldi	r27, 0x01	; 1
 e56:	3e d0       	rcall	.+124    	; 0xed4 <__ultoa_invert+0x9c>
 e58:	b4 e0       	ldi	r27, 0x04	; 4
 e5a:	3c d0       	rcall	.+120    	; 0xed4 <__ultoa_invert+0x9c>
 e5c:	67 0f       	add	r22, r23
 e5e:	78 1f       	adc	r23, r24
 e60:	89 1f       	adc	r24, r25
 e62:	9a 1f       	adc	r25, r26
 e64:	a1 1d       	adc	r26, r1
 e66:	68 0f       	add	r22, r24
 e68:	79 1f       	adc	r23, r25
 e6a:	8a 1f       	adc	r24, r26
 e6c:	91 1d       	adc	r25, r1
 e6e:	a1 1d       	adc	r26, r1
 e70:	6a 0f       	add	r22, r26
 e72:	71 1d       	adc	r23, r1
 e74:	81 1d       	adc	r24, r1
 e76:	91 1d       	adc	r25, r1
 e78:	a1 1d       	adc	r26, r1
 e7a:	20 d0       	rcall	.+64     	; 0xebc <__ultoa_invert+0x84>
 e7c:	09 f4       	brne	.+2      	; 0xe80 <__ultoa_invert+0x48>
 e7e:	68 94       	set
 e80:	3f 91       	pop	r19
 e82:	2a e0       	ldi	r18, 0x0A	; 10
 e84:	26 9f       	mul	r18, r22
 e86:	11 24       	eor	r1, r1
 e88:	30 19       	sub	r19, r0
 e8a:	30 5d       	subi	r19, 0xD0	; 208
 e8c:	31 93       	st	Z+, r19
 e8e:	de f6       	brtc	.-74     	; 0xe46 <__ultoa_invert+0xe>
 e90:	cf 01       	movw	r24, r30
 e92:	08 95       	ret
 e94:	46 2f       	mov	r20, r22
 e96:	47 70       	andi	r20, 0x07	; 7
 e98:	40 5d       	subi	r20, 0xD0	; 208
 e9a:	41 93       	st	Z+, r20
 e9c:	b3 e0       	ldi	r27, 0x03	; 3
 e9e:	0f d0       	rcall	.+30     	; 0xebe <__ultoa_invert+0x86>
 ea0:	c9 f7       	brne	.-14     	; 0xe94 <__ultoa_invert+0x5c>
 ea2:	f6 cf       	rjmp	.-20     	; 0xe90 <__ultoa_invert+0x58>
 ea4:	46 2f       	mov	r20, r22
 ea6:	4f 70       	andi	r20, 0x0F	; 15
 ea8:	40 5d       	subi	r20, 0xD0	; 208
 eaa:	4a 33       	cpi	r20, 0x3A	; 58
 eac:	18 f0       	brcs	.+6      	; 0xeb4 <__ultoa_invert+0x7c>
 eae:	49 5d       	subi	r20, 0xD9	; 217
 eb0:	31 fd       	sbrc	r19, 1
 eb2:	40 52       	subi	r20, 0x20	; 32
 eb4:	41 93       	st	Z+, r20
 eb6:	02 d0       	rcall	.+4      	; 0xebc <__ultoa_invert+0x84>
 eb8:	a9 f7       	brne	.-22     	; 0xea4 <__ultoa_invert+0x6c>
 eba:	ea cf       	rjmp	.-44     	; 0xe90 <__ultoa_invert+0x58>
 ebc:	b4 e0       	ldi	r27, 0x04	; 4
 ebe:	a6 95       	lsr	r26
 ec0:	97 95       	ror	r25
 ec2:	87 95       	ror	r24
 ec4:	77 95       	ror	r23
 ec6:	67 95       	ror	r22
 ec8:	ba 95       	dec	r27
 eca:	c9 f7       	brne	.-14     	; 0xebe <__ultoa_invert+0x86>
 ecc:	00 97       	sbiw	r24, 0x00	; 0
 ece:	61 05       	cpc	r22, r1
 ed0:	71 05       	cpc	r23, r1
 ed2:	08 95       	ret
 ed4:	9b 01       	movw	r18, r22
 ed6:	ac 01       	movw	r20, r24
 ed8:	0a 2e       	mov	r0, r26
 eda:	06 94       	lsr	r0
 edc:	57 95       	ror	r21
 ede:	47 95       	ror	r20
 ee0:	37 95       	ror	r19
 ee2:	27 95       	ror	r18
 ee4:	ba 95       	dec	r27
 ee6:	c9 f7       	brne	.-14     	; 0xeda <__ultoa_invert+0xa2>
 ee8:	62 0f       	add	r22, r18
 eea:	73 1f       	adc	r23, r19
 eec:	84 1f       	adc	r24, r20
 eee:	95 1f       	adc	r25, r21
 ef0:	a0 1d       	adc	r26, r0
 ef2:	08 95       	ret

00000ef4 <_exit>:
 ef4:	f8 94       	cli

00000ef6 <__stop_program>:
 ef6:	ff cf       	rjmp	.-2      	; 0xef6 <__stop_program>
